 Lesson115_DEBUG

 Timestamp is 62790db4 (Mon May  9 15:48:52 2022)

 Preferred load address is 00400000

 Start         Length     Name                   Class
 0001:00000000 0000e650H .text$di                CODE
 0001:0000e650 000e4570H .text$mn                CODE
 0001:000f2bc0 000031a0H .text$x                 CODE
 0001:000f5d60 000010a3H .text$yd                CODE
 0002:00000000 00000104H .CRT$XCA                DATA
 0002:00000104 00000104H .CRT$XCAA               DATA
 0002:00000208 00000104H .CRT$XCC                DATA
 0002:0000030c 0000012cH .CRT$XCU                DATA
 0002:00000438 00000104H .CRT$XCZ                DATA
 0002:0000053c 00000104H .CRT$XIA                DATA
 0002:00000640 00000104H .CRT$XIAA               DATA
 0002:00000744 00000104H .CRT$XIAC               DATA
 0002:00000848 00000114H .CRT$XIC                DATA
 0002:0000095c 00000104H .CRT$XIZ                DATA
 0002:00000a60 00000104H .CRT$XPA                DATA
 0002:00000b64 0000010cH .CRT$XPX                DATA
 0002:00000c70 00000104H .CRT$XPXA               DATA
 0002:00000d74 00000104H .CRT$XPZ                DATA
 0002:00000e78 00000104H .CRT$XTA                DATA
 0002:00000f7c 00000104H .CRT$XTZ                DATA
 0002:00001080 0002bb88H .rdata                  DATA
 0002:0002cc08 00000c68H .rdata$r                DATA
 0002:0002d870 000003dcH .rdata$sxdata           DATA
 0002:0002dc4c 000001d0H .rdata$zzzdbg           DATA
 0002:0002de1c 00000104H .rtc$IAA                DATA
 0002:0002df20 00000104H .rtc$IZZ                DATA
 0002:0002e024 00000104H .rtc$TAA                DATA
 0002:0002e128 00000108H .rtc$TZZ                DATA
 0002:0002e230 00003386H .xdata$x                DATA
 0002:000315b6 00000000H .edata                  DATA
 0003:00000000 0000b7e0H .data                   DATA
 0003:0000b7e0 00000568H .data$r                 DATA
 0003:0000bd48 00001b1cH .bss                    DATA
 0004:00000000 00000430H .idata$5                DATA
 0004:00000430 0000008cH .idata$2                DATA
 0004:000004bc 00000014H .idata$3                DATA
 0004:000004d0 00000430H .idata$4                DATA
 0004:00000900 00000df3H .idata$6                DATA
 0005:00000000 00000104H .00cfg                  DATA
 0006:00000000 00000170H .rsrc$01                DATA
 0006:00000170 000002ccH .rsrc$02                DATA

  Address         Publics by Value              Rva+Base       Lib:Object

 0000:00000000       ___guard_iat_table         00000000     <absolute>
 0000:00000000       __except_list              00000000     <absolute>
 0000:00000000       ___guard_fids_count        00000000     <absolute>
 0000:00000000       ___guard_longjmp_count     00000000     <absolute>
 0000:00000000       ___guard_fids_table        00000000     <absolute>
 0000:00000000       ___dynamic_value_reloc_table 00000000     <absolute>
 0000:00000000       ___hybrid_auxiliary_iat    00000000     <absolute>
 0000:00000000       ___guard_longjmp_table     00000000     <absolute>
 0000:00000000       ___hybrid_code_map         00000000     <absolute>
 0000:00000000       ___enclave_config          00000000     <absolute>
 0000:00000000       ___hybrid_code_map_count   00000000     <absolute>
 0000:00000000       ___volatile_metadata       00000000     <absolute>
 0000:00000000       ___guard_iat_count         00000000     <absolute>
 0000:00000098       ___safe_se_handler_count   00000098     <absolute>
 0000:00000100       ___guard_flags             00000100     <absolute>
 0000:00000000       ___ImageBase               00400000     <linker-defined>
 0001:0000e650       ?SetupGLMatrix@@YAXABVNxVec3@@ABVNxMat33@@@Z 0040f650 f   DrawObjects.obj
 0001:0000e700       ?DrawLine@@YAXABVNxVec3@@00M@Z 0040f700 f   DrawObjects.obj
 0001:0000e810       ?DrawTriangle@@YAXABVNxVec3@@000@Z 0040f810 f   DrawObjects.obj
 0001:0000e930       ?DrawCircle@@YAXIABVNxMat34@@ABVNxVec3@@M_N@Z 0040f930 f   DrawObjects.obj
 0001:0000eb30       ?DrawEllipse@@YAXIABVNxMat34@@ABVNxVec3@@MM_N@Z 0040fb30 f   DrawObjects.obj
 0001:0000ed30       ?DrawWirePlane@@YAXPAVNxShape@@ABVNxVec3@@@Z 0040fd30 f   DrawObjects.obj
 0001:0000ed40       ?DrawPlane@@YAXPAVNxShape@@@Z 0040fd40 f   DrawObjects.obj
 0001:0000ee90       ?DrawWireBox@@YAXPAVNxShape@@ABVNxVec3@@M@Z 0040fe90 f   DrawObjects.obj
 0001:0000ef20       ?DrawWireBox@@YAXABVNxBox@@ABVNxVec3@@M@Z 0040ff20 f   DrawObjects.obj
 0001:0000efd0       ?DrawBox@@YAXPAVNxShape@@@Z 0040ffd0 f   DrawObjects.obj
 0001:0000f0a0       ?DrawWireSphere@@YAXPAVNxShape@@ABVNxVec3@@@Z 004100a0 f   DrawObjects.obj
 0001:0000f220       ?DrawWireSphere@@YAXPAVNxSphere@@ABVNxVec3@@@Z 00410220 f   DrawObjects.obj
 0001:0000f390       ?DrawSphere@@YAXPAVNxShape@@@Z 00410390 f   DrawObjects.obj
 0001:0000f460       ?DrawWireCapsule@@YAXPAVNxShape@@ABVNxVec3@@@Z 00410460 f   DrawObjects.obj
 0001:0000f990       ?DrawWireCapsule@@YAXABVNxCapsule@@ABVNxVec3@@@Z 00410990 f   DrawObjects.obj
 0001:0000ff70       ?DrawCapsule@@YAXPAVNxShape@@@Z 00410f70 f   DrawObjects.obj
 0001:000101b0       ?DrawCapsule@@YAXABVNxVec3@@MM@Z 004111b0 f   DrawObjects.obj
 0001:00010360       ?DrawWireConvex@@YAXPAVNxShape@@ABVNxVec3@@_N@Z 00411360 f   DrawObjects.obj
 0001:000105b0       ?DrawConvex@@YAXPAVNxShape@@_N@Z 004115b0 f   DrawObjects.obj
 0001:00010780       ?DrawWireMesh@@YAXPAVNxShape@@ABVNxVec3@@_N@Z 00411780 f   DrawObjects.obj
 0001:000109e0       ?DrawMesh@@YAXPAVNxShape@@_N@Z 004119e0 f   DrawObjects.obj
 0001:00010ba0       ?DrawWheelShape@@YAXPAVNxShape@@@Z 00411ba0 f   DrawObjects.obj
 0001:00010d70       ?DrawArrow@@YAXABVNxVec3@@00@Z 00411d70 f   DrawObjects.obj
 0001:000110f0       ?DrawContactPoint@@YAXABVNxVec3@@M0@Z 004120f0 f   DrawObjects.obj
 0001:00011250       ?DrawWireShape@@YAXPAVNxShape@@ABVNxVec3@@_N@Z 00412250 f   DrawObjects.obj
 0001:00011320       ?DrawShape@@YAXPAVNxShape@@_N@Z 00412320 f   DrawObjects.obj
 0001:000113f0       ?DrawActor@@YAXPAVNxActor@@0_N@Z 004123f0 f   DrawObjects.obj
 0001:00011530       ?DrawActorShadow@@YAXPAVNxActor@@_N@Z 00412530 f   DrawObjects.obj
 0001:00011550       ?DrawActorShadow2@@YAXPAVNxActor@@_N@Z 00412550 f   DrawObjects.obj
 0001:00011570       ?DrawActorShadowZUp@@YAXPAVNxActor@@_N@Z 00412570 f   DrawObjects.obj
 0001:00011590       ?DrawCloth@@YAXPAVNxCloth@@_N@Z 00412590 f   DrawObjects.obj
 0001:00011700       ?DrawActorShapeSelect@@YAXPAVNxActor@@PAVNxShape@@_N0_N@Z 00412700 f   DrawObjects.obj
 0001:00011ae0       ?DrawTriangleList@@YAXHPAU_Triangle@@PAVNxVec3@@@Z 00412ae0 f   DrawObjects.obj
 0001:00011e30       ?DrawHeightfield@@YAXPAVNxShape@@@Z 00412e30 f   DrawObjects.obj
 0001:00013510       ??0NxBox@@QAE@XZ           00414510 f i DrawObjects.obj
 0001:00013550       ??0NxConvexMeshDesc@@QAE@XZ 00414550 f i DrawObjects.obj
 0001:00013570       ??0NxMat33@@QAE@ABV0@@Z    00414570 f i DrawObjects.obj
 0001:000135a0       ??0NxMat33@@QAE@XZ         004145a0 f i DrawObjects.obj
 0001:000135c0       ??0NxMat34@@QAE@ABV0@@Z    004145c0 f i DrawObjects.obj
 0001:00013640       ??0NxMat34@@QAE@_N@Z       00414640 f i DrawObjects.obj
 0001:000136e0       ??0NxSegment@@QAE@XZ       004146e0 f i DrawObjects.obj
 0001:00013710       ??0NxTriangle@@QAE@XZ      00414710 f i DrawObjects.obj
 0001:00013740       ??0NxVec3@@QAE@ABV0@@Z     00414740 f i DrawObjects.obj
 0001:00013780       ??0NxVec3@@QAE@MMM@Z       00414780 f i DrawObjects.obj
 0001:000137d0       ??0NxVec3@@QAE@XZ          004147d0 f i DrawObjects.obj
 0001:000137f0       ??1NxBox@@QAE@XZ           004147f0 f i DrawObjects.obj
 0001:00013810       ??1NxMat33@@QAE@XZ         00414810 f i DrawObjects.obj
 0001:00013820       ??1NxMat34@@QAE@XZ         00414820 f i DrawObjects.obj
 0001:00013840       ??1NxMeshData@@QAE@XZ      00414840 f i DrawObjects.obj
 0001:00013850       ??1NxSegment@@QAE@XZ       00414850 f i DrawObjects.obj
 0001:00013860       ??1NxTriangle@@QAE@XZ      00414860 f i DrawObjects.obj
 0001:00013870       ??4NxVec3@@QAEABV0@ABV0@@Z 00414870 f i DrawObjects.obj
 0001:000138b0       ??DNxMat33@@QBE?AVNxVec3@@ABV1@@Z 004148b0 f i DrawObjects.obj
 0001:00013900       ??DNxVec3@@QBE?AV0@M@Z     00414900 f i DrawObjects.obj
 0001:00013970       ??GNxVec3@@QBE?AV0@ABV0@@Z 00414970 f i DrawObjects.obj
 0001:000139e0       ??GNxVec3@@QBE?AV0@XZ      004149e0 f i DrawObjects.obj
 0001:00013a50       ??HNxVec3@@QBE?AV0@ABV0@@Z 00414a50 f i DrawObjects.obj
 0001:00013ac0       ??TNxVec3@@QBE?AV0@ABV0@@Z 00414ac0 f i DrawObjects.obj
 0001:00013b10       ??XNxVec3@@QAEAAV0@M@Z     00414b10 f i DrawObjects.obj
 0001:00013b70       ??YNxVec3@@QAEAAV0@ABV0@@Z 00414b70 f i DrawObjects.obj
 0001:00013be0       ??_0NxVec3@@QAEAAV0@M@Z    00414be0 f i DrawObjects.obj
 0001:00013c60       ??_H@YGXPAXIIP6EPAX0@Z@Z   00414c60 f i DrawObjects.obj
 0001:00013ca0       ?NxComputeBoxPoints@@YA_NABVNxBox@@PAVNxVec3@@@Z 00414ca0 f i DrawObjects.obj
 0001:00013cd0       ?NxGetBoxEdges@@YAPBIXZ    00414cd0 f i DrawObjects.obj
 0001:00013d00       ?NxNormalToTangents@@YAXABVNxVec3@@AAV1@1@Z 00414d00 f i DrawObjects.obj
 0001:00013d40       ?cross@NxVec3@@QAEXABV1@0@Z 00414d40 f i DrawObjects.obj
 0001:00013e20       ?cross@NxVec3@@QBE?AV1@ABV1@@Z 00414e20 f i DrawObjects.obj
 0001:00013e70       ?get@NxVec3@@QBEXPAM@Z     00414e70 f i DrawObjects.obj
 0001:00013ed0       ?getColumn@NxMat33@@QBEXHAAVNxVec3@@@Z 00414ed0 f i DrawObjects.obj
 0001:00013f40       ?getColumnMajorStride4@NxMat33@@QBEXPAM@Z 00414f40 f i DrawObjects.obj
 0001:00014030       ?id@NxMat33@@QAEXXZ        00415030 f i DrawObjects.obj
 0001:000140d0       ?isBox@NxShape@@QAEPAVNxBoxShape@@XZ 004150d0 f i DrawObjects.obj
 0001:000140f0       ?isCapsule@NxShape@@QAEPAVNxCapsuleShape@@XZ 004150f0 f i DrawObjects.obj
 0001:00014110       ?isConvexMesh@NxShape@@QAEPAVNxConvexShape@@XZ 00415110 f i DrawObjects.obj
 0001:00014130       ?isSphere@NxShape@@QAEPAVNxSphereShape@@XZ 00415130 f i DrawObjects.obj
 0001:00014150       ?magnitude@NxVec3@@QBEMXZ  00415150 f i DrawObjects.obj
 0001:000141c0       ?multiply@NxMat33@@QBEXABVNxVec3@@AAV2@@Z 004151c0 f i DrawObjects.obj
 0001:000142f0       ?multiply@NxMat34@@QBEXABVNxVec3@@AAV2@@Z 004152f0 f i DrawObjects.obj
 0001:00014340       ?normalize@NxVec3@@QAEMXZ  00415340 f i DrawObjects.obj
 0001:000143e0       ?setColumn@NxMat33@@QAEXHABVNxVec3@@@Z 004153e0 f i DrawObjects.obj
 0001:00014450       ?setToDefault@NxConvexMeshDesc@@QAEXXZ 00415450 f i DrawObjects.obj
 0001:000144c0       ?sqrt@NxMath@@SAMM@Z       004154c0 f i DrawObjects.obj
 0001:000144e0       ?zero@NxVec3@@QAEXXZ       004154e0 f i DrawObjects.obj
 0001:00014520       _cosf                      00415520 f i DrawObjects.obj
 0001:00014550       _fabsf                     00415550 f i DrawObjects.obj
 0001:00014580       _sinf                      00415580 f i DrawObjects.obj
 0001:000145b0       _sqrtf                     004155b0 f i DrawObjects.obj
 0001:000145e0       ?init@GLFontRenderer@@SA_NXZ 004155e0 f   GLFontRenderer.obj
 0001:00014700       ?print@GLFontRenderer@@SAXMMMPBD_NH1@Z 00415700 f   GLFontRenderer.obj
 0001:00014ef0       ?setScreenResolution@GLFontRenderer@@SAXHH@Z 00415ef0 f   GLFontRenderer.obj
 0001:00014f10       ?setColor@GLFontRenderer@@SAXMMMM@Z 00415f10 f   GLFontRenderer.obj
 0001:000151d0       ?AddDisplayString@HUD@@QAEXPADMM@Z 004161d0 f   HUD.obj
 0001:00015250       ?SetDisplayString@HUD@@QAEXIPADMM@Z 00416250 f   HUD.obj
 0001:000152b0       ?Clear@HUD@@QAEXXZ         004162b0 f   HUD.obj
 0001:000152d0       ?Render@HUD@@QAEXXZ        004162d0 f   HUD.obj
 0001:000153e0       ??0DisplayString@@QAE@XZ   004163e0 f i HUD.obj
 0001:00015430       ??A?$NxArray@VDisplayString@@VNxAllocatorDefault@@@@QAEAAVDisplayString@@I@Z 00416430 f i HUD.obj
 0001:00015450       ?allocate@?$NxArray@VDisplayString@@VNxAllocatorDefault@@@@AAEPAVDisplayString@@I@Z 00416450 f i HUD.obj
 0001:000154a0       ?begin@?$NxArray@VDisplayString@@VNxAllocatorDefault@@@@QAEPAVDisplayString@@XZ 004164a0 f i HUD.obj
 0001:000154c0       ?capacity@?$NxArray@VDisplayString@@VNxAllocatorDefault@@@@QBEIXZ 004164c0 f i HUD.obj
 0001:00015510       ?clear@?$NxArray@VDisplayString@@VNxAllocatorDefault@@@@QAEXXZ 00416510 f i HUD.obj
 0001:00015550       ?copy@?$NxArray@VDisplayString@@VNxAllocatorDefault@@@@AAEPAVDisplayString@@PBV2@0PAV2@@Z 00416550 f i HUD.obj
 0001:000155b0       ?deallocate@?$NxArray@VDisplayString@@VNxAllocatorDefault@@@@AAEXPAVDisplayString@@@Z 004165b0 f i HUD.obj
 0001:000155e0       ?destroy@?$NxArray@VDisplayString@@VNxAllocatorDefault@@@@AAEXPAVDisplayString@@0@Z 004165e0 f i HUD.obj
 0001:00015610       ?end@?$NxArray@VDisplayString@@VNxAllocatorDefault@@@@QAEPAVDisplayString@@XZ 00416610 f i HUD.obj
 0001:00015630       ?free@NxAllocatorDefault@@QAEXPAX@Z 00416630 f i HUD.obj
 0001:00015660       ?mallocDEBUG@NxAllocatorDefault@@QAEPAXIPBDH0W4NxMemoryType@@@Z 00416660 f i HUD.obj
 0001:00015680       ?pushBack@?$NxArray@VDisplayString@@VNxAllocatorDefault@@@@QAEXABVDisplayString@@@Z 00416680 f i HUD.obj
 0001:000156f0       ?reserve@?$NxArray@VDisplayString@@VNxAllocatorDefault@@@@QAEXI@Z 004166f0 f i HUD.obj
 0001:000157b0       ?size@?$NxArray@VDisplayString@@VNxAllocatorDefault@@@@QBEIXZ 004167b0 f i HUD.obj
 0001:000157e0       ___local_stdio_printf_options 004167e0 f i HUD.obj
 0001:000157f0       __vsnprintf_l              004167f0 f i HUD.obj
 0001:00015860       __vsprintf_l               00416860 f i HUD.obj
 0001:00015890       _sprintf                   00416890 f i HUD.obj
 0001:000158d0       ??0BmpLoader@@QAE@XZ       004168d0 f   BmpLoader.obj
 0001:00015900       ??1BmpLoader@@QAE@XZ       00416900 f   BmpLoader.obj
 0001:00015930       ?loadBmp@BmpLoader@@QAE_NPBD@Z 00416930 f   BmpLoader.obj
 0001:00015fe0       ?hasCookingLibrary@@YA_NXZ 00416fe0 f   cooking.obj
 0001:00016020       ?InitCooking@@YA_NPAVNxUserAllocator@@PAVNxUserOutputStream@@@Z 00417020 f   cooking.obj
 0001:00016060       ?CloseCooking@@YAXXZ       00417060 f   cooking.obj
 0001:00016090       ?CookConvexMesh@@YA_NABVNxConvexMeshDesc@@AAVNxStream@@@Z 00417090 f   cooking.obj
 0001:000160d0       ?CookClothMesh@@YA_NABVNxClothMeshDesc@@AAVNxStream@@@Z 004170d0 f   cooking.obj
 0001:00016110       ?CookTriangleMesh@@YA_NABVNxTriangleMeshDesc@@AAVNxStream@@@Z 00417110 f   cooking.obj
 0001:00016150       ?CookSoftBodyMesh@@YA_NABVNxSoftBodyMeshDesc@@AAVNxStream@@@Z 00417150 f   cooking.obj
 0001:00016190       ?CreatePMap@@YA_NAAVNxPMap@@ABVNxTriangleMesh@@IPAVNxUserOutputStream@@@Z 00417190 f   cooking.obj
 0001:000161d0       ?ReleasePMap@@YA_NAAVNxPMap@@@Z 004171d0 f   cooking.obj
 0001:00016290       ??0Renderer@@AAE@XZ        00417290 f   glRenderer.obj
 0001:000162c0       ??1Renderer@@AAE@XZ        004172c0 f   glRenderer.obj
 0001:00016320       ?getInstance@Renderer@@SAPAV1@XZ 00417320 f   glRenderer.obj
 0001:000163b0       ?destroyInstance@Renderer@@SAXXZ 004173b0 f   glRenderer.obj
 0001:00016400       ?clear@Renderer@@QAEXXZ    00417400 f   glRenderer.obj
 0001:00016430       ?clearDepth@Renderer@@QAEXXZ 00417430 f   glRenderer.obj
 0001:00016450       ?clearColor@Renderer@@QAEXXZ 00417450 f   glRenderer.obj
 0001:00016470       ?maskColor@Renderer@@QAEX_N00@Z 00417470 f   glRenderer.obj
 0001:000164f0       ?lighting@Renderer@@QAEX_N@Z 004174f0 f   glRenderer.obj
 0001:00016520       ?backColor@Renderer@@QAEXPAM@Z 00417520 f   glRenderer.obj
 0001:00016590       ?wireframeMode@Renderer@@QAEX_N@Z 00417590 f   glRenderer.obj
 0001:000165d0       ?project@Renderer@@QAEXAAVNxVec3@@AAH1AAM@Z 004175d0 f   glRenderer.obj
 0001:000166d0       ?unProject@Renderer@@QAEXHHMAAVNxVec3@@@Z 004176d0 f   glRenderer.obj
 0001:000167d0       ?depthAt@Renderer@@QAEMHH@Z 004177d0 f   glRenderer.obj
 0001:00016840       ?pushModelTransformation@Renderer@@QAEXABVNxMat34@@@Z 00417840 f   glRenderer.obj
 0001:00016890       ?popModelTransformation@Renderer@@QAEXXZ 00417890 f   glRenderer.obj
 0001:000168b0       ?findTexture@Renderer@@QAEHPAD@Z 004178b0 f   glRenderer.obj
 0001:00016920       ?addBmpTexture@Renderer@@QAEHPAD@Z 00417920 f   glRenderer.obj
 0001:00016aa0       ?freeTextures@Renderer@@QAEXXZ 00417aa0 f   glRenderer.obj
 0001:00016b30       ?activateTexture@Renderer@@QAEXH@Z 00417b30 f   glRenderer.obj
 0001:00016b90       ?deactivateTexture@Renderer@@QAEXXZ 00417b90 f   glRenderer.obj
 0001:00016bb0       ?setColor@Renderer@@QAEXI@Z 00417bb0 f   glRenderer.obj
 0001:00016ca0       ?setColor3r@Renderer@@QAEXQAM@Z 00417ca0 f   glRenderer.obj
 0001:00016d10       ?setColor4r@Renderer@@QAEXQAM@Z 00417d10 f   glRenderer.obj
 0001:00016d80       ?drawPoint@Renderer@@QAEXABVNxVec3@@I@Z 00417d80 f   glRenderer.obj
 0001:00016dd0       ?drawLine@Renderer@@QAEXABVNxVec3@@0I@Z 00417dd0 f   glRenderer.obj
 0001:00016e60       ?drawTriangles@Renderer@@QAEXHPBHPBVNxVec3@@1PBUTexCoord@@@Z 00417e60 f   glRenderer.obj
 0001:00016f20       ?drawTetrahedron@Renderer@@QAEXABVNxVec3@@000MI@Z 00417f20 f   glRenderer.obj
 0001:000174b0       ?drawBounds@Renderer@@QAEXABVNxBounds3@@I@Z 004184b0 f   glRenderer.obj
 0001:00017820       ?drawBox@Renderer@@QAEXABVNxBounds3@@I@Z 00418820 f   glRenderer.obj
 0001:00018050       ?drawWireTriangle@Renderer@@QAEXABVNxVec3@@00I@Z 00419050 f   glRenderer.obj
 0001:000180b0       ?drawWireSphere@Renderer@@QAEXABVNxVec3@@MIH@Z 004190b0 f   glRenderer.obj
 0001:000182e0       ?getFvColor@Renderer@@AAEPAMI@Z 004192e0 f   glRenderer.obj
 0001:000183e0       ?subdivide@Renderer@@AAEXABVNxVec3@@00H@Z 004193e0 f   glRenderer.obj
 0001:00018d60       ??$?0$$V@?$_Compressed_pair@V?$allocator@PAURendererTexRef@@@std@@V?$_Vector_val@U?$_Simple_types@PAURendererTexRef@@@std@@@2@$00@std@@QAE@U_Zero_then_variadic_args_t@1@@Z 00419d60 f i glRenderer.obj
 0001:00018d90       ??$?0PAURendererTexRef@@@?$allocator@U_Container_proxy@std@@@std@@QAE@ABV?$allocator@PAURendererTexRef@@@1@@Z 00419d90 f i glRenderer.obj
 0001:00018db0       ??$_Allocate@$07U_Default_allocate_traits@std@@$0A@@std@@YAPAXI@Z 00419db0 f i glRenderer.obj
 0001:00018df0       ??$_Allocate_manually_vector_aligned@U_Default_allocate_traits@std@@@std@@YAPAXI@Z 00419df0 f i glRenderer.obj
 0001:00018ed0       ??$_Copy_memmove@PAPAURendererTexRef@@PAPAU1@@std@@YAPAPAURendererTexRef@@PAPAU1@00@Z 00419ed0 f i glRenderer.obj
 0001:00018f20       ??$_Deallocate@$07$0A@@std@@YAXPAXI@Z 00419f20 f i glRenderer.obj
 0001:00018f60       ??$_Deallocate_plain@V?$allocator@U_Container_proxy@std@@@std@@$0A@@std@@YAXAAV?$allocator@U_Container_proxy@std@@@0@QAU_Container_proxy@0@@Z 00419f60 f i glRenderer.obj
 0001:00018f80       ??$_Destroy_range1@V?$allocator@PAURendererTexRef@@@std@@@std@@YAXPAPAURendererTexRef@@0AAV?$allocator@PAURendererTexRef@@@0@U?$integral_constant@_N$00@0@@Z 00419f80 f i glRenderer.obj
 0001:00018f90       ??$_Destroy_range@V?$allocator@PAURendererTexRef@@@std@@@std@@YAXPAPAURendererTexRef@@0AAV?$allocator@PAURendererTexRef@@@0@@Z 00419f90 f i glRenderer.obj
 0001:00018fc0       ??$_Emplace_back_with_unused_capacity@ABQAURendererTexRef@@@?$vector@PAURendererTexRef@@V?$allocator@PAURendererTexRef@@@std@@@std@@AAEXABQAURendererTexRef@@@Z 00419fc0 f i glRenderer.obj
 0001:00019070       ??$_Emplace_reallocate@ABQAURendererTexRef@@@?$vector@PAURendererTexRef@@V?$allocator@PAURendererTexRef@@@std@@@std@@QAEPAPAURendererTexRef@@QAPAU2@ABQAU2@@Z 0041a070 f i glRenderer.obj
 0001:000192c0       ??$_Get_size_of_n@$03@std@@YAII@Z 0041a2c0 f i glRenderer.obj
 0001:00019300       ??$_Get_size_of_n@$07@std@@YAII@Z 0041a300 f i glRenderer.obj
 0001:00019340       ??$_Get_unwrapped@PAURendererTexRef@@@std@@YAPAPAURendererTexRef@@QAPAU1@@Z 0041a340 f i glRenderer.obj
 0001:00019350       ??$_Get_unwrapped_n@PAURendererTexRef@@H$0A@@std@@YAPAPAURendererTexRef@@QAPAU1@H@Z 0041a350 f i glRenderer.obj
 0001:00019360       ??$_Idl_distance1@PAPAURendererTexRef@@PAPAU1@@std@@YAHABQAPAURendererTexRef@@0Urandom_access_iterator_tag@0@@Z 0041a360 f i glRenderer.obj
 0001:00019380       ??$_Idl_distance@PAPAURendererTexRef@@PAPAU1@@std@@YAHABQAPAURendererTexRef@@0@Z 0041a380 f i glRenderer.obj
 0001:000193b0       ??$_Min_value@I@std@@YAABIABI0@Z 0041a3b0 f i glRenderer.obj
 0001:000193f0       ??$_Ptr_move_cat@PAURendererTexRef@@PAU1@@std@@YA?AU_Really_trivial_ptr_iterator_tag@0@ABQAPAURendererTexRef@@0@Z 0041a3f0 f i glRenderer.obj
 0001:00019400       ??$_Seek_wrapped@PAURendererTexRef@@@std@@YAXAAPAPAURendererTexRef@@QAPAU1@@Z 0041a400 f i glRenderer.obj
 0001:00019410       ??$_Unfancy@PAURendererTexRef@@@std@@YAPAPAURendererTexRef@@PAPAU1@@Z 0041a410 f i glRenderer.obj
 0001:00019420       ??$_Unfancy@U_Container_proxy@std@@@std@@YAPAU_Container_proxy@0@PAU10@@Z 0041a420 f i glRenderer.obj
 0001:00019430       ??$_Uninitialized_move@PAPAURendererTexRef@@PAPAU1@V?$allocator@PAURendererTexRef@@@std@@@std@@YAPAPAURendererTexRef@@QAPAU1@0PAPAU1@AAV?$allocator@PAURendererTexRef@@@0@@Z 0041a430 f i glRenderer.obj
 0001:000194f0       ??$_Uninitialized_move_al_unchecked@PAURendererTexRef@@PAU1@V?$allocator@PAURendererTexRef@@@std@@@std@@YAPAPAURendererTexRef@@QAPAU1@00AAV?$allocator@PAURendererTexRef@@@0@U_Really_trivial_ptr_iterator_tag@0@U?$integral_constant@_N$00@0@@Z 0041a4f0 f i glRenderer.obj
 0001:00019510       ??$addressof@V?$_Vector_val@U?$_Simple_types@PAURendererTexRef@@@std@@@std@@@std@@YAPAV?$_Vector_val@U?$_Simple_types@PAURendererTexRef@@@std@@@0@AAV10@@Z 0041a510 f i glRenderer.obj
 0001:00019520       ??$construct@PAURendererTexRef@@ABQAU1@@?$_Default_allocator_traits@V?$allocator@PAURendererTexRef@@@std@@@std@@SAXAAV?$allocator@PAURendererTexRef@@@1@QAPAURendererTexRef@@ABQAU3@@Z 0041a520 f i glRenderer.obj
 0001:00019560       ??$construct@U_Container_proxy@std@@U12@@?$_Default_allocator_traits@V?$allocator@U_Container_proxy@std@@@std@@@std@@SAXAAV?$allocator@U_Container_proxy@std@@@1@QAU_Container_proxy@1@$$QAU31@@Z 0041a560 f i glRenderer.obj
 0001:000195a0       ??$destroy@U_Container_proxy@std@@@?$_Default_allocator_traits@V?$allocator@U_Container_proxy@std@@@std@@@std@@SAXAAV?$allocator@U_Container_proxy@std@@@1@QAU_Container_proxy@1@@Z 0041a5a0 f i glRenderer.obj
 0001:000195b0       ??$emplace_back@ABQAURendererTexRef@@@?$vector@PAURendererTexRef@@V?$allocator@PAURendererTexRef@@@std@@@std@@QAEXABQAURendererTexRef@@@Z 0041a5b0 f i glRenderer.obj
 0001:00019620       ??$forward@ABQAURendererTexRef@@@std@@YAABQAURendererTexRef@@ABQAU1@@Z 0041a620 f i glRenderer.obj
 0001:00019630       ??$forward@U_Container_proxy@std@@@std@@YA$$QAU_Container_proxy@0@AAU10@@Z 0041a630 f i glRenderer.obj
 0001:00019640       ??0?$_Vector_alloc@U?$_Vec_base_types@PAURendererTexRef@@V?$allocator@PAURendererTexRef@@@std@@@std@@@std@@QAE@XZ 0041a640 f i glRenderer.obj
 0001:00019670       ??0?$_Vector_val@U?$_Simple_types@PAURendererTexRef@@@std@@@std@@QAE@XZ 0041a670 f i glRenderer.obj
 0001:000196c0       ??0?$allocator@PAURendererTexRef@@@std@@QAE@XZ 0041a6c0 f i glRenderer.obj
 0001:000196e0       ??0?$vector@PAURendererTexRef@@V?$allocator@PAURendererTexRef@@@std@@@std@@QAE@XZ 0041a6e0 f i glRenderer.obj
 0001:00019730       ??0NxVec3@@QAE@QBM@Z       0041a730 f i glRenderer.obj
 0001:00019790       ??0_Container_base12@std@@QAE@XZ 0041a790 f i glRenderer.obj
 0001:000197b0       ??0_Container_proxy@std@@QAE@XZ 0041a7b0 f i glRenderer.obj
 0001:000197e0       ??1?$_Vector_alloc@U?$_Vec_base_types@PAURendererTexRef@@V?$allocator@PAURendererTexRef@@@std@@@std@@@std@@QAE@XZ 0041a7e0 f i glRenderer.obj
 0001:00019830       ??1?$vector@PAURendererTexRef@@V?$allocator@PAURendererTexRef@@@std@@@std@@QAE@XZ 0041a830 f i glRenderer.obj
 0001:00019890       ??2@YAPAXIPAX@Z            0041a890 f i glRenderer.obj
 0001:000198a0       ??A?$vector@PAURendererTexRef@@V?$allocator@PAURendererTexRef@@@std@@@std@@QAEAAPAURendererTexRef@@I@Z 0041a8a0 f i glRenderer.obj
 0001:00019940       ??_GRenderer@@AAEPAXI@Z    0041a940 f i glRenderer.obj
 0001:00019980       ?_Adjust_manually_vector_aligned@std@@YAXAAPAXAAI@Z 0041a980 f i glRenderer.obj
 0001:00019ac0       ?_Alloc_proxy@?$_Vector_alloc@U?$_Vec_base_types@PAURendererTexRef@@V?$allocator@PAURendererTexRef@@@std@@@std@@@std@@QAEXXZ 0041aac0 f i glRenderer.obj
 0001:00019b60       ?_Allocate@_Default_allocate_traits@std@@SAPAXI@Z 0041ab60 f i glRenderer.obj
 0001:00019b80       ?_Calculate_growth@?$vector@PAURendererTexRef@@V?$allocator@PAURendererTexRef@@@std@@@std@@ABEII@Z 0041ab80 f i glRenderer.obj
 0001:00019bf0       ?_Change_array@?$vector@PAURendererTexRef@@V?$allocator@PAURendererTexRef@@@std@@@std@@AAEXQAPAURendererTexRef@@II@Z 0041abf0 f i glRenderer.obj
 0001:00019cb0       ?_Clrcont@_Iterator_base12@std@@QAEXXZ 0041acb0 f i glRenderer.obj
 0001:00019cd0       ?_Destroy@?$vector@PAURendererTexRef@@V?$allocator@PAURendererTexRef@@@std@@@std@@AAEXPAPAURendererTexRef@@0@Z 0041acd0 f i glRenderer.obj
 0001:00019d00       ?_Free_proxy@?$_Vector_alloc@U?$_Vec_base_types@PAURendererTexRef@@V?$allocator@PAURendererTexRef@@@std@@@std@@@std@@QAEXXZ 0041ad00 f i glRenderer.obj
 0001:00019d80       ?_Get_data@?$_Vector_alloc@U?$_Vec_base_types@PAURendererTexRef@@V?$allocator@PAURendererTexRef@@@std@@@std@@@std@@QAEAAV?$_Vector_val@U?$_Simple_types@PAURendererTexRef@@@std@@@2@XZ 0041ad80 f i glRenderer.obj
 0001:00019da0       ?_Get_data@?$_Vector_alloc@U?$_Vec_base_types@PAURendererTexRef@@V?$allocator@PAURendererTexRef@@@std@@@std@@@std@@QBEABV?$_Vector_val@U?$_Simple_types@PAURendererTexRef@@@std@@@2@XZ 0041ada0 f i glRenderer.obj
 0001:00019dc0       ?_Get_first@?$_Compressed_pair@V?$allocator@PAURendererTexRef@@@std@@V?$_Vector_val@U?$_Simple_types@PAURendererTexRef@@@std@@@2@$00@std@@QAEAAV?$allocator@PAURendererTexRef@@@2@XZ 0041adc0 f i glRenderer.obj
 0001:00019de0       ?_Get_first@?$_Compressed_pair@V?$allocator@PAURendererTexRef@@@std@@V?$_Vector_val@U?$_Simple_types@PAURendererTexRef@@@std@@@2@$00@std@@QBEABV?$allocator@PAURendererTexRef@@@2@XZ 0041ade0 f i glRenderer.obj
 0001:00019e00       ?_Get_second@?$_Compressed_pair@V?$allocator@PAURendererTexRef@@@std@@V?$_Vector_val@U?$_Simple_types@PAURendererTexRef@@@std@@@2@$00@std@@QAEAAV?$_Vector_val@U?$_Simple_types@PAURendererTexRef@@@std@@@2@XZ 0041ae00 f i glRenderer.obj
 0001:00019e20       ?_Get_second@?$_Compressed_pair@V?$allocator@PAURendererTexRef@@@std@@V?$_Vector_val@U?$_Simple_types@PAURendererTexRef@@@std@@@2@$00@std@@QBEABV?$_Vector_val@U?$_Simple_types@PAURendererTexRef@@@std@@@2@XZ 0041ae20 f i glRenderer.obj
 0001:00019e40       ?_Getal@?$_Vector_alloc@U?$_Vec_base_types@PAURendererTexRef@@V?$allocator@PAURendererTexRef@@@std@@@std@@@std@@QAEAAV?$allocator@PAURendererTexRef@@@2@XZ 0041ae40 f i glRenderer.obj
 0001:00019e60       ?_Getal@?$_Vector_alloc@U?$_Vec_base_types@PAURendererTexRef@@V?$allocator@PAURendererTexRef@@@std@@@std@@@std@@QBEABV?$allocator@PAURendererTexRef@@@2@XZ 0041ae60 f i glRenderer.obj
 0001:00019e80       ?_Getpfirst@?$_Vector_alloc@U?$_Vec_base_types@PAURendererTexRef@@V?$allocator@PAURendererTexRef@@@std@@@std@@@std@@QBEPAPAU_Iterator_base12@2@XZ 0041ae80 f i glRenderer.obj
 0001:00019ea0       ?_Getpfirst@_Container_base12@std@@QBEPAPAU_Iterator_base12@2@XZ 0041aea0 f i glRenderer.obj
 0001:00019ee0       ?_Getpnext@_Iterator_base12@std@@QAEPAPAU12@XZ 0041aee0 f i glRenderer.obj
 0001:00019f00       ?_Has_unused_capacity@?$vector@PAURendererTexRef@@V?$allocator@PAURendererTexRef@@@std@@@std@@ABE_NXZ 0041af00 f i glRenderer.obj
 0001:00019f50       ?_Myend@?$_Vector_alloc@U?$_Vec_base_types@PAURendererTexRef@@V?$allocator@PAURendererTexRef@@@std@@@std@@@std@@QAEAAPAPAURendererTexRef@@XZ 0041af50 f i glRenderer.obj
 0001:00019f70       ?_Myend@?$_Vector_alloc@U?$_Vec_base_types@PAURendererTexRef@@V?$allocator@PAURendererTexRef@@@std@@@std@@@std@@QBEABQAPAURendererTexRef@@XZ 0041af70 f i glRenderer.obj
 0001:00019f90       ?_Myfirst@?$_Vector_alloc@U?$_Vec_base_types@PAURendererTexRef@@V?$allocator@PAURendererTexRef@@@std@@@std@@@std@@QAEAAPAPAURendererTexRef@@XZ 0041af90 f i glRenderer.obj
 0001:00019fb0       ?_Myfirst@?$_Vector_alloc@U?$_Vec_base_types@PAURendererTexRef@@V?$allocator@PAURendererTexRef@@@std@@@std@@@std@@QBEABQAPAURendererTexRef@@XZ 0041afb0 f i glRenderer.obj
 0001:00019fd0       ?_Mylast@?$_Vector_alloc@U?$_Vec_base_types@PAURendererTexRef@@V?$allocator@PAURendererTexRef@@@std@@@std@@@std@@QAEAAPAPAURendererTexRef@@XZ 0041afd0 f i glRenderer.obj
 0001:00019ff0       ?_Mylast@?$_Vector_alloc@U?$_Vec_base_types@PAURendererTexRef@@V?$allocator@PAURendererTexRef@@@std@@@std@@@std@@QBEABQAPAURendererTexRef@@XZ 0041aff0 f i glRenderer.obj
 0001:0001a010       ?_Myproxy@?$_Vector_alloc@U?$_Vec_base_types@PAURendererTexRef@@V?$allocator@PAURendererTexRef@@@std@@@std@@@std@@QAEAAPAU_Container_proxy@2@XZ 0041b010 f i glRenderer.obj
 0001:0001a030       ?_Orphan_all@?$_Vector_alloc@U?$_Vec_base_types@PAURendererTexRef@@V?$allocator@PAURendererTexRef@@@std@@@std@@@std@@QAEXXZ 0041b030 f i glRenderer.obj
 0001:0001a050       ?_Orphan_all@_Container_base12@std@@QAEXXZ 0041b050 f i glRenderer.obj
 0001:0001a100       ?_Orphan_range@?$vector@PAURendererTexRef@@V?$allocator@PAURendererTexRef@@@std@@@std@@ABEXPAPAURendererTexRef@@0@Z 0041b100 f i glRenderer.obj
 0001:0001a1f0       ?_Tidy@?$vector@PAURendererTexRef@@V?$allocator@PAURendererTexRef@@@std@@@std@@AAEXXZ 0041b1f0 f i glRenderer.obj
 0001:0001a2a0       ?_Umove@?$vector@PAURendererTexRef@@V?$allocator@PAURendererTexRef@@@std@@@std@@AAEPAPAURendererTexRef@@PAPAU3@00@Z 0041b2a0 f i glRenderer.obj
 0001:0001a2e0       ?_Umove_if_noexcept1@?$vector@PAURendererTexRef@@V?$allocator@PAURendererTexRef@@@std@@@std@@AAEXPAPAURendererTexRef@@00U?$integral_constant@_N$00@2@@Z 0041b2e0 f i glRenderer.obj
 0001:0001a320       ?_Umove_if_noexcept@?$vector@PAURendererTexRef@@V?$allocator@PAURendererTexRef@@@std@@@std@@AAEXPAPAURendererTexRef@@00@Z 0041b320 f i glRenderer.obj
 0001:0001a360       ?_Xlength@?$vector@PAURendererTexRef@@V?$allocator@PAURendererTexRef@@@std@@@std@@CAXXZ 0041b360 f i glRenderer.obj
 0001:0001a380       ?allocate@?$allocator@PAURendererTexRef@@@std@@QAEPAPAURendererTexRef@@I@Z 0041b380 f i glRenderer.obj
 0001:0001a3b0       ?allocate@?$allocator@U_Container_proxy@std@@@std@@QAEPAU_Container_proxy@2@I@Z 0041b3b0 f i glRenderer.obj
 0001:0001a3e0       ?capacity@?$vector@PAURendererTexRef@@V?$allocator@PAURendererTexRef@@@std@@@std@@QBEIXZ 0041b3e0 f i glRenderer.obj
 0001:0001a420       ?clear@?$vector@PAURendererTexRef@@V?$allocator@PAURendererTexRef@@@std@@@std@@QAEXXZ 0041b420 f i glRenderer.obj
 0001:0001a4b0       ?deallocate@?$_Default_allocator_traits@V?$allocator@U_Container_proxy@std@@@std@@@std@@SAXAAV?$allocator@U_Container_proxy@std@@@2@QAU_Container_proxy@2@I@Z 0041b4b0 f i glRenderer.obj
 0001:0001a4d0       ?deallocate@?$allocator@PAURendererTexRef@@@std@@QAEXQAPAURendererTexRef@@I@Z 0041b4d0 f i glRenderer.obj
 0001:0001a500       ?getColumnMajor44@NxMat34@@QBEXPAM@Z 0041b500 f i glRenderer.obj
 0001:0001a5d0       ?max@?$numeric_limits@H@std@@SAHXZ 0041b5d0 f i glRenderer.obj
 0001:0001a5e0       ?max_size@?$_Default_allocator_traits@V?$allocator@PAURendererTexRef@@@std@@@std@@SAIABV?$allocator@PAURendererTexRef@@@2@@Z 0041b5e0 f i glRenderer.obj
 0001:0001a5f0       ?max_size@?$vector@PAURendererTexRef@@V?$allocator@PAURendererTexRef@@@std@@@std@@QBEIXZ 0041b5f0 f i glRenderer.obj
 0001:0001a640       ?push_back@?$vector@PAURendererTexRef@@V?$allocator@PAURendererTexRef@@@std@@@std@@QAEXABQAURendererTexRef@@@Z 0041b640 f i glRenderer.obj
 0001:0001a660       ?set@NxVec3@@QAEXMMM@Z     0041b660 f i glRenderer.obj
 0001:0001a6a0       ?size@?$vector@PAURendererTexRef@@V?$allocator@PAURendererTexRef@@@std@@@std@@QBEIXZ 0041b6a0 f i glRenderer.obj
 0001:0001a6e0       ??0MeshHash@@QAE@XZ        0041b6e0 f   MeshHash.obj
 0001:0001a770       ??1MeshHash@@QAE@XZ        0041b770 f   MeshHash.obj
 0001:0001a790       ?setGridSpacing@MeshHash@@QAEXM@Z 0041b790 f   MeshHash.obj
 0001:0001a7d0       ?reset@MeshHash@@QAEXXZ    0041b7d0 f   MeshHash.obj
 0001:0001a800       ?add@MeshHash@@QAEXABVNxBounds3@@H@Z 0041b800 f   MeshHash.obj
 0001:0001a930       ?add@MeshHash@@QAEXABVNxVec3@@H@Z 0041b930 f   MeshHash.obj
 0001:0001a9e0       ?query@MeshHash@@QAEXABVNxBounds3@@AAV?$vector@HV?$allocator@H@std@@@std@@H@Z 0041b9e0 f   MeshHash.obj
 0001:0001ab20       ?queryUnique@MeshHash@@QAEXABVNxBounds3@@AAV?$vector@HV?$allocator@H@std@@@std@@H@Z 0041bb20 f   MeshHash.obj
 0001:0001ab50       ?query@MeshHash@@QAEXABVNxVec3@@AAV?$vector@HV?$allocator@H@std@@@std@@H@Z 0041bb50 f   MeshHash.obj
 0001:0001ac10       ?queryUnique@MeshHash@@QAEXABVNxVec3@@AAV?$vector@HV?$allocator@H@std@@@std@@H@Z 0041bc10 f   MeshHash.obj
 0001:0001ac40       ?compressIndices@MeshHash@@AAEXAAV?$vector@HV?$allocator@H@std@@@std@@@Z 0041bc40 f   MeshHash.obj
 0001:0001ad50       ?quickSort@MeshHash@@AAEXAAV?$vector@HV?$allocator@H@std@@@std@@HH@Z 0041bd50 f   MeshHash.obj
 0001:0001b050       ??$?0$$V@?$_Compressed_pair@V?$allocator@UMeshHashEntry@@@std@@V?$_Vector_val@U?$_Simple_types@UMeshHashEntry@@@std@@@2@$00@std@@QAE@U_Zero_then_variadic_args_t@1@@Z 0041c050 f i MeshHash.obj
 0001:0001b080       ??$?0UMeshHashEntry@@@?$allocator@U_Container_proxy@std@@@std@@QAE@ABV?$allocator@UMeshHashEntry@@@1@@Z 0041c080 f i MeshHash.obj
 0001:0001b0a0       ??$_Copy_memmove@PAHPAH@std@@YAPAHPAH00@Z 0041c0a0 f i MeshHash.obj
 0001:0001b0f0       ??$_Copy_memmove@PAUMeshHashEntry@@PAU1@@std@@YAPAUMeshHashEntry@@PAU1@00@Z 0041c0f0 f i MeshHash.obj
 0001:0001b140       ??$_Destroy_range1@V?$allocator@H@std@@@std@@YAXPAH0AAV?$allocator@H@0@U?$integral_constant@_N$00@0@@Z 0041c140 f i MeshHash.obj
 0001:0001b150       ??$_Destroy_range1@V?$allocator@UMeshHashEntry@@@std@@@std@@YAXPAUMeshHashEntry@@0AAV?$allocator@UMeshHashEntry@@@0@U?$integral_constant@_N$00@0@@Z 0041c150 f i MeshHash.obj
 0001:0001b160       ??$_Destroy_range@V?$allocator@H@std@@@std@@YAXPAH0AAV?$allocator@H@0@@Z 0041c160 f i MeshHash.obj
 0001:0001b190       ??$_Destroy_range@V?$allocator@UMeshHashEntry@@@std@@@std@@YAXPAUMeshHashEntry@@0AAV?$allocator@UMeshHashEntry@@@0@@Z 0041c190 f i MeshHash.obj
 0001:0001b1c0       ??$_Emplace_back_with_unused_capacity@ABH@?$vector@HV?$allocator@H@std@@@std@@AAEXABH@Z 0041c1c0 f i MeshHash.obj
 0001:0001b270       ??$_Emplace_back_with_unused_capacity@ABUMeshHashEntry@@@?$vector@UMeshHashEntry@@V?$allocator@UMeshHashEntry@@@std@@@std@@AAEXABUMeshHashEntry@@@Z 0041c270 f i MeshHash.obj
 0001:0001b320       ??$_Emplace_reallocate@ABH@?$vector@HV?$allocator@H@std@@@std@@QAEPAHQAHABH@Z 0041c320 f i MeshHash.obj
 0001:0001b570       ??$_Emplace_reallocate@ABUMeshHashEntry@@@?$vector@UMeshHashEntry@@V?$allocator@UMeshHashEntry@@@std@@@std@@QAEPAUMeshHashEntry@@QAU2@ABU2@@Z 0041c570 f i MeshHash.obj
 0001:0001b7c0       ??$_Get_unwrapped@H@std@@YAPAHQAH@Z 0041c7c0 f i MeshHash.obj
 0001:0001b7d0       ??$_Get_unwrapped@UMeshHashEntry@@@std@@YAPAUMeshHashEntry@@QAU1@@Z 0041c7d0 f i MeshHash.obj
 0001:0001b7e0       ??$_Get_unwrapped_n@HH$0A@@std@@YAPAHQAHH@Z 0041c7e0 f i MeshHash.obj
 0001:0001b7f0       ??$_Get_unwrapped_n@UMeshHashEntry@@H$0A@@std@@YAPAUMeshHashEntry@@QAU1@H@Z 0041c7f0 f i MeshHash.obj
 0001:0001b800       ??$_Idl_distance1@PAHPAH@std@@YAHABQAH0Urandom_access_iterator_tag@0@@Z 0041c800 f i MeshHash.obj
 0001:0001b820       ??$_Idl_distance1@PAUMeshHashEntry@@PAU1@@std@@YAHABQAUMeshHashEntry@@0Urandom_access_iterator_tag@0@@Z 0041c820 f i MeshHash.obj
 0001:0001b840       ??$_Idl_distance@PAHPAH@std@@YAHABQAH0@Z 0041c840 f i MeshHash.obj
 0001:0001b870       ??$_Idl_distance@PAUMeshHashEntry@@PAU1@@std@@YAHABQAUMeshHashEntry@@0@Z 0041c870 f i MeshHash.obj
 0001:0001b8a0       ??$_Ptr_move_cat@HH@std@@YA?AU_Really_trivial_ptr_iterator_tag@0@ABQAH0@Z 0041c8a0 f i MeshHash.obj
 0001:0001b8b0       ??$_Ptr_move_cat@UMeshHashEntry@@U1@@std@@YA?AU_Really_trivial_ptr_iterator_tag@0@ABQAUMeshHashEntry@@0@Z 0041c8b0 f i MeshHash.obj
 0001:0001b8c0       ??$_Seek_wrapped@H@std@@YAXAAPAHQAH@Z 0041c8c0 f i MeshHash.obj
 0001:0001b8d0       ??$_Seek_wrapped@UMeshHashEntry@@@std@@YAXAAPAUMeshHashEntry@@QAU1@@Z 0041c8d0 f i MeshHash.obj
 0001:0001b8e0       ??$_Unfancy@H@std@@YAPAHPAH@Z 0041c8e0 f i MeshHash.obj
 0001:0001b8f0       ??$_Unfancy@UMeshHashEntry@@@std@@YAPAUMeshHashEntry@@PAU1@@Z 0041c8f0 f i MeshHash.obj
 0001:0001b900       ??$_Uninitialized_move@PAHPAHV?$allocator@H@std@@@std@@YAPAHQAH0PAHAAV?$allocator@H@0@@Z 0041c900 f i MeshHash.obj
 0001:0001b9c0       ??$_Uninitialized_move@PAUMeshHashEntry@@PAU1@V?$allocator@UMeshHashEntry@@@std@@@std@@YAPAUMeshHashEntry@@QAU1@0PAU1@AAV?$allocator@UMeshHashEntry@@@0@@Z 0041c9c0 f i MeshHash.obj
 0001:0001ba80       ??$_Uninitialized_move_al_unchecked@HHV?$allocator@H@std@@@std@@YAPAHQAH00AAV?$allocator@H@0@U_Really_trivial_ptr_iterator_tag@0@U?$integral_constant@_N$00@0@@Z 0041ca80 f i MeshHash.obj
 0001:0001baa0       ??$_Uninitialized_move_al_unchecked@UMeshHashEntry@@U1@V?$allocator@UMeshHashEntry@@@std@@@std@@YAPAUMeshHashEntry@@QAU1@00AAV?$allocator@UMeshHashEntry@@@0@U_Really_trivial_ptr_iterator_tag@0@U?$integral_constant@_N$00@0@@Z 0041caa0 f i MeshHash.obj
 0001:0001bac0       ??$addressof@V?$_Vector_val@U?$_Simple_types@UMeshHashEntry@@@std@@@std@@@std@@YAPAV?$_Vector_val@U?$_Simple_types@UMeshHashEntry@@@std@@@0@AAV10@@Z 0041cac0 f i MeshHash.obj
 0001:0001bad0       ??$construct@HABH@?$_Default_allocator_traits@V?$allocator@H@std@@@std@@SAXAAV?$allocator@H@1@QAHABH@Z 0041cad0 f i MeshHash.obj
 0001:0001bb10       ??$construct@UMeshHashEntry@@ABU1@@?$_Default_allocator_traits@V?$allocator@UMeshHashEntry@@@std@@@std@@SAXAAV?$allocator@UMeshHashEntry@@@1@QAUMeshHashEntry@@ABU3@@Z 0041cb10 f i MeshHash.obj
 0001:0001bb50       ??$destroy@H@?$_Default_allocator_traits@V?$allocator@H@std@@@std@@SAXAAV?$allocator@H@1@QAH@Z 0041cb50 f i MeshHash.obj
 0001:0001bb60       ??$emplace_back@ABH@?$vector@HV?$allocator@H@std@@@std@@QAEXABH@Z 0041cb60 f i MeshHash.obj
 0001:0001bbd0       ??$emplace_back@ABUMeshHashEntry@@@?$vector@UMeshHashEntry@@V?$allocator@UMeshHashEntry@@@std@@@std@@QAEXABUMeshHashEntry@@@Z 0041cbd0 f i MeshHash.obj
 0001:0001bc40       ??$forward@ABH@std@@YAABHABH@Z 0041cc40 f i MeshHash.obj
 0001:0001bc50       ??$forward@ABUMeshHashEntry@@@std@@YAABUMeshHashEntry@@ABU1@@Z 0041cc50 f i MeshHash.obj
 0001:0001bc60       ??0?$_Vector_alloc@U?$_Vec_base_types@UMeshHashEntry@@V?$allocator@UMeshHashEntry@@@std@@@std@@@std@@QAE@XZ 0041cc60 f i MeshHash.obj
 0001:0001bc90       ??0?$_Vector_val@U?$_Simple_types@UMeshHashEntry@@@std@@@std@@QAE@XZ 0041cc90 f i MeshHash.obj
 0001:0001bce0       ??0?$allocator@UMeshHashEntry@@@std@@QAE@XZ 0041cce0 f i MeshHash.obj
 0001:0001bd00       ??0?$vector@UMeshHashEntry@@V?$allocator@UMeshHashEntry@@@std@@@std@@QAE@XZ 0041cd00 f i MeshHash.obj
 0001:0001bd50       ??1?$_Vector_alloc@U?$_Vec_base_types@UMeshHashEntry@@V?$allocator@UMeshHashEntry@@@std@@@std@@@std@@QAE@XZ 0041cd50 f i MeshHash.obj
 0001:0001bda0       ??1?$vector@UMeshHashEntry@@V?$allocator@UMeshHashEntry@@@std@@@std@@QAE@XZ 0041cda0 f i MeshHash.obj
 0001:0001be00       ??A?$vector@HV?$allocator@H@std@@@std@@QAEAAHI@Z 0041ce00 f i MeshHash.obj
 0001:0001bea0       ??A?$vector@UMeshHashEntry@@V?$allocator@UMeshHashEntry@@@std@@@std@@QAEAAUMeshHashEntry@@I@Z 0041cea0 f i MeshHash.obj
 0001:0001bf40       ?_Alloc_proxy@?$_Vector_alloc@U?$_Vec_base_types@UMeshHashEntry@@V?$allocator@UMeshHashEntry@@@std@@@std@@@std@@QAEXXZ 0041cf40 f i MeshHash.obj
 0001:0001bfe0       ?_Calculate_growth@?$vector@HV?$allocator@H@std@@@std@@ABEII@Z 0041cfe0 f i MeshHash.obj
 0001:0001c050       ?_Calculate_growth@?$vector@UMeshHashEntry@@V?$allocator@UMeshHashEntry@@@std@@@std@@ABEII@Z 0041d050 f i MeshHash.obj
 0001:0001c0c0       ?_Change_array@?$vector@HV?$allocator@H@std@@@std@@AAEXQAHII@Z 0041d0c0 f i MeshHash.obj
 0001:0001c180       ?_Change_array@?$vector@UMeshHashEntry@@V?$allocator@UMeshHashEntry@@@std@@@std@@AAEXQAUMeshHashEntry@@II@Z 0041d180 f i MeshHash.obj
 0001:0001c240       ?_Destroy@?$vector@HV?$allocator@H@std@@@std@@AAEXPAH0@Z 0041d240 f i MeshHash.obj
 0001:0001c270       ?_Destroy@?$vector@UMeshHashEntry@@V?$allocator@UMeshHashEntry@@@std@@@std@@AAEXPAUMeshHashEntry@@0@Z 0041d270 f i MeshHash.obj
 0001:0001c2a0       ?_Free_proxy@?$_Vector_alloc@U?$_Vec_base_types@UMeshHashEntry@@V?$allocator@UMeshHashEntry@@@std@@@std@@@std@@QAEXXZ 0041d2a0 f i MeshHash.obj
 0001:0001c320       ?_Get_data@?$_Vector_alloc@U?$_Vec_base_types@HV?$allocator@H@std@@@std@@@std@@QAEAAV?$_Vector_val@U?$_Simple_types@H@std@@@2@XZ 0041d320 f i MeshHash.obj
 0001:0001c340       ?_Get_data@?$_Vector_alloc@U?$_Vec_base_types@HV?$allocator@H@std@@@std@@@std@@QBEABV?$_Vector_val@U?$_Simple_types@H@std@@@2@XZ 0041d340 f i MeshHash.obj
 0001:0001c360       ?_Get_data@?$_Vector_alloc@U?$_Vec_base_types@UMeshHashEntry@@V?$allocator@UMeshHashEntry@@@std@@@std@@@std@@QAEAAV?$_Vector_val@U?$_Simple_types@UMeshHashEntry@@@std@@@2@XZ 0041d360 f i MeshHash.obj
 0001:0001c380       ?_Get_data@?$_Vector_alloc@U?$_Vec_base_types@UMeshHashEntry@@V?$allocator@UMeshHashEntry@@@std@@@std@@@std@@QBEABV?$_Vector_val@U?$_Simple_types@UMeshHashEntry@@@std@@@2@XZ 0041d380 f i MeshHash.obj
 0001:0001c3a0       ?_Get_first@?$_Compressed_pair@V?$allocator@H@std@@V?$_Vector_val@U?$_Simple_types@H@std@@@2@$00@std@@QAEAAV?$allocator@H@2@XZ 0041d3a0 f i MeshHash.obj
 0001:0001c3c0       ?_Get_first@?$_Compressed_pair@V?$allocator@H@std@@V?$_Vector_val@U?$_Simple_types@H@std@@@2@$00@std@@QBEABV?$allocator@H@2@XZ 0041d3c0 f i MeshHash.obj
 0001:0001c3e0       ?_Get_first@?$_Compressed_pair@V?$allocator@UMeshHashEntry@@@std@@V?$_Vector_val@U?$_Simple_types@UMeshHashEntry@@@std@@@2@$00@std@@QAEAAV?$allocator@UMeshHashEntry@@@2@XZ 0041d3e0 f i MeshHash.obj
 0001:0001c400       ?_Get_first@?$_Compressed_pair@V?$allocator@UMeshHashEntry@@@std@@V?$_Vector_val@U?$_Simple_types@UMeshHashEntry@@@std@@@2@$00@std@@QBEABV?$allocator@UMeshHashEntry@@@2@XZ 0041d400 f i MeshHash.obj
 0001:0001c420       ?_Get_second@?$_Compressed_pair@V?$allocator@H@std@@V?$_Vector_val@U?$_Simple_types@H@std@@@2@$00@std@@QAEAAV?$_Vector_val@U?$_Simple_types@H@std@@@2@XZ 0041d420 f i MeshHash.obj
 0001:0001c440       ?_Get_second@?$_Compressed_pair@V?$allocator@H@std@@V?$_Vector_val@U?$_Simple_types@H@std@@@2@$00@std@@QBEABV?$_Vector_val@U?$_Simple_types@H@std@@@2@XZ 0041d440 f i MeshHash.obj
 0001:0001c460       ?_Get_second@?$_Compressed_pair@V?$allocator@UMeshHashEntry@@@std@@V?$_Vector_val@U?$_Simple_types@UMeshHashEntry@@@std@@@2@$00@std@@QAEAAV?$_Vector_val@U?$_Simple_types@UMeshHashEntry@@@std@@@2@XZ 0041d460 f i MeshHash.obj
 0001:0001c480       ?_Get_second@?$_Compressed_pair@V?$allocator@UMeshHashEntry@@@std@@V?$_Vector_val@U?$_Simple_types@UMeshHashEntry@@@std@@@2@$00@std@@QBEABV?$_Vector_val@U?$_Simple_types@UMeshHashEntry@@@std@@@2@XZ 0041d480 f i MeshHash.obj
 0001:0001c4a0       ?_Getal@?$_Vector_alloc@U?$_Vec_base_types@HV?$allocator@H@std@@@std@@@std@@QAEAAV?$allocator@H@2@XZ 0041d4a0 f i MeshHash.obj
 0001:0001c4c0       ?_Getal@?$_Vector_alloc@U?$_Vec_base_types@HV?$allocator@H@std@@@std@@@std@@QBEABV?$allocator@H@2@XZ 0041d4c0 f i MeshHash.obj
 0001:0001c4e0       ?_Getal@?$_Vector_alloc@U?$_Vec_base_types@UMeshHashEntry@@V?$allocator@UMeshHashEntry@@@std@@@std@@@std@@QAEAAV?$allocator@UMeshHashEntry@@@2@XZ 0041d4e0 f i MeshHash.obj
 0001:0001c500       ?_Getal@?$_Vector_alloc@U?$_Vec_base_types@UMeshHashEntry@@V?$allocator@UMeshHashEntry@@@std@@@std@@@std@@QBEABV?$allocator@UMeshHashEntry@@@2@XZ 0041d500 f i MeshHash.obj
 0001:0001c520       ?_Getpfirst@?$_Vector_alloc@U?$_Vec_base_types@HV?$allocator@H@std@@@std@@@std@@QBEPAPAU_Iterator_base12@2@XZ 0041d520 f i MeshHash.obj
 0001:0001c540       ?_Getpfirst@?$_Vector_alloc@U?$_Vec_base_types@UMeshHashEntry@@V?$allocator@UMeshHashEntry@@@std@@@std@@@std@@QBEPAPAU_Iterator_base12@2@XZ 0041d540 f i MeshHash.obj
 0001:0001c560       ?_Has_unused_capacity@?$vector@HV?$allocator@H@std@@@std@@ABE_NXZ 0041d560 f i MeshHash.obj
 0001:0001c5b0       ?_Has_unused_capacity@?$vector@UMeshHashEntry@@V?$allocator@UMeshHashEntry@@@std@@@std@@ABE_NXZ 0041d5b0 f i MeshHash.obj
 0001:0001c600       ?_Myend@?$_Vector_alloc@U?$_Vec_base_types@HV?$allocator@H@std@@@std@@@std@@QAEAAPAHXZ 0041d600 f i MeshHash.obj
 0001:0001c620       ?_Myend@?$_Vector_alloc@U?$_Vec_base_types@HV?$allocator@H@std@@@std@@@std@@QBEABQAHXZ 0041d620 f i MeshHash.obj
 0001:0001c640       ?_Myend@?$_Vector_alloc@U?$_Vec_base_types@UMeshHashEntry@@V?$allocator@UMeshHashEntry@@@std@@@std@@@std@@QAEAAPAUMeshHashEntry@@XZ 0041d640 f i MeshHash.obj
 0001:0001c660       ?_Myend@?$_Vector_alloc@U?$_Vec_base_types@UMeshHashEntry@@V?$allocator@UMeshHashEntry@@@std@@@std@@@std@@QBEABQAUMeshHashEntry@@XZ 0041d660 f i MeshHash.obj
 0001:0001c680       ?_Myfirst@?$_Vector_alloc@U?$_Vec_base_types@HV?$allocator@H@std@@@std@@@std@@QAEAAPAHXZ 0041d680 f i MeshHash.obj
 0001:0001c6a0       ?_Myfirst@?$_Vector_alloc@U?$_Vec_base_types@HV?$allocator@H@std@@@std@@@std@@QBEABQAHXZ 0041d6a0 f i MeshHash.obj
 0001:0001c6c0       ?_Myfirst@?$_Vector_alloc@U?$_Vec_base_types@UMeshHashEntry@@V?$allocator@UMeshHashEntry@@@std@@@std@@@std@@QAEAAPAUMeshHashEntry@@XZ 0041d6c0 f i MeshHash.obj
 0001:0001c6e0       ?_Myfirst@?$_Vector_alloc@U?$_Vec_base_types@UMeshHashEntry@@V?$allocator@UMeshHashEntry@@@std@@@std@@@std@@QBEABQAUMeshHashEntry@@XZ 0041d6e0 f i MeshHash.obj
 0001:0001c700       ?_Mylast@?$_Vector_alloc@U?$_Vec_base_types@HV?$allocator@H@std@@@std@@@std@@QAEAAPAHXZ 0041d700 f i MeshHash.obj
 0001:0001c720       ?_Mylast@?$_Vector_alloc@U?$_Vec_base_types@HV?$allocator@H@std@@@std@@@std@@QBEABQAHXZ 0041d720 f i MeshHash.obj
 0001:0001c740       ?_Mylast@?$_Vector_alloc@U?$_Vec_base_types@UMeshHashEntry@@V?$allocator@UMeshHashEntry@@@std@@@std@@@std@@QAEAAPAUMeshHashEntry@@XZ 0041d740 f i MeshHash.obj
 0001:0001c760       ?_Mylast@?$_Vector_alloc@U?$_Vec_base_types@UMeshHashEntry@@V?$allocator@UMeshHashEntry@@@std@@@std@@@std@@QBEABQAUMeshHashEntry@@XZ 0041d760 f i MeshHash.obj
 0001:0001c780       ?_Myproxy@?$_Vector_alloc@U?$_Vec_base_types@UMeshHashEntry@@V?$allocator@UMeshHashEntry@@@std@@@std@@@std@@QAEAAPAU_Container_proxy@2@XZ 0041d780 f i MeshHash.obj
 0001:0001c7a0       ?_Orphan_all@?$_Vector_alloc@U?$_Vec_base_types@HV?$allocator@H@std@@@std@@@std@@QAEXXZ 0041d7a0 f i MeshHash.obj
 0001:0001c7c0       ?_Orphan_all@?$_Vector_alloc@U?$_Vec_base_types@UMeshHashEntry@@V?$allocator@UMeshHashEntry@@@std@@@std@@@std@@QAEXXZ 0041d7c0 f i MeshHash.obj
 0001:0001c7e0       ?_Orphan_range@?$vector@HV?$allocator@H@std@@@std@@ABEXPAH0@Z 0041d7e0 f i MeshHash.obj
 0001:0001c8d0       ?_Orphan_range@?$vector@UMeshHashEntry@@V?$allocator@UMeshHashEntry@@@std@@@std@@ABEXPAUMeshHashEntry@@0@Z 0041d8d0 f i MeshHash.obj
 0001:0001c9c0       ?_Tidy@?$vector@UMeshHashEntry@@V?$allocator@UMeshHashEntry@@@std@@@std@@AAEXXZ 0041d9c0 f i MeshHash.obj
 0001:0001ca70       ?_Umove@?$vector@HV?$allocator@H@std@@@std@@AAEPAHPAH00@Z 0041da70 f i MeshHash.obj
 0001:0001cab0       ?_Umove@?$vector@UMeshHashEntry@@V?$allocator@UMeshHashEntry@@@std@@@std@@AAEPAUMeshHashEntry@@PAU3@00@Z 0041dab0 f i MeshHash.obj
 0001:0001caf0       ?_Umove_if_noexcept1@?$vector@HV?$allocator@H@std@@@std@@AAEXPAH00U?$integral_constant@_N$00@2@@Z 0041daf0 f i MeshHash.obj
 0001:0001cb30       ?_Umove_if_noexcept1@?$vector@UMeshHashEntry@@V?$allocator@UMeshHashEntry@@@std@@@std@@AAEXPAUMeshHashEntry@@00U?$integral_constant@_N$00@2@@Z 0041db30 f i MeshHash.obj
 0001:0001cb70       ?_Umove_if_noexcept@?$vector@HV?$allocator@H@std@@@std@@AAEXPAH00@Z 0041db70 f i MeshHash.obj
 0001:0001cbb0       ?_Umove_if_noexcept@?$vector@UMeshHashEntry@@V?$allocator@UMeshHashEntry@@@std@@@std@@AAEXPAUMeshHashEntry@@00@Z 0041dbb0 f i MeshHash.obj
 0001:0001cbf0       ?_Xlength@?$vector@HV?$allocator@H@std@@@std@@CAXXZ 0041dbf0 f i MeshHash.obj
 0001:0001cc10       ?_Xlength@?$vector@UMeshHashEntry@@V?$allocator@UMeshHashEntry@@@std@@@std@@CAXXZ 0041dc10 f i MeshHash.obj
 0001:0001cc30       ?allocate@?$allocator@H@std@@QAEPAHI@Z 0041dc30 f i MeshHash.obj
 0001:0001cc60       ?allocate@?$allocator@UMeshHashEntry@@@std@@QAEPAUMeshHashEntry@@I@Z 0041dc60 f i MeshHash.obj
 0001:0001cc90       ?capacity@?$vector@HV?$allocator@H@std@@@std@@QBEIXZ 0041dc90 f i MeshHash.obj
 0001:0001ccd0       ?capacity@?$vector@UMeshHashEntry@@V?$allocator@UMeshHashEntry@@@std@@@std@@QBEIXZ 0041dcd0 f i MeshHash.obj
 0001:0001cd10       ?cellCoordOf@MeshHash@@AAEXABVNxVec3@@AAH11@Z 0041dd10 f i MeshHash.obj
 0001:0001cde0       ?clear@?$vector@HV?$allocator@H@std@@@std@@QAEXXZ 0041dde0 f i MeshHash.obj
 0001:0001ce70       ?clear@?$vector@UMeshHashEntry@@V?$allocator@UMeshHashEntry@@@std@@@std@@QAEXXZ 0041de70 f i MeshHash.obj
 0001:0001cf00       ?deallocate@?$allocator@H@std@@QAEXQAHI@Z 0041df00 f i MeshHash.obj
 0001:0001cf30       ?deallocate@?$allocator@UMeshHashEntry@@@std@@QAEXQAUMeshHashEntry@@I@Z 0041df30 f i MeshHash.obj
 0001:0001cf60       ?empty@?$vector@HV?$allocator@H@std@@@std@@QBE_NXZ 0041df60 f i MeshHash.obj
 0001:0001cfb0       ?hashFunction@MeshHash@@AAEHHHH@Z 0041dfb0 f i MeshHash.obj
 0001:0001d000       ?max_size@?$_Default_allocator_traits@V?$allocator@H@std@@@std@@SAIABV?$allocator@H@2@@Z 0041e000 f i MeshHash.obj
 0001:0001d010       ?max_size@?$_Default_allocator_traits@V?$allocator@UMeshHashEntry@@@std@@@std@@SAIABV?$allocator@UMeshHashEntry@@@2@@Z 0041e010 f i MeshHash.obj
 0001:0001d020       ?max_size@?$vector@HV?$allocator@H@std@@@std@@QBEIXZ 0041e020 f i MeshHash.obj
 0001:0001d070       ?max_size@?$vector@UMeshHashEntry@@V?$allocator@UMeshHashEntry@@@std@@@std@@QBEIXZ 0041e070 f i MeshHash.obj
 0001:0001d0c0       ?pop_back@?$vector@HV?$allocator@H@std@@@std@@QAEXXZ 0041e0c0 f i MeshHash.obj
 0001:0001d1c0       ?push_back@?$vector@HV?$allocator@H@std@@@std@@QAEXABH@Z 0041e1c0 f i MeshHash.obj
 0001:0001d1e0       ?push_back@?$vector@UMeshHashEntry@@V?$allocator@UMeshHashEntry@@@std@@@std@@QAEXABUMeshHashEntry@@@Z 0041e1e0 f i MeshHash.obj
 0001:0001d200       ?size@?$vector@HV?$allocator@H@std@@@std@@QBEIXZ 0041e200 f i MeshHash.obj
 0001:0001d240       ?size@?$vector@UMeshHashEntry@@V?$allocator@UMeshHashEntry@@@std@@@std@@QBEIXZ 0041e240 f i MeshHash.obj
 0001:0001d280       ??0MySoftBody@@QAE@PAVNxScene@@AAVNxSoftBodyDesc@@PADPAVObjMesh@@M@Z 0041e280 f   MySoftBody.obj
 0001:0001d380       ??0MySoftBody@@QAE@PAVNxScene@@AAVNxSoftBodyDesc@@W4SoftBodyType@@MMMM_N@Z 0041e380 f   MySoftBody.obj
 0001:0001d500       ??1MySoftBody@@UAE@XZ      0041e500 f   MySoftBody.obj
 0001:0001d610       ?simulateAndDraw@MySoftBody@@UAEX_N00@Z 0041e610 f   MySoftBody.obj
 0001:0001de40       ?init@MySoftBody@@MAEXPAVNxScene@@AAVNxSoftBodyDesc@@AAVNxSoftBodyMeshDesc@@PAVObjMesh@@@Z 0041ee40 f   MySoftBody.obj
 0001:0001df90       ?generateTetMeshDesc@MySoftBody@@IAE_NAAVNxSoftBodyMeshDesc@@PADM@Z 0041ef90 f   MySoftBody.obj
 0001:0001e420       ?releaseMeshDescBuffers@MySoftBody@@IAEXABVNxSoftBodyMeshDesc@@@Z 0041f420 f   MySoftBody.obj
 0001:0001e490       ?cookMesh@MySoftBody@@IAE_NAAVNxSoftBodyMeshDesc@@@Z 0041f490 f   MySoftBody.obj
 0001:0001e570       ?allocateReceiveBuffers@MySoftBody@@MAEXHH@Z 0041f570 f   MySoftBody.obj
 0001:0001e6c0       ?releaseReceiveBuffers@MySoftBody@@MAEXXZ 0041f6c0 f   MySoftBody.obj
 0001:0001e740       ?generateBoxMeshDesc@MySoftBody@@IAEXAAVNxSoftBodyMeshDesc@@MMMM_N@Z 0041f740 f   MySoftBody.obj
 0001:0001ed20       ?childNr@MySoftBody@@IAEHHHAAVNxVec3@@@Z 0041fd20 f   MySoftBody.obj
 0001:0001ee90       ?sphereSubdivide@MySoftBody@@IAEXABVNxVec3@@00HHHH@Z 0041fe90 f   MySoftBody.obj
 0001:0001f030       ?generateSphereMeshDesc@MySoftBody@@IAEXAAVNxSoftBodyMeshDesc@@MMMM_N@Z 00420030 f   MySoftBody.obj
 0001:0001fd40       ??0?$NxArray@HVNxAllocatorDefault@@@@QAE@XZ 00420d40 f i MySoftBody.obj
 0001:0001fd80       ??0?$NxArray@IVNxAllocatorDefault@@@@QAE@XZ 00420d80 f i MySoftBody.obj
 0001:0001fdc0       ??0?$NxArray@VNxVec3@@VNxAllocatorDefault@@@@QAE@XZ 00420dc0 f i MySoftBody.obj
 0001:0001fe00       ??0NxBounds3@@QAE@XZ       00420e00 f i MySoftBody.obj
 0001:0001fe40       ??0NxMeshData@@QAE@XZ      00420e40 f i MySoftBody.obj
 0001:0001fe60       ??0NxSoftBodyMeshDesc@@QAE@XZ 00420e60 f i MySoftBody.obj
 0001:0001fe80       ??1?$NxArray@HVNxAllocatorDefault@@@@QAE@XZ 00420e80 f i MySoftBody.obj
 0001:0001ff20       ??1?$NxArray@IVNxAllocatorDefault@@@@QAE@XZ 00420f20 f i MySoftBody.obj
 0001:0001ffc0       ??1?$NxArray@VNxVec3@@VNxAllocatorDefault@@@@QAE@XZ 00420fc0 f i MySoftBody.obj
 0001:00020060       ??1NxBounds3@@QAE@XZ       00421060 f i MySoftBody.obj
 0001:00020070       ??A?$NxArray@HVNxAllocatorDefault@@@@QAEAAHI@Z 00421070 f i MySoftBody.obj
 0001:00020090       ??A?$NxArray@IVNxAllocatorDefault@@@@QAEAAII@Z 00421090 f i MySoftBody.obj
 0001:000200b0       ??A?$NxArray@VNxVec3@@VNxAllocatorDefault@@@@QAEAAVNxVec3@@I@Z 004210b0 f i MySoftBody.obj
 0001:000200d0       ??ZNxVec3@@QAEAAV0@ABV0@@Z 004210d0 f i MySoftBody.obj
 0001:00020140       ??_EMySoftBody@@UAEPAXI@Z  00421140 f i MySoftBody.obj
 0001:00020140       ??_GMySoftBody@@UAEPAXI@Z  00421140 f i MySoftBody.obj
 0001:00020180       ?__empty_global_delete@@YAXPAX@Z 00421180 f i MySoftBody.obj
 0001:00020190       ?__empty_global_delete@@YAXPAXI@Z 00421190 f i MySoftBody.obj
 0001:000201a0       ?allocate@?$NxArray@HVNxAllocatorDefault@@@@AAEPAHI@Z 004211a0 f i MySoftBody.obj
 0001:000201e0       ?allocate@?$NxArray@IVNxAllocatorDefault@@@@AAEPAII@Z 004211e0 f i MySoftBody.obj
 0001:00020220       ?allocate@?$NxArray@VNxVec3@@VNxAllocatorDefault@@@@AAEPAVNxVec3@@I@Z 00421220 f i MySoftBody.obj
 0001:00020260       ?begin@?$NxArray@HVNxAllocatorDefault@@@@QAEPAHXZ 00421260 f i MySoftBody.obj
 0001:00020280       ?begin@?$NxArray@IVNxAllocatorDefault@@@@QAEPAIXZ 00421280 f i MySoftBody.obj
 0001:000202a0       ?begin@?$NxArray@VNxVec3@@VNxAllocatorDefault@@@@QAEPAVNxVec3@@XZ 004212a0 f i MySoftBody.obj
 0001:000202c0       ?capacity@?$NxArray@HVNxAllocatorDefault@@@@QBEIXZ 004212c0 f i MySoftBody.obj
 0001:00020300       ?capacity@?$NxArray@IVNxAllocatorDefault@@@@QBEIXZ 00421300 f i MySoftBody.obj
 0001:00020340       ?capacity@?$NxArray@VNxVec3@@VNxAllocatorDefault@@@@QBEIXZ 00421340 f i MySoftBody.obj
 0001:00020390       ?clear@?$NxArray@HVNxAllocatorDefault@@@@QAEXXZ 00421390 f i MySoftBody.obj
 0001:000203d0       ?clear@?$NxArray@IVNxAllocatorDefault@@@@QAEXXZ 004213d0 f i MySoftBody.obj
 0001:00020410       ?clear@?$NxArray@VNxVec3@@VNxAllocatorDefault@@@@QAEXXZ 00421410 f i MySoftBody.obj
 0001:00020450       ?copy@?$NxArray@HVNxAllocatorDefault@@@@AAEPAHPBH0PAH@Z 00421450 f i MySoftBody.obj
 0001:000204a0       ?copy@?$NxArray@IVNxAllocatorDefault@@@@AAEPAIPBI0PAI@Z 004214a0 f i MySoftBody.obj
 0001:000204f0       ?copy@?$NxArray@VNxVec3@@VNxAllocatorDefault@@@@AAEPAVNxVec3@@PBV2@0PAV2@@Z 004214f0 f i MySoftBody.obj
 0001:00020540       ?deallocate@?$NxArray@HVNxAllocatorDefault@@@@AAEXPAH@Z 00421540 f i MySoftBody.obj
 0001:00020570       ?deallocate@?$NxArray@IVNxAllocatorDefault@@@@AAEXPAI@Z 00421570 f i MySoftBody.obj
 0001:000205a0       ?deallocate@?$NxArray@VNxVec3@@VNxAllocatorDefault@@@@AAEXPAVNxVec3@@@Z 004215a0 f i MySoftBody.obj
 0001:000205d0       ?destroy@?$NxArray@HVNxAllocatorDefault@@@@AAEXPAH0@Z 004215d0 f i MySoftBody.obj
 0001:00020600       ?destroy@?$NxArray@IVNxAllocatorDefault@@@@AAEXPAI0@Z 00421600 f i MySoftBody.obj
 0001:00020630       ?destroy@?$NxArray@VNxVec3@@VNxAllocatorDefault@@@@AAEXPAVNxVec3@@0@Z 00421630 f i MySoftBody.obj
 0001:00020660       ?distance@NxVec3@@QBEMABV1@@Z 00421660 f i MySoftBody.obj
 0001:00020700       ?end@?$NxArray@HVNxAllocatorDefault@@@@QAEPAHXZ 00421700 f i MySoftBody.obj
 0001:00020720       ?end@?$NxArray@IVNxAllocatorDefault@@@@QAEPAIXZ 00421720 f i MySoftBody.obj
 0001:00020740       ?end@?$NxArray@VNxVec3@@VNxAllocatorDefault@@@@QAEPAVNxVec3@@XZ 00421740 f i MySoftBody.obj
 0001:00020760       ?erase@?$NxArray@VNxVec3@@VNxAllocatorDefault@@@@QAEXPAVNxVec3@@0@Z 00421760 f i MySoftBody.obj
 0001:000207d0       ?fill@?$NxArray@VNxVec3@@VNxAllocatorDefault@@@@AAEXPAVNxVec3@@IABV2@@Z 004217d0 f i MySoftBody.obj
 0001:00020820       ?include@NxBounds3@@QAEXABVNxVec3@@@Z 00421820 f i MySoftBody.obj
 0001:00020860       ?insert@?$NxArray@VNxVec3@@VNxAllocatorDefault@@@@QAEXPAVNxVec3@@IABV2@@Z 00421860 f i MySoftBody.obj
 0001:00020980       ?isFinite@NxMat33@@QBE_NXZ 00421980 f i MySoftBody.obj
 0001:00020b10       ?isFinite@NxMat34@@QBE_NXZ 00421b10 f i MySoftBody.obj
 0001:00020b60       ?isFinite@NxMath@@SA_NM@Z  00421b60 f i MySoftBody.obj
 0001:00020bb0       ?isFinite@NxVec3@@QBE_NXZ  00421bb0 f i MySoftBody.obj
 0001:00020c50       ?isValid@NxMeshData@@QBE_NXZ 00421c50 f i MySoftBody.obj
 0001:00020da0       ?isValid@NxSoftBodyDesc@@QBE_NXZ 00421da0 f i MySoftBody.obj
 0001:00021060       ?isValid@NxSoftBodyMeshDesc@@QBE_NXZ 00422060 f i MySoftBody.obj
 0001:00021130       ?isValid@NxSoftBodySplitPairData@@QBE_NXZ 00422130 f i MySoftBody.obj
 0001:000211a0       ?max@NxMath@@SAMMM@Z       004221a0 f i MySoftBody.obj
 0001:000211e0       ?max@NxVec3@@QAEXABV1@@Z   004221e0 f i MySoftBody.obj
 0001:00021290       ?min@NxMath@@SAMMM@Z       00422290 f i MySoftBody.obj
 0001:000212d0       ?min@NxVec3@@QAEXABV1@@Z   004222d0 f i MySoftBody.obj
 0001:00021380       ?pushBack@?$NxArray@HVNxAllocatorDefault@@@@QAEXABH@Z 00422380 f i MySoftBody.obj
 0001:000213e0       ?pushBack@?$NxArray@IVNxAllocatorDefault@@@@QAEXABI@Z 004223e0 f i MySoftBody.obj
 0001:00021440       ?pushBack@?$NxArray@VNxVec3@@VNxAllocatorDefault@@@@QAEXABVNxVec3@@@Z 00422440 f i MySoftBody.obj
 0001:000214b0       ?push_back@?$NxArray@HVNxAllocatorDefault@@@@QAEXABH@Z 004224b0 f i MySoftBody.obj
 0001:000214d0       ?push_back@?$NxArray@IVNxAllocatorDefault@@@@QAEXABI@Z 004224d0 f i MySoftBody.obj
 0001:000214f0       ?push_back@?$NxArray@VNxVec3@@VNxAllocatorDefault@@@@QAEXABVNxVec3@@@Z 004224f0 f i MySoftBody.obj
 0001:00021510       ?realloc@NxAllocatorDefault@@QAEPAXPAXI@Z 00422510 f i MySoftBody.obj
 0001:00021540       ?reallocate@?$NxArray@VNxVec3@@VNxAllocatorDefault@@@@AAEPAVNxVec3@@IPAV2@@Z 00422540 f i MySoftBody.obj
 0001:00021570       ?reserve@?$NxArray@HVNxAllocatorDefault@@@@QAEXI@Z 00422570 f i MySoftBody.obj
 0001:00021630       ?reserve@?$NxArray@IVNxAllocatorDefault@@@@QAEXI@Z 00422630 f i MySoftBody.obj
 0001:000216f0       ?reserve@?$NxArray@VNxVec3@@VNxAllocatorDefault@@@@QAEXI@Z 004226f0 f i MySoftBody.obj
 0001:000217b0       ?resize@?$NxArray@VNxVec3@@VNxAllocatorDefault@@@@QAEXIABVNxVec3@@@Z 004227b0 f i MySoftBody.obj
 0001:00021900       ?set@NxBounds3@@QAEXMMMMMM@Z 00422900 f i MySoftBody.obj
 0001:00021980       ?setEmpty@NxBounds3@@QAEXXZ 00422980 f i MySoftBody.obj
 0001:00021a00       ?setToDefault@NxMeshData@@QAEXXZ 00422a00 f i MySoftBody.obj
 0001:00021af0       ?setToDefault@NxSoftBodyMeshDesc@@QAEXXZ 00422af0 f i MySoftBody.obj
 0001:00021b90       ?size@?$NxArray@HVNxAllocatorDefault@@@@QBEIXZ 00422b90 f i MySoftBody.obj
 0001:00021bb0       ?size@?$NxArray@IVNxAllocatorDefault@@@@QBEIXZ 00422bb0 f i MySoftBody.obj
 0001:00021bd0       ?size@?$NxArray@VNxVec3@@VNxAllocatorDefault@@@@QBEIXZ 00422bd0 f i MySoftBody.obj
 0001:00021c00       ___local_stdio_scanf_options 00422c00 f i MySoftBody.obj
 0001:00021c10       __vsscanf_l                00422c10 f i MySoftBody.obj
 0001:00021c50       _sscanf                    00422c50 f i MySoftBody.obj
 0001:00021c90       ?init@ObjMeshMaterial@@QAEXXZ 00422c90 f   ObjMesh.obj
 0001:00021db0       ?loadFromObjFile@ObjMesh@@QAE_NPAD@Z 00422db0 f   ObjMesh.obj
 0001:00022b60       ?saveToObjFile@ObjMesh@@QBE_NPAD@Z 00423b60 f   ObjMesh.obj
 0001:00023690       ?simulateMesh@ObjMesh@@UAE_NABVNxMeshData@@@Z 00424690 f   ObjMesh.obj
 0001:000236c0       ?buildTetraLinks@ObjMesh@@QAEXPBVNxVec3@@PBII@Z 004246c0 f   ObjMesh.obj
 0001:00023c90       ?loadTetraLinks@ObjMesh@@QAE_NPAD@Z 00424c90 f   ObjMesh.obj
 0001:00023df0       ?draw@ObjMesh@@UAEXI_N0@Z  00424df0 f   ObjMesh.obj
 0001:000245e0       ?clear@ObjMesh@@QAEXXZ     004255e0 f   ObjMesh.obj
 0001:00024670       ?getTriangleBounds@ObjMesh@@QBEXHAAVNxBounds3@@@Z 00425670 f   ObjMesh.obj
 0001:00024710       ?setDiagonal@ObjMesh@@QAEXM@Z 00425710 f   ObjMesh.obj
 0001:000247b0       ?setCenter@ObjMesh@@QAEXABVNxVec3@@@Z 004257b0 f   ObjMesh.obj
 0001:00024850       ?transform@ObjMesh@@QAEXABVNxMat34@@@Z 00425850 f   ObjMesh.obj
 0001:000248c0       ?rayTriangleIntersection@ObjMesh@@QBE_NABVNxVec3@@0ABUObjMeshTriangle@@AAM22@Z 004258c0 f   ObjMesh.obj
 0001:00024aa0       ?rayCast@ObjMesh@@QAE_NABVNxVec3@@0AAM@Z 00425aa0 f   ObjMesh.obj
 0001:00024b80       ?importMtlFile@ObjMesh@@IAE_NPAD@Z 00425b80 f   ObjMesh.obj
 0001:00024fb0       ?extractPath@ObjMesh@@IAEXPAD@Z 00425fb0 f   ObjMesh.obj
 0001:00025110       ?updateNormals@ObjMesh@@IAEXXZ 00426110 f   ObjMesh.obj
 0001:00025340       ?updateBounds@ObjMesh@@IAEXXZ 00426340 f   ObjMesh.obj
 0001:000253a0       ?updateTetraLinks@ObjMesh@@IAE_NABVNxMeshData@@@Z 004263a0 f   ObjMesh.obj
 0001:00025620       ?removeTrisRelatedToVertex@ObjMesh@@MAEXH@Z 00426620 f   ObjMesh.obj
 0001:000256f0       ?computeBaryCoords@ObjMesh@@IAE?AVNxVec3@@V2@0000@Z 004266f0 f   ObjMesh.obj
 0001:00025860       ?parseRef@@YAXPADQAH@Z     00426860 f   ObjMesh.obj
 0001:00026970       ??$?0$$V@?$_Compressed_pair@V?$allocator@H@std@@V?$_Vector_val@U?$_Simple_types@H@std@@@2@$00@std@@QAE@U_Zero_then_variadic_args_t@1@@Z 00427970 f i ObjMesh.obj
 0001:000269a0       ??$?0$$V@?$_Compressed_pair@V?$allocator@UTexCoord@@@std@@V?$_Vector_val@U?$_Simple_types@UTexCoord@@@std@@@2@$00@std@@QAE@U_Zero_then_variadic_args_t@1@@Z 004279a0 f i ObjMesh.obj
 0001:000269d0       ??$?0$$V@?$_Compressed_pair@V?$allocator@VNxVec3@@@std@@V?$_Vector_val@U?$_Simple_types@VNxVec3@@@std@@@2@$00@std@@QAE@U_Zero_then_variadic_args_t@1@@Z 004279d0 f i ObjMesh.obj
 0001:00026a00       ??$?0H@?$allocator@U_Container_proxy@std@@@std@@QAE@ABV?$allocator@H@1@@Z 00427a00 f i ObjMesh.obj
 0001:00026a20       ??$?0U?$integral_constant@_N$00@std@@@_Unused_parameter@std@@QAE@$$QAU?$integral_constant@_N$00@1@@Z 00427a20 f i ObjMesh.obj
 0001:00026a40       ??$?0UTexCoord@@@?$allocator@U_Container_proxy@std@@@std@@QAE@ABV?$allocator@UTexCoord@@@1@@Z 00427a40 f i ObjMesh.obj
 0001:00026a60       ??$?0VNxVec3@@@?$allocator@U_Container_proxy@std@@@std@@QAE@ABV?$allocator@VNxVec3@@@1@@Z 00427a60 f i ObjMesh.obj
 0001:00026a80       ??$_Adl_verify_range1@V?$_Vb_iterator@U?$_Wrap_alloc@V?$allocator@I@std@@@std@@@std@@V12@@std@@YAXABV?$_Vb_iterator@U?$_Wrap_alloc@V?$allocator@I@std@@@std@@@0@0U?$integral_constant@_N$00@0@@Z 00427a80 f i ObjMesh.obj
 0001:00026aa0       ??$_Adl_verify_range@V?$_Vb_iterator@U?$_Wrap_alloc@V?$allocator@I@std@@@std@@@std@@V12@@std@@YAXABV?$_Vb_iterator@U?$_Wrap_alloc@V?$allocator@I@std@@@std@@@0@0@Z 00427aa0 f i ObjMesh.obj
 0001:00026ad0       ??$_Copy_backward_unchecked@V?$_Vb_iterator@U?$_Wrap_alloc@V?$allocator@I@std@@@std@@@std@@V12@@std@@YA?AV?$_Vb_iterator@U?$_Wrap_alloc@V?$allocator@I@std@@@std@@@0@V10@00U_General_ptr_iterator_tag@0@@Z 00427ad0 f i ObjMesh.obj
 0001:00026c00       ??$_Copy_memmove@PAIPAI@std@@YAPAIPAI00@Z 00427c00 f i ObjMesh.obj
 0001:00026c50       ??$_Copy_memmove@PAUObjMeshMaterial@@PAU1@@std@@YAPAUObjMeshMaterial@@PAU1@00@Z 00427c50 f i ObjMesh.obj
 0001:00026ca0       ??$_Copy_memmove@PAUObjMeshTriangle@@PAU1@@std@@YAPAUObjMeshTriangle@@PAU1@00@Z 00427ca0 f i ObjMesh.obj
 0001:00026cf0       ??$_Destroy_range1@V?$allocator@I@std@@@std@@YAXPAI0AAV?$allocator@I@0@U?$integral_constant@_N$00@0@@Z 00427cf0 f i ObjMesh.obj
 0001:00026d00       ??$_Destroy_range1@V?$allocator@UObjMeshMaterial@@@std@@@std@@YAXPAUObjMeshMaterial@@0AAV?$allocator@UObjMeshMaterial@@@0@U?$integral_constant@_N$00@0@@Z 00427d00 f i ObjMesh.obj
 0001:00026d10       ??$_Destroy_range1@V?$allocator@UObjMeshTetraLink@@@std@@@std@@YAXPAUObjMeshTetraLink@@0AAV?$allocator@UObjMeshTetraLink@@@0@U?$integral_constant@_N$00@0@@Z 00427d10 f i ObjMesh.obj
 0001:00026d20       ??$_Destroy_range1@V?$allocator@UObjMeshTriangle@@@std@@@std@@YAXPAUObjMeshTriangle@@0AAV?$allocator@UObjMeshTriangle@@@0@U?$integral_constant@_N$00@0@@Z 00427d20 f i ObjMesh.obj
 0001:00026d30       ??$_Destroy_range1@V?$allocator@UTexCoord@@@std@@@std@@YAXPAUTexCoord@@0AAV?$allocator@UTexCoord@@@0@U?$integral_constant@_N$00@0@@Z 00427d30 f i ObjMesh.obj
 0001:00026d40       ??$_Destroy_range1@V?$allocator@VNxVec3@@@std@@@std@@YAXPAVNxVec3@@0AAV?$allocator@VNxVec3@@@0@U?$integral_constant@_N$00@0@@Z 00427d40 f i ObjMesh.obj
 0001:00026d50       ??$_Destroy_range@V?$allocator@I@std@@@std@@YAXPAI0AAV?$allocator@I@0@@Z 00427d50 f i ObjMesh.obj
 0001:00026d80       ??$_Destroy_range@V?$allocator@UObjMeshMaterial@@@std@@@std@@YAXPAUObjMeshMaterial@@0AAV?$allocator@UObjMeshMaterial@@@0@@Z 00427d80 f i ObjMesh.obj
 0001:00026db0       ??$_Destroy_range@V?$allocator@UObjMeshTetraLink@@@std@@@std@@YAXPAUObjMeshTetraLink@@0AAV?$allocator@UObjMeshTetraLink@@@0@@Z 00427db0 f i ObjMesh.obj
 0001:00026de0       ??$_Destroy_range@V?$allocator@UObjMeshTriangle@@@std@@@std@@YAXPAUObjMeshTriangle@@0AAV?$allocator@UObjMeshTriangle@@@0@@Z 00427de0 f i ObjMesh.obj
 0001:00026e10       ??$_Destroy_range@V?$allocator@UTexCoord@@@std@@@std@@YAXPAUTexCoord@@0AAV?$allocator@UTexCoord@@@0@@Z 00427e10 f i ObjMesh.obj
 0001:00026e40       ??$_Destroy_range@V?$allocator@VNxVec3@@@std@@@std@@YAXPAVNxVec3@@0AAV?$allocator@VNxVec3@@@0@@Z 00427e40 f i ObjMesh.obj
 0001:00026e70       ??$_Emplace_back@$$V@?$_Uninitialized_backout_al@PAVNxVec3@@V?$allocator@VNxVec3@@@std@@@std@@QAEXXZ 00427e70 f i ObjMesh.obj
 0001:00026ec0       ??$_Emplace_back@AAUObjMeshTetraLink@@@?$_Uninitialized_backout_al@PAUObjMeshTetraLink@@V?$allocator@UObjMeshTetraLink@@@std@@@std@@QAEXAAUObjMeshTetraLink@@@Z 00427ec0 f i ObjMesh.obj
 0001:00026f20       ??$_Emplace_back@AAVNxVec3@@@?$_Uninitialized_backout_al@PAVNxVec3@@V?$allocator@VNxVec3@@@std@@@std@@QAEXAAVNxVec3@@@Z 00427f20 f i ObjMesh.obj
 0001:00026f80       ??$_Emplace_back@ABI@?$_Uninitialized_backout_al@PAIV?$allocator@I@std@@@std@@QAEXABI@Z 00427f80 f i ObjMesh.obj
 0001:00026fe0       ??$_Emplace_back@UObjMeshTetraLink@@@?$_Uninitialized_backout_al@PAUObjMeshTetraLink@@V?$allocator@UObjMeshTetraLink@@@std@@@std@@QAEX$$QAUObjMeshTetraLink@@@Z 00427fe0 f i ObjMesh.obj
 0001:00027040       ??$_Emplace_back@UTexCoord@@@?$_Uninitialized_backout_al@PAUTexCoord@@V?$allocator@UTexCoord@@@std@@@std@@QAEX$$QAUTexCoord@@@Z 00428040 f i ObjMesh.obj
 0001:000270a0       ??$_Emplace_back@VNxVec3@@@?$_Uninitialized_backout_al@PAVNxVec3@@V?$allocator@VNxVec3@@@std@@@std@@QAEX$$QAVNxVec3@@@Z 004280a0 f i ObjMesh.obj
 0001:00027100       ??$_Emplace_back_with_unused_capacity@ABUObjMeshMaterial@@@?$vector@UObjMeshMaterial@@V?$allocator@UObjMeshMaterial@@@std@@@std@@AAEXABUObjMeshMaterial@@@Z 00428100 f i ObjMesh.obj
 0001:000271b0       ??$_Emplace_back_with_unused_capacity@ABUObjMeshTetraLink@@@?$vector@UObjMeshTetraLink@@V?$allocator@UObjMeshTetraLink@@@std@@@std@@AAEXABUObjMeshTetraLink@@@Z 004281b0 f i ObjMesh.obj
 0001:00027260       ??$_Emplace_back_with_unused_capacity@ABUObjMeshTriangle@@@?$vector@UObjMeshTriangle@@V?$allocator@UObjMeshTriangle@@@std@@@std@@AAEXABUObjMeshTriangle@@@Z 00428260 f i ObjMesh.obj
 0001:00027310       ??$_Emplace_back_with_unused_capacity@ABUTexCoord@@@?$vector@UTexCoord@@V?$allocator@UTexCoord@@@std@@@std@@AAEXABUTexCoord@@@Z 00428310 f i ObjMesh.obj
 0001:000273c0       ??$_Emplace_back_with_unused_capacity@ABVNxVec3@@@?$vector@VNxVec3@@V?$allocator@VNxVec3@@@std@@@std@@AAEXABVNxVec3@@@Z 004283c0 f i ObjMesh.obj
 0001:00027470       ??$_Emplace_reallocate@ABUObjMeshMaterial@@@?$vector@UObjMeshMaterial@@V?$allocator@UObjMeshMaterial@@@std@@@std@@QAEPAUObjMeshMaterial@@QAU2@ABU2@@Z 00428470 f i ObjMesh.obj
 0001:000276e0       ??$_Emplace_reallocate@ABUObjMeshTetraLink@@@?$vector@UObjMeshTetraLink@@V?$allocator@UObjMeshTetraLink@@@std@@@std@@QAEPAUObjMeshTetraLink@@QAU2@ABU2@@Z 004286e0 f i ObjMesh.obj
 0001:00027940       ??$_Emplace_reallocate@ABUObjMeshTriangle@@@?$vector@UObjMeshTriangle@@V?$allocator@UObjMeshTriangle@@@std@@@std@@QAEPAUObjMeshTriangle@@QAU2@ABU2@@Z 00428940 f i ObjMesh.obj
 0001:00027ba0       ??$_Emplace_reallocate@ABUTexCoord@@@?$vector@UTexCoord@@V?$allocator@UTexCoord@@@std@@@std@@QAEPAUTexCoord@@QAU2@ABU2@@Z 00428ba0 f i ObjMesh.obj
 0001:00027df0       ??$_Emplace_reallocate@ABVNxVec3@@@?$vector@VNxVec3@@V?$allocator@VNxVec3@@@std@@@std@@QAEPAVNxVec3@@QAV2@ABV2@@Z 00428df0 f i ObjMesh.obj
 0001:00028050       ??$_Fill_memset_is_safe@V?$_Vb_iterator@U?$_Wrap_alloc@V?$allocator@I@std@@@std@@@std@@_N@std@@YA?AU?$integral_constant@_N$0A@@0@ABV?$_Vb_iterator@U?$_Wrap_alloc@V?$allocator@I@std@@@std@@@0@AB_N@Z 00429050 f i ObjMesh.obj
 0001:00028070       ??$_Fill_unchecked1@V?$_Vb_iterator@U?$_Wrap_alloc@V?$allocator@I@std@@@std@@@std@@_N@std@@YAXV?$_Vb_iterator@U?$_Wrap_alloc@V?$allocator@I@std@@@std@@@0@0AB_NU?$integral_constant@_N$0A@@0@@Z 00429070 f i ObjMesh.obj
 0001:00028140       ??$_Fill_unchecked@V?$_Vb_iterator@U?$_Wrap_alloc@V?$allocator@I@std@@@std@@@std@@_N@std@@YAXV?$_Vb_iterator@U?$_Wrap_alloc@V?$allocator@I@std@@@std@@@0@0AB_N@Z 00429140 f i ObjMesh.obj
 0001:00028210       ??$_Get_size_of_n@$0BA@@std@@YAII@Z 00429210 f i ObjMesh.obj
 0001:00028250       ??$_Get_size_of_n@$0CDA@@std@@YAII@Z 00429250 f i ObjMesh.obj
 0001:00028290       ??$_Get_size_of_n@$0DE@@std@@YAII@Z 00429290 f i ObjMesh.obj
 0001:000282d0       ??$_Get_size_of_n@$0M@@std@@YAII@Z 004292d0 f i ObjMesh.obj
 0001:00028310       ??$_Get_unwrapped@I@std@@YAPAIQAI@Z 00429310 f i ObjMesh.obj
 0001:00028320       ??$_Get_unwrapped@UObjMeshMaterial@@@std@@YAPAUObjMeshMaterial@@QAU1@@Z 00429320 f i ObjMesh.obj
 0001:00028330       ??$_Get_unwrapped@UObjMeshTetraLink@@@std@@YAPAUObjMeshTetraLink@@QAU1@@Z 00429330 f i ObjMesh.obj
 0001:00028340       ??$_Get_unwrapped@UObjMeshTriangle@@@std@@YAPAUObjMeshTriangle@@QAU1@@Z 00429340 f i ObjMesh.obj
 0001:00028350       ??$_Get_unwrapped@UTexCoord@@@std@@YAPAUTexCoord@@QAU1@@Z 00429350 f i ObjMesh.obj
 0001:00028360       ??$_Get_unwrapped@V?$_Vb_iterator@U?$_Wrap_alloc@V?$allocator@I@std@@@std@@@std@@$0A@@std@@YAABV?$_Vb_iterator@U?$_Wrap_alloc@V?$allocator@I@std@@@std@@@0@ABV10@@Z 00429360 f i ObjMesh.obj
 0001:00028370       ??$_Get_unwrapped@VNxVec3@@@std@@YAPAVNxVec3@@QAV1@@Z 00429370 f i ObjMesh.obj
 0001:00028380       ??$_Get_unwrapped_n@IH$0A@@std@@YAPAIQAIH@Z 00429380 f i ObjMesh.obj
 0001:00028390       ??$_Get_unwrapped_n@UObjMeshMaterial@@H$0A@@std@@YAPAUObjMeshMaterial@@QAU1@H@Z 00429390 f i ObjMesh.obj
 0001:000283a0       ??$_Get_unwrapped_n@UObjMeshTetraLink@@H$0A@@std@@YAPAUObjMeshTetraLink@@QAU1@H@Z 004293a0 f i ObjMesh.obj
 0001:000283b0       ??$_Get_unwrapped_n@UObjMeshTriangle@@H$0A@@std@@YAPAUObjMeshTriangle@@QAU1@H@Z 004293b0 f i ObjMesh.obj
 0001:000283c0       ??$_Get_unwrapped_n@UTexCoord@@H$0A@@std@@YAPAUTexCoord@@QAU1@H@Z 004293c0 f i ObjMesh.obj
 0001:000283d0       ??$_Get_unwrapped_n@V?$_Vb_iterator@U?$_Wrap_alloc@V?$allocator@I@std@@@std@@@std@@H$0A@@std@@YAABV?$_Vb_iterator@U?$_Wrap_alloc@V?$allocator@I@std@@@std@@@0@ABV10@H@Z 004293d0 f i ObjMesh.obj
 0001:000283e0       ??$_Get_unwrapped_n@VNxVec3@@H$0A@@std@@YAPAVNxVec3@@QAV1@H@Z 004293e0 f i ObjMesh.obj
 0001:000283f0       ??$_Idl_distance1@PAIPAI@std@@YAHABQAI0Urandom_access_iterator_tag@0@@Z 004293f0 f i ObjMesh.obj
 0001:00028410       ??$_Idl_distance1@PAUObjMeshMaterial@@PAU1@@std@@YAHABQAUObjMeshMaterial@@0Urandom_access_iterator_tag@0@@Z 00429410 f i ObjMesh.obj
 0001:00028430       ??$_Idl_distance1@PAUObjMeshTetraLink@@PAU1@@std@@YAHABQAUObjMeshTetraLink@@0Urandom_access_iterator_tag@0@@Z 00429430 f i ObjMesh.obj
 0001:00028450       ??$_Idl_distance1@PAUObjMeshTriangle@@PAU1@@std@@YAHABQAUObjMeshTriangle@@0Urandom_access_iterator_tag@0@@Z 00429450 f i ObjMesh.obj
 0001:00028470       ??$_Idl_distance1@PAUTexCoord@@PAU1@@std@@YAHABQAUTexCoord@@0Urandom_access_iterator_tag@0@@Z 00429470 f i ObjMesh.obj
 0001:00028490       ??$_Idl_distance1@PAVNxVec3@@PAV1@@std@@YAHABQAVNxVec3@@0Urandom_access_iterator_tag@0@@Z 00429490 f i ObjMesh.obj
 0001:000284b0       ??$_Idl_distance1@V?$_Vb_iterator@U?$_Wrap_alloc@V?$allocator@I@std@@@std@@@std@@V12@@std@@YAHABV?$_Vb_iterator@U?$_Wrap_alloc@V?$allocator@I@std@@@std@@@0@0Urandom_access_iterator_tag@0@@Z 004294b0 f i ObjMesh.obj
 0001:000284d0       ??$_Idl_distance@PAIPAI@std@@YAHABQAI0@Z 004294d0 f i ObjMesh.obj
 0001:00028500       ??$_Idl_distance@PAUObjMeshMaterial@@PAU1@@std@@YAHABQAUObjMeshMaterial@@0@Z 00429500 f i ObjMesh.obj
 0001:00028530       ??$_Idl_distance@PAUObjMeshTetraLink@@PAU1@@std@@YAHABQAUObjMeshTetraLink@@0@Z 00429530 f i ObjMesh.obj
 0001:00028560       ??$_Idl_distance@PAUObjMeshTriangle@@PAU1@@std@@YAHABQAUObjMeshTriangle@@0@Z 00429560 f i ObjMesh.obj
 0001:00028590       ??$_Idl_distance@PAUTexCoord@@PAU1@@std@@YAHABQAUTexCoord@@0@Z 00429590 f i ObjMesh.obj
 0001:000285c0       ??$_Idl_distance@PAVNxVec3@@PAV1@@std@@YAHABQAVNxVec3@@0@Z 004295c0 f i ObjMesh.obj
 0001:000285f0       ??$_Idl_distance@V?$_Vb_iterator@U?$_Wrap_alloc@V?$allocator@I@std@@@std@@@std@@V12@@std@@YAHABV?$_Vb_iterator@U?$_Wrap_alloc@V?$allocator@I@std@@@std@@@0@0@Z 004295f0 f i ObjMesh.obj
 0001:00028620       ??$_Ptr_copy_cat@UObjMeshTetraLink@@U1@@std@@YA?AU_General_ptr_iterator_tag@0@ABQAUObjMeshTetraLink@@0@Z 00429620 f i ObjMesh.obj
 0001:00028640       ??$_Ptr_copy_cat@V?$_Vb_iterator@U?$_Wrap_alloc@V?$allocator@I@std@@@std@@@std@@V12@@std@@YA?AU_General_ptr_iterator_tag@0@ABV?$_Vb_iterator@U?$_Wrap_alloc@V?$allocator@I@std@@@std@@@0@0@Z 00429640 f i ObjMesh.obj
 0001:00028660       ??$_Ptr_copy_cat@VNxVec3@@V1@@std@@YA?AU_General_ptr_iterator_tag@0@ABQAVNxVec3@@0@Z 00429660 f i ObjMesh.obj
 0001:00028680       ??$_Ptr_move_cat@II@std@@YA?AU_Really_trivial_ptr_iterator_tag@0@ABQAI0@Z 00429680 f i ObjMesh.obj
 0001:00028690       ??$_Ptr_move_cat@UObjMeshMaterial@@U1@@std@@YA?AU_Really_trivial_ptr_iterator_tag@0@ABQAUObjMeshMaterial@@0@Z 00429690 f i ObjMesh.obj
 0001:000286a0       ??$_Ptr_move_cat@UObjMeshTetraLink@@U1@@std@@YA?AU_General_ptr_iterator_tag@0@ABQAUObjMeshTetraLink@@0@Z 004296a0 f i ObjMesh.obj
 0001:000286c0       ??$_Ptr_move_cat@UObjMeshTriangle@@U1@@std@@YA?AU_Really_trivial_ptr_iterator_tag@0@ABQAUObjMeshTriangle@@0@Z 004296c0 f i ObjMesh.obj
 0001:000286d0       ??$_Ptr_move_cat@UTexCoord@@U1@@std@@YA?AU_Trivially_copyable_ptr_iterator_tag@0@ABQAUTexCoord@@0@Z 004296d0 f i ObjMesh.obj
 0001:000286e0       ??$_Ptr_move_cat@VNxVec3@@V1@@std@@YA?AU_General_ptr_iterator_tag@0@ABQAVNxVec3@@0@Z 004296e0 f i ObjMesh.obj
 0001:00028700       ??$_Resize@V<lambda_9f0cfb79a079f88b3dceef1f68a95df8>@@@?$vector@VNxVec3@@V?$allocator@VNxVec3@@@std@@@std@@AAEXIV<lambda_9f0cfb79a079f88b3dceef1f68a95df8>@@@Z 00429700 f i ObjMesh.obj
 0001:00028970       ??$_Resize@V<lambda_ac46504d121956be4d19caa267422eef>@@@?$vector@IV?$allocator@I@std@@@std@@AAEXIV<lambda_ac46504d121956be4d19caa267422eef>@@@Z 00429970 f i ObjMesh.obj
 0001:00028be0       ??$_Seek_wrapped@I@std@@YAXAAPAIQAI@Z 00429be0 f i ObjMesh.obj
 0001:00028bf0       ??$_Seek_wrapped@UObjMeshMaterial@@@std@@YAXAAPAUObjMeshMaterial@@QAU1@@Z 00429bf0 f i ObjMesh.obj
 0001:00028c00       ??$_Seek_wrapped@UObjMeshTetraLink@@@std@@YAXAAPAUObjMeshTetraLink@@QAU1@@Z 00429c00 f i ObjMesh.obj
 0001:00028c10       ??$_Seek_wrapped@UObjMeshTriangle@@@std@@YAXAAPAUObjMeshTriangle@@QAU1@@Z 00429c10 f i ObjMesh.obj
 0001:00028c20       ??$_Seek_wrapped@UTexCoord@@@std@@YAXAAPAUTexCoord@@QAU1@@Z 00429c20 f i ObjMesh.obj
 0001:00028c30       ??$_Seek_wrapped@V?$_Vb_iterator@U?$_Wrap_alloc@V?$allocator@I@std@@@std@@@std@@V12@$0A@@std@@YAXAAV?$_Vb_iterator@U?$_Wrap_alloc@V?$allocator@I@std@@@std@@@0@ABV10@@Z 00429c30 f i ObjMesh.obj
 0001:00028c50       ??$_Seek_wrapped@VNxVec3@@@std@@YAXAAPAVNxVec3@@QAV1@@Z 00429c50 f i ObjMesh.obj
 0001:00028c60       ??$_Unfancy@I@std@@YAPAIPAI@Z 00429c60 f i ObjMesh.obj
 0001:00028c70       ??$_Unfancy@UObjMeshMaterial@@@std@@YAPAUObjMeshMaterial@@PAU1@@Z 00429c70 f i ObjMesh.obj
 0001:00028c80       ??$_Unfancy@UObjMeshTetraLink@@@std@@YAPAUObjMeshTetraLink@@PAU1@@Z 00429c80 f i ObjMesh.obj
 0001:00028c90       ??$_Unfancy@UObjMeshTriangle@@@std@@YAPAUObjMeshTriangle@@PAU1@@Z 00429c90 f i ObjMesh.obj
 0001:00028ca0       ??$_Unfancy@UTexCoord@@@std@@YAPAUTexCoord@@PAU1@@Z 00429ca0 f i ObjMesh.obj
 0001:00028cb0       ??$_Unfancy@VNxVec3@@@std@@YAPAVNxVec3@@PAV1@@Z 00429cb0 f i ObjMesh.obj
 0001:00028cc0       ??$_Unfancy_maybe_null@I@std@@YAPAIPAI@Z 00429cc0 f i ObjMesh.obj
 0001:00028cd0       ??$_Uninit_alloc_fill_n1@PAIIV?$allocator@I@std@@@std@@YAPAIQAIIABIAAV?$allocator@I@0@U?$integral_constant@_N$0A@@0@@Z 00429cd0 f i ObjMesh.obj
 0001:00028d80       ??$_Uninitialized_copy@PAUObjMeshTetraLink@@PAU1@V?$allocator@UObjMeshTetraLink@@@std@@@std@@YAPAUObjMeshTetraLink@@QAU1@0PAU1@AAV?$allocator@UObjMeshTetraLink@@@0@@Z 00429d80 f i ObjMesh.obj
 0001:00028e40       ??$_Uninitialized_copy@PAVNxVec3@@PAV1@V?$allocator@VNxVec3@@@std@@@std@@YAPAVNxVec3@@QAV1@0PAV1@AAV?$allocator@VNxVec3@@@0@@Z 00429e40 f i ObjMesh.obj
 0001:00028f00       ??$_Uninitialized_copy_al_unchecked@PAUObjMeshTetraLink@@PAU1@V?$allocator@UObjMeshTetraLink@@@std@@@std@@YAPAUObjMeshTetraLink@@PAU1@QAU1@1AAV?$allocator@UObjMeshTetraLink@@@0@U_General_ptr_iterator_tag@0@U_Unused_parameter@0@@Z 00429f00 f i ObjMesh.obj
 0001:00028fb0       ??$_Uninitialized_copy_al_unchecked@PAVNxVec3@@PAV1@V?$allocator@VNxVec3@@@std@@@std@@YAPAVNxVec3@@PAV1@QAV1@1AAV?$allocator@VNxVec3@@@0@U_General_ptr_iterator_tag@0@U_Unused_parameter@0@@Z 00429fb0 f i ObjMesh.obj
 0001:00029060       ??$_Uninitialized_fill_n@PAIIV?$allocator@I@std@@@std@@YAPAIQAIIABIAAV?$allocator@I@0@@Z 0042a060 f i ObjMesh.obj
 0001:000290a0       ??$_Uninitialized_move@PAIPAIV?$allocator@I@std@@@std@@YAPAIQAI0PAIAAV?$allocator@I@0@@Z 0042a0a0 f i ObjMesh.obj
 0001:00029160       ??$_Uninitialized_move@PAUObjMeshMaterial@@PAU1@V?$allocator@UObjMeshMaterial@@@std@@@std@@YAPAUObjMeshMaterial@@QAU1@0PAU1@AAV?$allocator@UObjMeshMaterial@@@0@@Z 0042a160 f i ObjMesh.obj
 0001:00029220       ??$_Uninitialized_move@PAUObjMeshTetraLink@@PAU1@V?$allocator@UObjMeshTetraLink@@@std@@@std@@YAPAUObjMeshTetraLink@@QAU1@0PAU1@AAV?$allocator@UObjMeshTetraLink@@@0@@Z 0042a220 f i ObjMesh.obj
 0001:000292e0       ??$_Uninitialized_move@PAUObjMeshTriangle@@PAU1@V?$allocator@UObjMeshTriangle@@@std@@@std@@YAPAUObjMeshTriangle@@QAU1@0PAU1@AAV?$allocator@UObjMeshTriangle@@@0@@Z 0042a2e0 f i ObjMesh.obj
 0001:000293a0       ??$_Uninitialized_move@PAUTexCoord@@PAU1@V?$allocator@UTexCoord@@@std@@@std@@YAPAUTexCoord@@QAU1@0PAU1@AAV?$allocator@UTexCoord@@@0@@Z 0042a3a0 f i ObjMesh.obj
 0001:00029460       ??$_Uninitialized_move@PAVNxVec3@@PAV1@V?$allocator@VNxVec3@@@std@@@std@@YAPAVNxVec3@@QAV1@0PAV1@AAV?$allocator@VNxVec3@@@0@@Z 0042a460 f i ObjMesh.obj
 0001:00029520       ??$_Uninitialized_move_al_unchecked@IIV?$allocator@I@std@@@std@@YAPAIQAI00AAV?$allocator@I@0@U_Really_trivial_ptr_iterator_tag@0@U?$integral_constant@_N$00@0@@Z 0042a520 f i ObjMesh.obj
 0001:00029540       ??$_Uninitialized_move_al_unchecked@PAUObjMeshTetraLink@@PAU1@V?$allocator@UObjMeshTetraLink@@@std@@@std@@YAPAUObjMeshTetraLink@@PAU1@QAU1@1AAV?$allocator@UObjMeshTetraLink@@@0@U_General_ptr_iterator_tag@0@U_Unused_parameter@0@@Z 0042a540 f i ObjMesh.obj
 0001:00029600       ??$_Uninitialized_move_al_unchecked@PAUTexCoord@@PAU1@V?$allocator@UTexCoord@@@std@@@std@@YAPAUTexCoord@@PAU1@QAU1@1AAV?$allocator@UTexCoord@@@0@U_General_ptr_iterator_tag@0@U_Unused_parameter@0@@Z 0042a600 f i ObjMesh.obj
 0001:000296c0       ??$_Uninitialized_move_al_unchecked@PAVNxVec3@@PAV1@V?$allocator@VNxVec3@@@std@@@std@@YAPAVNxVec3@@PAV1@QAV1@1AAV?$allocator@VNxVec3@@@0@U_General_ptr_iterator_tag@0@U_Unused_parameter@0@@Z 0042a6c0 f i ObjMesh.obj
 0001:00029780       ??$_Uninitialized_move_al_unchecked@UObjMeshMaterial@@U1@V?$allocator@UObjMeshMaterial@@@std@@@std@@YAPAUObjMeshMaterial@@QAU1@00AAV?$allocator@UObjMeshMaterial@@@0@U_Really_trivial_ptr_iterator_tag@0@U?$integral_constant@_N$00@0@@Z 0042a780 f i ObjMesh.obj
 0001:000297a0       ??$_Uninitialized_move_al_unchecked@UObjMeshTriangle@@U1@V?$allocator@UObjMeshTriangle@@@std@@@std@@YAPAUObjMeshTriangle@@QAU1@00AAV?$allocator@UObjMeshTriangle@@@0@U_Really_trivial_ptr_iterator_tag@0@U?$integral_constant@_N$00@0@@Z 0042a7a0 f i ObjMesh.obj
 0001:000297c0       ??$_Uninitialized_value_construct_n1@PAVNxVec3@@IV?$allocator@VNxVec3@@@std@@@std@@YAPAVNxVec3@@QAV1@IAAV?$allocator@VNxVec3@@@0@U?$integral_constant@_N$0A@@0@@Z 0042a7c0 f i ObjMesh.obj
 0001:00029870       ??$_Uninitialized_value_construct_n@PAVNxVec3@@IV?$allocator@VNxVec3@@@std@@@std@@YAPAVNxVec3@@PAV1@IAAV?$allocator@VNxVec3@@@0@@Z 0042a870 f i ObjMesh.obj
 0001:000298a0       ??$addressof@V?$_Vector_val@U?$_Simple_types@H@std@@@std@@@std@@YAPAV?$_Vector_val@U?$_Simple_types@H@std@@@0@AAV10@@Z 0042a8a0 f i ObjMesh.obj
 0001:000298b0       ??$addressof@V?$_Vector_val@U?$_Simple_types@UTexCoord@@@std@@@std@@@std@@YAPAV?$_Vector_val@U?$_Simple_types@UTexCoord@@@std@@@0@AAV10@@Z 0042a8b0 f i ObjMesh.obj
 0001:000298c0       ??$addressof@V?$_Vector_val@U?$_Simple_types@VNxVec3@@@std@@@std@@@std@@YAPAV?$_Vector_val@U?$_Simple_types@VNxVec3@@@std@@@0@AAV10@@Z 0042a8c0 f i ObjMesh.obj
 0001:000298d0       ??$construct@IABI@?$_Default_allocator_traits@V?$allocator@I@std@@@std@@SAXAAV?$allocator@I@1@QAIABI@Z 0042a8d0 f i ObjMesh.obj
 0001:00029910       ??$construct@UObjMeshMaterial@@ABU1@@?$_Default_allocator_traits@V?$allocator@UObjMeshMaterial@@@std@@@std@@SAXAAV?$allocator@UObjMeshMaterial@@@1@QAUObjMeshMaterial@@ABU3@@Z 0042a910 f i ObjMesh.obj
 0001:00029960       ??$construct@UObjMeshTetraLink@@AAU1@@?$_Default_allocator_traits@V?$allocator@UObjMeshTetraLink@@@std@@@std@@SAXAAV?$allocator@UObjMeshTetraLink@@@1@QAUObjMeshTetraLink@@AAU3@@Z 0042a960 f i ObjMesh.obj
 0001:000299a0       ??$construct@UObjMeshTetraLink@@ABU1@@?$_Default_allocator_traits@V?$allocator@UObjMeshTetraLink@@@std@@@std@@SAXAAV?$allocator@UObjMeshTetraLink@@@1@QAUObjMeshTetraLink@@ABU3@@Z 0042a9a0 f i ObjMesh.obj
 0001:000299e0       ??$construct@UObjMeshTetraLink@@U1@@?$_Default_allocator_traits@V?$allocator@UObjMeshTetraLink@@@std@@@std@@SAXAAV?$allocator@UObjMeshTetraLink@@@1@QAUObjMeshTetraLink@@$$QAU3@@Z 0042a9e0 f i ObjMesh.obj
 0001:00029a20       ??$construct@UObjMeshTriangle@@ABU1@@?$_Default_allocator_traits@V?$allocator@UObjMeshTriangle@@@std@@@std@@SAXAAV?$allocator@UObjMeshTriangle@@@1@QAUObjMeshTriangle@@ABU3@@Z 0042aa20 f i ObjMesh.obj
 0001:00029a70       ??$construct@UTexCoord@@ABU1@@?$_Default_allocator_traits@V?$allocator@UTexCoord@@@std@@@std@@SAXAAV?$allocator@UTexCoord@@@1@QAUTexCoord@@ABU3@@Z 0042aa70 f i ObjMesh.obj
 0001:00029ab0       ??$construct@UTexCoord@@U1@@?$_Default_allocator_traits@V?$allocator@UTexCoord@@@std@@@std@@SAXAAV?$allocator@UTexCoord@@@1@QAUTexCoord@@$$QAU3@@Z 0042aab0 f i ObjMesh.obj
 0001:00029af0       ??$construct@VNxVec3@@$$V@?$_Default_allocator_traits@V?$allocator@VNxVec3@@@std@@@std@@SAXAAV?$allocator@VNxVec3@@@1@QAVNxVec3@@@Z 0042aaf0 f i ObjMesh.obj
 0001:00029b20       ??$construct@VNxVec3@@AAV1@@?$_Default_allocator_traits@V?$allocator@VNxVec3@@@std@@@std@@SAXAAV?$allocator@VNxVec3@@@1@QAVNxVec3@@AAV3@@Z 0042ab20 f i ObjMesh.obj
 0001:00029b60       ??$construct@VNxVec3@@ABV1@@?$_Default_allocator_traits@V?$allocator@VNxVec3@@@std@@@std@@SAXAAV?$allocator@VNxVec3@@@1@QAVNxVec3@@ABV3@@Z 0042ab60 f i ObjMesh.obj
 0001:00029ba0       ??$construct@VNxVec3@@V1@@?$_Default_allocator_traits@V?$allocator@VNxVec3@@@std@@@std@@SAXAAV?$allocator@VNxVec3@@@1@QAVNxVec3@@$$QAV3@@Z 0042aba0 f i ObjMesh.obj
 0001:00029be0       ??$copy_backward@V?$_Vb_iterator@U?$_Wrap_alloc@V?$allocator@I@std@@@std@@@std@@V12@@std@@YA?AV?$_Vb_iterator@U?$_Wrap_alloc@V?$allocator@I@std@@@std@@@0@V10@00@Z 0042abe0 f i ObjMesh.obj
 0001:00029de0       ??$emplace_back@ABUObjMeshMaterial@@@?$vector@UObjMeshMaterial@@V?$allocator@UObjMeshMaterial@@@std@@@std@@QAEXABUObjMeshMaterial@@@Z 0042ade0 f i ObjMesh.obj
 0001:00029e50       ??$emplace_back@ABUObjMeshTetraLink@@@?$vector@UObjMeshTetraLink@@V?$allocator@UObjMeshTetraLink@@@std@@@std@@QAEXABUObjMeshTetraLink@@@Z 0042ae50 f i ObjMesh.obj
 0001:00029ec0       ??$emplace_back@ABUObjMeshTriangle@@@?$vector@UObjMeshTriangle@@V?$allocator@UObjMeshTriangle@@@std@@@std@@QAEXABUObjMeshTriangle@@@Z 0042aec0 f i ObjMesh.obj
 0001:00029f30       ??$emplace_back@ABUTexCoord@@@?$vector@UTexCoord@@V?$allocator@UTexCoord@@@std@@@std@@QAEXABUTexCoord@@@Z 0042af30 f i ObjMesh.obj
 0001:00029fa0       ??$emplace_back@ABVNxVec3@@@?$vector@VNxVec3@@V?$allocator@VNxVec3@@@std@@@std@@QAEXABVNxVec3@@@Z 0042afa0 f i ObjMesh.obj
 0001:0002a010       ??$fill@V?$_Vb_iterator@U?$_Wrap_alloc@V?$allocator@I@std@@@std@@@std@@_N@std@@YAXV?$_Vb_iterator@U?$_Wrap_alloc@V?$allocator@I@std@@@std@@@0@0AB_N@Z 0042b010 f i ObjMesh.obj
 0001:0002a100       ??$forward@AAUObjMeshTetraLink@@@std@@YAAAUObjMeshTetraLink@@AAU1@@Z 0042b100 f i ObjMesh.obj
 0001:0002a110       ??$forward@AAVNxVec3@@@std@@YAAAVNxVec3@@AAV1@@Z 0042b110 f i ObjMesh.obj
 0001:0002a120       ??$forward@ABI@std@@YAABIABI@Z 0042b120 f i ObjMesh.obj
 0001:0002a130       ??$forward@ABUObjMeshMaterial@@@std@@YAABUObjMeshMaterial@@ABU1@@Z 0042b130 f i ObjMesh.obj
 0001:0002a140       ??$forward@ABUObjMeshTetraLink@@@std@@YAABUObjMeshTetraLink@@ABU1@@Z 0042b140 f i ObjMesh.obj
 0001:0002a150       ??$forward@ABUObjMeshTriangle@@@std@@YAABUObjMeshTriangle@@ABU1@@Z 0042b150 f i ObjMesh.obj
 0001:0002a160       ??$forward@ABUTexCoord@@@std@@YAABUTexCoord@@ABU1@@Z 0042b160 f i ObjMesh.obj
 0001:0002a170       ??$forward@ABVNxVec3@@@std@@YAABVNxVec3@@ABV1@@Z 0042b170 f i ObjMesh.obj
 0001:0002a180       ??$forward@UObjMeshTetraLink@@@std@@YA$$QAUObjMeshTetraLink@@AAU1@@Z 0042b180 f i ObjMesh.obj
 0001:0002a190       ??$forward@UTexCoord@@@std@@YA$$QAUTexCoord@@AAU1@@Z 0042b190 f i ObjMesh.obj
 0001:0002a1a0       ??$forward@VNxVec3@@@std@@YA$$QAVNxVec3@@AAV1@@Z 0042b1a0 f i ObjMesh.obj
 0001:0002a1b0       ??$move@AAUObjMeshTetraLink@@@std@@YA$$QAUObjMeshTetraLink@@AAU1@@Z 0042b1b0 f i ObjMesh.obj
 0001:0002a1c0       ??$move@AAUTexCoord@@@std@@YA$$QAUTexCoord@@AAU1@@Z 0042b1c0 f i ObjMesh.obj
 0001:0002a1d0       ??$move@AAVNxVec3@@@std@@YA$$QAVNxVec3@@AAV1@@Z 0042b1d0 f i ObjMesh.obj
 0001:0002a1e0       ??0<lambda_9f0cfb79a079f88b3dceef1f68a95df8>@@QAE@QAV?$vector@VNxVec3@@V?$allocator@VNxVec3@@@std@@@std@@@Z 0042b1e0 f i ObjMesh.obj
 0001:0002a200       ??0<lambda_ac46504d121956be4d19caa267422eef>@@QAE@QAV?$vector@IV?$allocator@I@std@@@std@@ABI@Z 0042b200 f i ObjMesh.obj
 0001:0002a230       ??0?$_Uninitialized_backout_al@PAIV?$allocator@I@std@@@std@@QAE@PAIAAV?$allocator@I@1@@Z 0042b230 f i ObjMesh.obj
 0001:0002a270       ??0?$_Uninitialized_backout_al@PAUObjMeshTetraLink@@V?$allocator@UObjMeshTetraLink@@@std@@@std@@QAE@PAUObjMeshTetraLink@@AAV?$allocator@UObjMeshTetraLink@@@1@@Z 0042b270 f i ObjMesh.obj
 0001:0002a2b0       ??0?$_Uninitialized_backout_al@PAUTexCoord@@V?$allocator@UTexCoord@@@std@@@std@@QAE@PAUTexCoord@@AAV?$allocator@UTexCoord@@@1@@Z 0042b2b0 f i ObjMesh.obj
 0001:0002a2f0       ??0?$_Uninitialized_backout_al@PAVNxVec3@@V?$allocator@VNxVec3@@@std@@@std@@QAE@PAVNxVec3@@AAV?$allocator@VNxVec3@@@1@@Z 0042b2f0 f i ObjMesh.obj
 0001:0002a330       ??0?$_Vb_const_iterator@U?$_Wrap_alloc@V?$allocator@I@std@@@std@@@std@@QAE@$$QAV01@@Z 0042b330 f i ObjMesh.obj
 0001:0002a360       ??0?$_Vb_const_iterator@U?$_Wrap_alloc@V?$allocator@I@std@@@std@@@std@@QAE@ABV01@@Z 0042b360 f i ObjMesh.obj
 0001:0002a390       ??0?$_Vb_const_iterator@U?$_Wrap_alloc@V?$allocator@I@std@@@std@@@std@@QAE@PBIPBU_Container_base12@1@@Z 0042b390 f i ObjMesh.obj
 0001:0002a3c0       ??0?$_Vb_iter_base@U?$_Wrap_alloc@V?$allocator@I@std@@@std@@@std@@QAE@$$QAV01@@Z 0042b3c0 f i ObjMesh.obj
 0001:0002a410       ??0?$_Vb_iter_base@U?$_Wrap_alloc@V?$allocator@I@std@@@std@@@std@@QAE@ABV01@@Z 0042b410 f i ObjMesh.obj
 0001:0002a460       ??0?$_Vb_iter_base@U?$_Wrap_alloc@V?$allocator@I@std@@@std@@@std@@QAE@PBIIPBU_Container_base12@1@@Z 0042b460 f i ObjMesh.obj
 0001:0002a4b0       ??0?$_Vb_iterator@U?$_Wrap_alloc@V?$allocator@I@std@@@std@@@std@@QAE@$$QAV01@@Z 0042b4b0 f i ObjMesh.obj
 0001:0002a4e0       ??0?$_Vb_iterator@U?$_Wrap_alloc@V?$allocator@I@std@@@std@@@std@@QAE@ABV01@@Z 0042b4e0 f i ObjMesh.obj
 0001:0002a510       ??0?$_Vb_iterator@U?$_Wrap_alloc@V?$allocator@I@std@@@std@@@std@@QAE@PAIPAU_Container_base12@1@@Z 0042b510 f i ObjMesh.obj
 0001:0002a540       ??0?$_Vb_reference@U?$_Wrap_alloc@V?$allocator@I@std@@@std@@@std@@QAE@ABV?$_Vb_iter_base@U?$_Wrap_alloc@V?$allocator@I@std@@@std@@@1@@Z 0042b540 f i ObjMesh.obj
 0001:0002a580       ??0?$_Vector_alloc@U?$_Vec_base_types@HV?$allocator@H@std@@@std@@@std@@QAE@XZ 0042b580 f i ObjMesh.obj
 0001:0002a5b0       ??0?$_Vector_alloc@U?$_Vec_base_types@UTexCoord@@V?$allocator@UTexCoord@@@std@@@std@@@std@@QAE@XZ 0042b5b0 f i ObjMesh.obj
 0001:0002a5e0       ??0?$_Vector_alloc@U?$_Vec_base_types@VNxVec3@@V?$allocator@VNxVec3@@@std@@@std@@@std@@QAE@XZ 0042b5e0 f i ObjMesh.obj
 0001:0002a610       ??0?$_Vector_val@U?$_Simple_types@H@std@@@std@@QAE@XZ 0042b610 f i ObjMesh.obj
 0001:0002a660       ??0?$_Vector_val@U?$_Simple_types@UTexCoord@@@std@@@std@@QAE@XZ 0042b660 f i ObjMesh.obj
 0001:0002a6b0       ??0?$_Vector_val@U?$_Simple_types@VNxVec3@@@std@@@std@@QAE@XZ 0042b6b0 f i ObjMesh.obj
 0001:0002a700       ??0?$allocator@H@std@@QAE@XZ 0042b700 f i ObjMesh.obj
 0001:0002a720       ??0?$allocator@UTexCoord@@@std@@QAE@XZ 0042b720 f i ObjMesh.obj
 0001:0002a740       ??0?$allocator@VNxVec3@@@std@@QAE@XZ 0042b740 f i ObjMesh.obj
 0001:0002a760       ??0?$vector@HV?$allocator@H@std@@@std@@QAE@XZ 0042b760 f i ObjMesh.obj
 0001:0002a7b0       ??0?$vector@UTexCoord@@V?$allocator@UTexCoord@@@std@@@std@@QAE@XZ 0042b7b0 f i ObjMesh.obj
 0001:0002a800       ??0?$vector@VNxVec3@@V?$allocator@VNxVec3@@@std@@@std@@QAE@XZ 0042b800 f i ObjMesh.obj
 0001:0002a850       ??0ObjMeshTetraLink@@QAE@$$QAU0@@Z 0042b850 f i ObjMesh.obj
 0001:0002a890       ??0ObjMeshTetraLink@@QAE@ABU0@@Z 0042b890 f i ObjMesh.obj
 0001:0002a8d0       ??0ObjMeshTetraLink@@QAE@XZ 0042b8d0 f i ObjMesh.obj
 0001:0002a8f0       ??0TexCoord@@QAE@XZ        0042b8f0 f i ObjMesh.obj
 0001:0002a910       ??0_Iterator_base12@std@@QAE@ABU01@@Z 0042b910 f i ObjMesh.obj
 0001:0002a950       ??0_Iterator_base12@std@@QAE@XZ 0042b950 f i ObjMesh.obj
 0001:0002a980       ??1?$_Uninitialized_backout_al@PAIV?$allocator@I@std@@@std@@QAE@XZ 0042b980 f i ObjMesh.obj
 0001:0002a9f0       ??1?$_Uninitialized_backout_al@PAUObjMeshTetraLink@@V?$allocator@UObjMeshTetraLink@@@std@@@std@@QAE@XZ 0042b9f0 f i ObjMesh.obj
 0001:0002aa60       ??1?$_Uninitialized_backout_al@PAUTexCoord@@V?$allocator@UTexCoord@@@std@@@std@@QAE@XZ 0042ba60 f i ObjMesh.obj
 0001:0002aad0       ??1?$_Uninitialized_backout_al@PAVNxVec3@@V?$allocator@VNxVec3@@@std@@@std@@QAE@XZ 0042bad0 f i ObjMesh.obj
 0001:0002ab40       ??1?$_Vb_const_iterator@U?$_Wrap_alloc@V?$allocator@I@std@@@std@@@std@@QAE@XZ 0042bb40 f i ObjMesh.obj
 0001:0002ab60       ??1?$_Vb_iter_base@U?$_Wrap_alloc@V?$allocator@I@std@@@std@@@std@@QAE@XZ 0042bb60 f i ObjMesh.obj
 0001:0002ab80       ??1?$_Vb_iterator@U?$_Wrap_alloc@V?$allocator@I@std@@@std@@@std@@QAE@XZ 0042bb80 f i ObjMesh.obj
 0001:0002aba0       ??1?$_Vb_reference@U?$_Wrap_alloc@V?$allocator@I@std@@@std@@@std@@QAE@XZ 0042bba0 f i ObjMesh.obj
 0001:0002abc0       ??1?$_Vector_alloc@U?$_Vec_base_types@HV?$allocator@H@std@@@std@@@std@@QAE@XZ 0042bbc0 f i ObjMesh.obj
 0001:0002ac10       ??1?$_Vector_alloc@U?$_Vec_base_types@UTexCoord@@V?$allocator@UTexCoord@@@std@@@std@@@std@@QAE@XZ 0042bc10 f i ObjMesh.obj
 0001:0002ac60       ??1?$_Vector_alloc@U?$_Vec_base_types@VNxVec3@@V?$allocator@VNxVec3@@@std@@@std@@@std@@QAE@XZ 0042bc60 f i ObjMesh.obj
 0001:0002acb0       ??1?$vector@HV?$allocator@H@std@@@std@@QAE@XZ 0042bcb0 f i ObjMesh.obj
 0001:0002ad10       ??1?$vector@UTexCoord@@V?$allocator@UTexCoord@@@std@@@std@@QAE@XZ 0042bd10 f i ObjMesh.obj
 0001:0002ad70       ??1?$vector@VNxVec3@@V?$allocator@VNxVec3@@@std@@@std@@QAE@XZ 0042bd70 f i ObjMesh.obj
 0001:0002add0       ??1_Iterator_base12@std@@QAE@XZ 0042bdd0 f i ObjMesh.obj
 0001:0002ae40       ??4?$_Vb_const_iterator@U?$_Wrap_alloc@V?$allocator@I@std@@@std@@@std@@QAEAAV01@ABV01@@Z 0042be40 f i ObjMesh.obj
 0001:0002ae70       ??4?$_Vb_iter_base@U?$_Wrap_alloc@V?$allocator@I@std@@@std@@@std@@QAEAAV01@ABV01@@Z 0042be70 f i ObjMesh.obj
 0001:0002aec0       ??4?$_Vb_iterator@U?$_Wrap_alloc@V?$allocator@I@std@@@std@@@std@@QAEAAV01@ABV01@@Z 0042bec0 f i ObjMesh.obj
 0001:0002aef0       ??4?$_Vb_reference@U?$_Wrap_alloc@V?$allocator@I@std@@@std@@@std@@QAEAAV01@ABV01@@Z 0042bef0 f i ObjMesh.obj
 0001:0002af20       ??4?$_Vb_reference@U?$_Wrap_alloc@V?$allocator@I@std@@@std@@@std@@QAEAAV01@_N@Z 0042bf20 f i ObjMesh.obj
 0001:0002afd0       ??4_Iterator_base12@std@@QAEAAU01@ABU01@@Z 0042bfd0 f i ObjMesh.obj
 0001:0002b070       ??8?$_Vb_const_iterator@U?$_Wrap_alloc@V?$allocator@I@std@@@std@@@std@@QBE_NABV01@@Z 0042c070 f i ObjMesh.obj
 0001:0002b0d0       ??9?$_Vb_const_iterator@U?$_Wrap_alloc@V?$allocator@I@std@@@std@@@std@@QBE_NABV01@@Z 0042c0d0 f i ObjMesh.obj
 0001:0002b120       ??A?$vector@UObjMeshMaterial@@V?$allocator@UObjMeshMaterial@@@std@@@std@@QAEAAUObjMeshMaterial@@I@Z 0042c120 f i ObjMesh.obj
 0001:0002b1c0       ??A?$vector@UObjMeshMaterial@@V?$allocator@UObjMeshMaterial@@@std@@@std@@QBEABUObjMeshMaterial@@I@Z 0042c1c0 f i ObjMesh.obj
 0001:0002b260       ??A?$vector@UObjMeshTetraLink@@V?$allocator@UObjMeshTetraLink@@@std@@@std@@QAEAAUObjMeshTetraLink@@I@Z 0042c260 f i ObjMesh.obj
 0001:0002b300       ??A?$vector@UObjMeshTriangle@@V?$allocator@UObjMeshTriangle@@@std@@@std@@QAEAAUObjMeshTriangle@@I@Z 0042c300 f i ObjMesh.obj
 0001:0002b3a0       ??A?$vector@UObjMeshTriangle@@V?$allocator@UObjMeshTriangle@@@std@@@std@@QBEABUObjMeshTriangle@@I@Z 0042c3a0 f i ObjMesh.obj
 0001:0002b440       ??A?$vector@UTexCoord@@V?$allocator@UTexCoord@@@std@@@std@@QAEAAUTexCoord@@I@Z 0042c440 f i ObjMesh.obj
 0001:0002b4e0       ??A?$vector@UTexCoord@@V?$allocator@UTexCoord@@@std@@@std@@QBEABUTexCoord@@I@Z 0042c4e0 f i ObjMesh.obj
 0001:0002b580       ??A?$vector@VNxVec3@@V?$allocator@VNxVec3@@@std@@@std@@QAEAAVNxVec3@@I@Z 0042c580 f i ObjMesh.obj
 0001:0002b620       ??A?$vector@VNxVec3@@V?$allocator@VNxVec3@@@std@@@std@@QBEABVNxVec3@@I@Z 0042c620 f i ObjMesh.obj
 0001:0002b6c0       ??A?$vector@_NV?$allocator@_N@std@@@std@@QAE?AV?$_Vb_reference@U?$_Wrap_alloc@V?$allocator@I@std@@@std@@@1@I@Z 0042c6c0 f i ObjMesh.obj
 0001:0002b770       ??B?$_Vb_reference@U?$_Wrap_alloc@V?$allocator@I@std@@@std@@@std@@QBE_NXZ 0042c770 f i ObjMesh.obj
 0001:0002b7f0       ??D?$_Vb_iterator@U?$_Wrap_alloc@V?$allocator@I@std@@@std@@@std@@QBE?AV?$_Vb_reference@U?$_Wrap_alloc@V?$allocator@I@std@@@std@@@1@XZ 0042c7f0 f i ObjMesh.obj
 0001:0002b830       ??DNxMat34@@QBE?AVNxVec3@@ABV1@@Z 0042c830 f i ObjMesh.obj
 0001:0002b880       ??E?$_Vb_const_iterator@U?$_Wrap_alloc@V?$allocator@I@std@@@std@@@std@@QAEAAV01@XZ 0042c880 f i ObjMesh.obj
 0001:0002b8a0       ??E?$_Vb_iterator@U?$_Wrap_alloc@V?$allocator@I@std@@@std@@@std@@QAEAAV01@XZ 0042c8a0 f i ObjMesh.obj
 0001:0002b8c0       ??F?$_Vb_const_iterator@U?$_Wrap_alloc@V?$allocator@I@std@@@std@@@std@@QAEAAV01@XZ 0042c8c0 f i ObjMesh.obj
 0001:0002b8e0       ??F?$_Vb_iterator@U?$_Wrap_alloc@V?$allocator@I@std@@@std@@@std@@QAEAAV01@XZ 0042c8e0 f i ObjMesh.obj
 0001:0002b900       ??G?$_Vb_const_iterator@U?$_Wrap_alloc@V?$allocator@I@std@@@std@@@std@@QBEHABV01@@Z 0042c900 f i ObjMesh.obj
 0001:0002b950       ??G?$_Vb_iterator@U?$_Wrap_alloc@V?$allocator@I@std@@@std@@@std@@QBEHABV?$_Vb_const_iterator@U?$_Wrap_alloc@V?$allocator@I@std@@@std@@@1@@Z 0042c950 f i ObjMesh.obj
 0001:0002b970       ??H?$_Vb_iterator@U?$_Wrap_alloc@V?$allocator@I@std@@@std@@@std@@QBE?AV01@H@Z 0042c970 f i ObjMesh.obj
 0001:0002ba20       ??M?$_Vb_const_iterator@U?$_Wrap_alloc@V?$allocator@I@std@@@std@@@std@@QBE_NABV01@@Z 0042ca20 f i ObjMesh.obj
 0001:0002ba90       ??N?$_Vb_const_iterator@U?$_Wrap_alloc@V?$allocator@I@std@@@std@@@std@@QBE_NABV01@@Z 0042ca90 f i ObjMesh.obj
 0001:0002bae0       ??P?$_Vb_const_iterator@U?$_Wrap_alloc@V?$allocator@I@std@@@std@@@std@@QBE_NABV01@@Z 0042cae0 f i ObjMesh.obj
 0001:0002bb30       ??R<lambda_9f0cfb79a079f88b3dceef1f68a95df8>@@QBEPAVNxVec3@@PAV1@I@Z 0042cb30 f i ObjMesh.obj
 0001:0002bb60       ??R<lambda_ac46504d121956be4d19caa267422eef>@@QBEPAIPAII@Z 0042cb60 f i ObjMesh.obj
 0001:0002bb90       ??Y?$_Vb_const_iterator@U?$_Wrap_alloc@V?$allocator@I@std@@@std@@@std@@QAEAAV01@H@Z 0042cb90 f i ObjMesh.obj
 0001:0002bc60       ??Y?$_Vb_iterator@U?$_Wrap_alloc@V?$allocator@I@std@@@std@@@std@@QAEAAV01@H@Z 0042cc60 f i ObjMesh.obj
 0001:0002bc90       ??YTexCoord@@QAEXABU0@@Z   0042cc90 f i ObjMesh.obj
 0001:0002bce0       ??_0TexCoord@@QAEXM@Z      0042cce0 f i ObjMesh.obj
 0001:0002bd30       ??_GMeshHash@@QAEPAXI@Z    0042cd30 f i ObjMesh.obj
 0001:0002bd70       ?_Adopt@_Iterator_base12@std@@QAEXPBU_Container_base12@2@@Z 0042cd70 f i ObjMesh.obj
 0001:0002be40       ?_Advance@?$_Vb_iter_base@U?$_Wrap_alloc@V?$allocator@I@std@@@std@@@std@@QAEXI@Z 0042ce40 f i ObjMesh.obj
 0001:0002bea0       ?_Alloc_proxy@?$_Vector_alloc@U?$_Vec_base_types@HV?$allocator@H@std@@@std@@@std@@QAEXXZ 0042cea0 f i ObjMesh.obj
 0001:0002bf40       ?_Alloc_proxy@?$_Vector_alloc@U?$_Vec_base_types@UTexCoord@@V?$allocator@UTexCoord@@@std@@@std@@@std@@QAEXXZ 0042cf40 f i ObjMesh.obj
 0001:0002bfe0       ?_Alloc_proxy@?$_Vector_alloc@U?$_Vec_base_types@VNxVec3@@V?$allocator@VNxVec3@@@std@@@std@@@std@@QAEXXZ 0042cfe0 f i ObjMesh.obj
 0001:0002c080       ?_Calculate_growth@?$vector@IV?$allocator@I@std@@@std@@ABEII@Z 0042d080 f i ObjMesh.obj
 0001:0002c0f0       ?_Calculate_growth@?$vector@UObjMeshMaterial@@V?$allocator@UObjMeshMaterial@@@std@@@std@@ABEII@Z 0042d0f0 f i ObjMesh.obj
 0001:0002c160       ?_Calculate_growth@?$vector@UObjMeshTetraLink@@V?$allocator@UObjMeshTetraLink@@@std@@@std@@ABEII@Z 0042d160 f i ObjMesh.obj
 0001:0002c1d0       ?_Calculate_growth@?$vector@UObjMeshTriangle@@V?$allocator@UObjMeshTriangle@@@std@@@std@@ABEII@Z 0042d1d0 f i ObjMesh.obj
 0001:0002c240       ?_Calculate_growth@?$vector@UTexCoord@@V?$allocator@UTexCoord@@@std@@@std@@ABEII@Z 0042d240 f i ObjMesh.obj
 0001:0002c2b0       ?_Calculate_growth@?$vector@VNxVec3@@V?$allocator@VNxVec3@@@std@@@std@@ABEII@Z 0042d2b0 f i ObjMesh.obj
 0001:0002c320       ?_Change_array@?$vector@IV?$allocator@I@std@@@std@@AAEXQAIII@Z 0042d320 f i ObjMesh.obj
 0001:0002c3e0       ?_Change_array@?$vector@UObjMeshMaterial@@V?$allocator@UObjMeshMaterial@@@std@@@std@@AAEXQAUObjMeshMaterial@@II@Z 0042d3e0 f i ObjMesh.obj
 0001:0002c4a0       ?_Change_array@?$vector@UObjMeshTetraLink@@V?$allocator@UObjMeshTetraLink@@@std@@@std@@AAEXQAUObjMeshTetraLink@@II@Z 0042d4a0 f i ObjMesh.obj
 0001:0002c560       ?_Change_array@?$vector@UObjMeshTriangle@@V?$allocator@UObjMeshTriangle@@@std@@@std@@AAEXQAUObjMeshTriangle@@II@Z 0042d560 f i ObjMesh.obj
 0001:0002c620       ?_Change_array@?$vector@UTexCoord@@V?$allocator@UTexCoord@@@std@@@std@@AAEXQAUTexCoord@@II@Z 0042d620 f i ObjMesh.obj
 0001:0002c6e0       ?_Change_array@?$vector@VNxVec3@@V?$allocator@VNxVec3@@@std@@@std@@AAEXQAVNxVec3@@II@Z 0042d6e0 f i ObjMesh.obj
 0001:0002c7a0       ?_Compat@?$_Vb_const_iterator@U?$_Wrap_alloc@V?$allocator@I@std@@@std@@@std@@QBEXABV12@@Z 0042d7a0 f i ObjMesh.obj
 0001:0002c830       ?_Dec@?$_Vb_const_iterator@U?$_Wrap_alloc@V?$allocator@I@std@@@std@@@std@@QAEXXZ 0042d830 f i ObjMesh.obj
 0001:0002c970       ?_Destroy@?$vector@IV?$allocator@I@std@@@std@@AAEXPAI0@Z 0042d970 f i ObjMesh.obj
 0001:0002c9a0       ?_Destroy@?$vector@UObjMeshMaterial@@V?$allocator@UObjMeshMaterial@@@std@@@std@@AAEXPAUObjMeshMaterial@@0@Z 0042d9a0 f i ObjMesh.obj
 0001:0002c9d0       ?_Destroy@?$vector@UObjMeshTetraLink@@V?$allocator@UObjMeshTetraLink@@@std@@@std@@AAEXPAUObjMeshTetraLink@@0@Z 0042d9d0 f i ObjMesh.obj
 0001:0002ca00       ?_Destroy@?$vector@UObjMeshTriangle@@V?$allocator@UObjMeshTriangle@@@std@@@std@@AAEXPAUObjMeshTriangle@@0@Z 0042da00 f i ObjMesh.obj
 0001:0002ca30       ?_Destroy@?$vector@UTexCoord@@V?$allocator@UTexCoord@@@std@@@std@@AAEXPAUTexCoord@@0@Z 0042da30 f i ObjMesh.obj
 0001:0002ca60       ?_Destroy@?$vector@VNxVec3@@V?$allocator@VNxVec3@@@std@@@std@@AAEXPAVNxVec3@@0@Z 0042da60 f i ObjMesh.obj
 0001:0002ca90       ?_Free_proxy@?$_Vector_alloc@U?$_Vec_base_types@HV?$allocator@H@std@@@std@@@std@@QAEXXZ 0042da90 f i ObjMesh.obj
 0001:0002cb10       ?_Free_proxy@?$_Vector_alloc@U?$_Vec_base_types@UTexCoord@@V?$allocator@UTexCoord@@@std@@@std@@@std@@QAEXXZ 0042db10 f i ObjMesh.obj
 0001:0002cb90       ?_Free_proxy@?$_Vector_alloc@U?$_Vec_base_types@VNxVec3@@V?$allocator@VNxVec3@@@std@@@std@@@std@@QAEXXZ 0042db90 f i ObjMesh.obj
 0001:0002cc10       ?_Get_data@?$_Vector_alloc@U?$_Vec_base_types@IV?$allocator@I@std@@@std@@@std@@QAEAAV?$_Vector_val@U?$_Simple_types@I@std@@@2@XZ 0042dc10 f i ObjMesh.obj
 0001:0002cc30       ?_Get_data@?$_Vector_alloc@U?$_Vec_base_types@IV?$allocator@I@std@@@std@@@std@@QBEABV?$_Vector_val@U?$_Simple_types@I@std@@@2@XZ 0042dc30 f i ObjMesh.obj
 0001:0002cc50       ?_Get_data@?$_Vector_alloc@U?$_Vec_base_types@UObjMeshMaterial@@V?$allocator@UObjMeshMaterial@@@std@@@std@@@std@@QAEAAV?$_Vector_val@U?$_Simple_types@UObjMeshMaterial@@@std@@@2@XZ 0042dc50 f i ObjMesh.obj
 0001:0002cc70       ?_Get_data@?$_Vector_alloc@U?$_Vec_base_types@UObjMeshMaterial@@V?$allocator@UObjMeshMaterial@@@std@@@std@@@std@@QBEABV?$_Vector_val@U?$_Simple_types@UObjMeshMaterial@@@std@@@2@XZ 0042dc70 f i ObjMesh.obj
 0001:0002cc90       ?_Get_data@?$_Vector_alloc@U?$_Vec_base_types@UObjMeshTetraLink@@V?$allocator@UObjMeshTetraLink@@@std@@@std@@@std@@QAEAAV?$_Vector_val@U?$_Simple_types@UObjMeshTetraLink@@@std@@@2@XZ 0042dc90 f i ObjMesh.obj
 0001:0002ccb0       ?_Get_data@?$_Vector_alloc@U?$_Vec_base_types@UObjMeshTetraLink@@V?$allocator@UObjMeshTetraLink@@@std@@@std@@@std@@QBEABV?$_Vector_val@U?$_Simple_types@UObjMeshTetraLink@@@std@@@2@XZ 0042dcb0 f i ObjMesh.obj
 0001:0002ccd0       ?_Get_data@?$_Vector_alloc@U?$_Vec_base_types@UObjMeshTriangle@@V?$allocator@UObjMeshTriangle@@@std@@@std@@@std@@QAEAAV?$_Vector_val@U?$_Simple_types@UObjMeshTriangle@@@std@@@2@XZ 0042dcd0 f i ObjMesh.obj
 0001:0002ccf0       ?_Get_data@?$_Vector_alloc@U?$_Vec_base_types@UObjMeshTriangle@@V?$allocator@UObjMeshTriangle@@@std@@@std@@@std@@QBEABV?$_Vector_val@U?$_Simple_types@UObjMeshTriangle@@@std@@@2@XZ 0042dcf0 f i ObjMesh.obj
 0001:0002cd10       ?_Get_data@?$_Vector_alloc@U?$_Vec_base_types@UTexCoord@@V?$allocator@UTexCoord@@@std@@@std@@@std@@QAEAAV?$_Vector_val@U?$_Simple_types@UTexCoord@@@std@@@2@XZ 0042dd10 f i ObjMesh.obj
 0001:0002cd30       ?_Get_data@?$_Vector_alloc@U?$_Vec_base_types@UTexCoord@@V?$allocator@UTexCoord@@@std@@@std@@@std@@QBEABV?$_Vector_val@U?$_Simple_types@UTexCoord@@@std@@@2@XZ 0042dd30 f i ObjMesh.obj
 0001:0002cd50       ?_Get_data@?$_Vector_alloc@U?$_Vec_base_types@VNxVec3@@V?$allocator@VNxVec3@@@std@@@std@@@std@@QAEAAV?$_Vector_val@U?$_Simple_types@VNxVec3@@@std@@@2@XZ 0042dd50 f i ObjMesh.obj
 0001:0002cd70       ?_Get_data@?$_Vector_alloc@U?$_Vec_base_types@VNxVec3@@V?$allocator@VNxVec3@@@std@@@std@@@std@@QBEABV?$_Vector_val@U?$_Simple_types@VNxVec3@@@std@@@2@XZ 0042dd70 f i ObjMesh.obj
 0001:0002cd90       ?_Get_first@?$_Compressed_pair@V?$allocator@I@std@@V?$_Vector_val@U?$_Simple_types@I@std@@@2@$00@std@@QAEAAV?$allocator@I@2@XZ 0042dd90 f i ObjMesh.obj
 0001:0002cdb0       ?_Get_first@?$_Compressed_pair@V?$allocator@I@std@@V?$_Vector_val@U?$_Simple_types@I@std@@@2@$00@std@@QBEABV?$allocator@I@2@XZ 0042ddb0 f i ObjMesh.obj
 0001:0002cdd0       ?_Get_first@?$_Compressed_pair@V?$allocator@UObjMeshMaterial@@@std@@V?$_Vector_val@U?$_Simple_types@UObjMeshMaterial@@@std@@@2@$00@std@@QAEAAV?$allocator@UObjMeshMaterial@@@2@XZ 0042ddd0 f i ObjMesh.obj
 0001:0002cdf0       ?_Get_first@?$_Compressed_pair@V?$allocator@UObjMeshMaterial@@@std@@V?$_Vector_val@U?$_Simple_types@UObjMeshMaterial@@@std@@@2@$00@std@@QBEABV?$allocator@UObjMeshMaterial@@@2@XZ 0042ddf0 f i ObjMesh.obj
 0001:0002ce10       ?_Get_first@?$_Compressed_pair@V?$allocator@UObjMeshTetraLink@@@std@@V?$_Vector_val@U?$_Simple_types@UObjMeshTetraLink@@@std@@@2@$00@std@@QAEAAV?$allocator@UObjMeshTetraLink@@@2@XZ 0042de10 f i ObjMesh.obj
 0001:0002ce30       ?_Get_first@?$_Compressed_pair@V?$allocator@UObjMeshTetraLink@@@std@@V?$_Vector_val@U?$_Simple_types@UObjMeshTetraLink@@@std@@@2@$00@std@@QBEABV?$allocator@UObjMeshTetraLink@@@2@XZ 0042de30 f i ObjMesh.obj
 0001:0002ce50       ?_Get_first@?$_Compressed_pair@V?$allocator@UObjMeshTriangle@@@std@@V?$_Vector_val@U?$_Simple_types@UObjMeshTriangle@@@std@@@2@$00@std@@QAEAAV?$allocator@UObjMeshTriangle@@@2@XZ 0042de50 f i ObjMesh.obj
 0001:0002ce70       ?_Get_first@?$_Compressed_pair@V?$allocator@UObjMeshTriangle@@@std@@V?$_Vector_val@U?$_Simple_types@UObjMeshTriangle@@@std@@@2@$00@std@@QBEABV?$allocator@UObjMeshTriangle@@@2@XZ 0042de70 f i ObjMesh.obj
 0001:0002ce90       ?_Get_first@?$_Compressed_pair@V?$allocator@UTexCoord@@@std@@V?$_Vector_val@U?$_Simple_types@UTexCoord@@@std@@@2@$00@std@@QAEAAV?$allocator@UTexCoord@@@2@XZ 0042de90 f i ObjMesh.obj
 0001:0002ceb0       ?_Get_first@?$_Compressed_pair@V?$allocator@UTexCoord@@@std@@V?$_Vector_val@U?$_Simple_types@UTexCoord@@@std@@@2@$00@std@@QBEABV?$allocator@UTexCoord@@@2@XZ 0042deb0 f i ObjMesh.obj
 0001:0002ced0       ?_Get_first@?$_Compressed_pair@V?$allocator@VNxVec3@@@std@@V?$_Vector_val@U?$_Simple_types@VNxVec3@@@std@@@2@$00@std@@QAEAAV?$allocator@VNxVec3@@@2@XZ 0042ded0 f i ObjMesh.obj
 0001:0002cef0       ?_Get_first@?$_Compressed_pair@V?$allocator@VNxVec3@@@std@@V?$_Vector_val@U?$_Simple_types@VNxVec3@@@std@@@2@$00@std@@QBEABV?$allocator@VNxVec3@@@2@XZ 0042def0 f i ObjMesh.obj
 0001:0002cf10       ?_Get_second@?$_Compressed_pair@V?$allocator@I@std@@V?$_Vector_val@U?$_Simple_types@I@std@@@2@$00@std@@QAEAAV?$_Vector_val@U?$_Simple_types@I@std@@@2@XZ 0042df10 f i ObjMesh.obj
 0001:0002cf30       ?_Get_second@?$_Compressed_pair@V?$allocator@I@std@@V?$_Vector_val@U?$_Simple_types@I@std@@@2@$00@std@@QBEABV?$_Vector_val@U?$_Simple_types@I@std@@@2@XZ 0042df30 f i ObjMesh.obj
 0001:0002cf50       ?_Get_second@?$_Compressed_pair@V?$allocator@UObjMeshMaterial@@@std@@V?$_Vector_val@U?$_Simple_types@UObjMeshMaterial@@@std@@@2@$00@std@@QAEAAV?$_Vector_val@U?$_Simple_types@UObjMeshMaterial@@@std@@@2@XZ 0042df50 f i ObjMesh.obj
 0001:0002cf70       ?_Get_second@?$_Compressed_pair@V?$allocator@UObjMeshMaterial@@@std@@V?$_Vector_val@U?$_Simple_types@UObjMeshMaterial@@@std@@@2@$00@std@@QBEABV?$_Vector_val@U?$_Simple_types@UObjMeshMaterial@@@std@@@2@XZ 0042df70 f i ObjMesh.obj
 0001:0002cf90       ?_Get_second@?$_Compressed_pair@V?$allocator@UObjMeshTetraLink@@@std@@V?$_Vector_val@U?$_Simple_types@UObjMeshTetraLink@@@std@@@2@$00@std@@QAEAAV?$_Vector_val@U?$_Simple_types@UObjMeshTetraLink@@@std@@@2@XZ 0042df90 f i ObjMesh.obj
 0001:0002cfb0       ?_Get_second@?$_Compressed_pair@V?$allocator@UObjMeshTetraLink@@@std@@V?$_Vector_val@U?$_Simple_types@UObjMeshTetraLink@@@std@@@2@$00@std@@QBEABV?$_Vector_val@U?$_Simple_types@UObjMeshTetraLink@@@std@@@2@XZ 0042dfb0 f i ObjMesh.obj
 0001:0002cfd0       ?_Get_second@?$_Compressed_pair@V?$allocator@UObjMeshTriangle@@@std@@V?$_Vector_val@U?$_Simple_types@UObjMeshTriangle@@@std@@@2@$00@std@@QAEAAV?$_Vector_val@U?$_Simple_types@UObjMeshTriangle@@@std@@@2@XZ 0042dfd0 f i ObjMesh.obj
 0001:0002cff0       ?_Get_second@?$_Compressed_pair@V?$allocator@UObjMeshTriangle@@@std@@V?$_Vector_val@U?$_Simple_types@UObjMeshTriangle@@@std@@@2@$00@std@@QBEABV?$_Vector_val@U?$_Simple_types@UObjMeshTriangle@@@std@@@2@XZ 0042dff0 f i ObjMesh.obj
 0001:0002d010       ?_Get_second@?$_Compressed_pair@V?$allocator@UTexCoord@@@std@@V?$_Vector_val@U?$_Simple_types@UTexCoord@@@std@@@2@$00@std@@QAEAAV?$_Vector_val@U?$_Simple_types@UTexCoord@@@std@@@2@XZ 0042e010 f i ObjMesh.obj
 0001:0002d030       ?_Get_second@?$_Compressed_pair@V?$allocator@UTexCoord@@@std@@V?$_Vector_val@U?$_Simple_types@UTexCoord@@@std@@@2@$00@std@@QBEABV?$_Vector_val@U?$_Simple_types@UTexCoord@@@std@@@2@XZ 0042e030 f i ObjMesh.obj
 0001:0002d050       ?_Get_second@?$_Compressed_pair@V?$allocator@VNxVec3@@@std@@V?$_Vector_val@U?$_Simple_types@VNxVec3@@@std@@@2@$00@std@@QAEAAV?$_Vector_val@U?$_Simple_types@VNxVec3@@@std@@@2@XZ 0042e050 f i ObjMesh.obj
 0001:0002d070       ?_Get_second@?$_Compressed_pair@V?$allocator@VNxVec3@@@std@@V?$_Vector_val@U?$_Simple_types@VNxVec3@@@std@@@2@$00@std@@QBEABV?$_Vector_val@U?$_Simple_types@VNxVec3@@@std@@@2@XZ 0042e070 f i ObjMesh.obj
 0001:0002d090       ?_Getal@?$_Vector_alloc@U?$_Vec_base_types@IV?$allocator@I@std@@@std@@@std@@QAEAAV?$allocator@I@2@XZ 0042e090 f i ObjMesh.obj
 0001:0002d0b0       ?_Getal@?$_Vector_alloc@U?$_Vec_base_types@IV?$allocator@I@std@@@std@@@std@@QBEABV?$allocator@I@2@XZ 0042e0b0 f i ObjMesh.obj
 0001:0002d0d0       ?_Getal@?$_Vector_alloc@U?$_Vec_base_types@UObjMeshMaterial@@V?$allocator@UObjMeshMaterial@@@std@@@std@@@std@@QAEAAV?$allocator@UObjMeshMaterial@@@2@XZ 0042e0d0 f i ObjMesh.obj
 0001:0002d0f0       ?_Getal@?$_Vector_alloc@U?$_Vec_base_types@UObjMeshMaterial@@V?$allocator@UObjMeshMaterial@@@std@@@std@@@std@@QBEABV?$allocator@UObjMeshMaterial@@@2@XZ 0042e0f0 f i ObjMesh.obj
 0001:0002d110       ?_Getal@?$_Vector_alloc@U?$_Vec_base_types@UObjMeshTetraLink@@V?$allocator@UObjMeshTetraLink@@@std@@@std@@@std@@QAEAAV?$allocator@UObjMeshTetraLink@@@2@XZ 0042e110 f i ObjMesh.obj
 0001:0002d130       ?_Getal@?$_Vector_alloc@U?$_Vec_base_types@UObjMeshTetraLink@@V?$allocator@UObjMeshTetraLink@@@std@@@std@@@std@@QBEABV?$allocator@UObjMeshTetraLink@@@2@XZ 0042e130 f i ObjMesh.obj
 0001:0002d150       ?_Getal@?$_Vector_alloc@U?$_Vec_base_types@UObjMeshTriangle@@V?$allocator@UObjMeshTriangle@@@std@@@std@@@std@@QAEAAV?$allocator@UObjMeshTriangle@@@2@XZ 0042e150 f i ObjMesh.obj
 0001:0002d170       ?_Getal@?$_Vector_alloc@U?$_Vec_base_types@UObjMeshTriangle@@V?$allocator@UObjMeshTriangle@@@std@@@std@@@std@@QBEABV?$allocator@UObjMeshTriangle@@@2@XZ 0042e170 f i ObjMesh.obj
 0001:0002d190       ?_Getal@?$_Vector_alloc@U?$_Vec_base_types@UTexCoord@@V?$allocator@UTexCoord@@@std@@@std@@@std@@QAEAAV?$allocator@UTexCoord@@@2@XZ 0042e190 f i ObjMesh.obj
 0001:0002d1b0       ?_Getal@?$_Vector_alloc@U?$_Vec_base_types@UTexCoord@@V?$allocator@UTexCoord@@@std@@@std@@@std@@QBEABV?$allocator@UTexCoord@@@2@XZ 0042e1b0 f i ObjMesh.obj
 0001:0002d1d0       ?_Getal@?$_Vector_alloc@U?$_Vec_base_types@VNxVec3@@V?$allocator@VNxVec3@@@std@@@std@@@std@@QAEAAV?$allocator@VNxVec3@@@2@XZ 0042e1d0 f i ObjMesh.obj
 0001:0002d1f0       ?_Getal@?$_Vector_alloc@U?$_Vec_base_types@VNxVec3@@V?$allocator@VNxVec3@@@std@@@std@@@std@@QBEABV?$allocator@VNxVec3@@@2@XZ 0042e1f0 f i ObjMesh.obj
 0001:0002d210       ?_Getcont@_Iterator_base12@std@@QBEPBU_Container_base12@2@XZ 0042e210 f i ObjMesh.obj
 0001:0002d250       ?_Getpfirst@?$_Vector_alloc@U?$_Vec_base_types@IV?$allocator@I@std@@@std@@@std@@QBEPAPAU_Iterator_base12@2@XZ 0042e250 f i ObjMesh.obj
 0001:0002d270       ?_Getpfirst@?$_Vector_alloc@U?$_Vec_base_types@UObjMeshMaterial@@V?$allocator@UObjMeshMaterial@@@std@@@std@@@std@@QBEPAPAU_Iterator_base12@2@XZ 0042e270 f i ObjMesh.obj
 0001:0002d290       ?_Getpfirst@?$_Vector_alloc@U?$_Vec_base_types@UObjMeshTetraLink@@V?$allocator@UObjMeshTetraLink@@@std@@@std@@@std@@QBEPAPAU_Iterator_base12@2@XZ 0042e290 f i ObjMesh.obj
 0001:0002d2b0       ?_Getpfirst@?$_Vector_alloc@U?$_Vec_base_types@UObjMeshTriangle@@V?$allocator@UObjMeshTriangle@@@std@@@std@@@std@@QBEPAPAU_Iterator_base12@2@XZ 0042e2b0 f i ObjMesh.obj
 0001:0002d2d0       ?_Getpfirst@?$_Vector_alloc@U?$_Vec_base_types@UTexCoord@@V?$allocator@UTexCoord@@@std@@@std@@@std@@QBEPAPAU_Iterator_base12@2@XZ 0042e2d0 f i ObjMesh.obj
 0001:0002d2f0       ?_Getpfirst@?$_Vector_alloc@U?$_Vec_base_types@VNxVec3@@V?$allocator@VNxVec3@@@std@@@std@@@std@@QBEPAPAU_Iterator_base12@2@XZ 0042e2f0 f i ObjMesh.obj
 0001:0002d310       ?_Getptr@?$_Vb_reference@U?$_Wrap_alloc@V?$allocator@I@std@@@std@@@std@@QBEPBIXZ 0042e310 f i ObjMesh.obj
 0001:0002d3c0       ?_Has_unused_capacity@?$vector@UObjMeshMaterial@@V?$allocator@UObjMeshMaterial@@@std@@@std@@ABE_NXZ 0042e3c0 f i ObjMesh.obj
 0001:0002d410       ?_Has_unused_capacity@?$vector@UObjMeshTetraLink@@V?$allocator@UObjMeshTetraLink@@@std@@@std@@ABE_NXZ 0042e410 f i ObjMesh.obj
 0001:0002d460       ?_Has_unused_capacity@?$vector@UObjMeshTriangle@@V?$allocator@UObjMeshTriangle@@@std@@@std@@ABE_NXZ 0042e460 f i ObjMesh.obj
 0001:0002d4b0       ?_Has_unused_capacity@?$vector@UTexCoord@@V?$allocator@UTexCoord@@@std@@@std@@ABE_NXZ 0042e4b0 f i ObjMesh.obj
 0001:0002d500       ?_Has_unused_capacity@?$vector@VNxVec3@@V?$allocator@VNxVec3@@@std@@@std@@ABE_NXZ 0042e500 f i ObjMesh.obj
 0001:0002d550       ?_Inc@?$_Vb_const_iterator@U?$_Wrap_alloc@V?$allocator@I@std@@@std@@@std@@QAEXXZ 0042e550 f i ObjMesh.obj
 0001:0002d690       ?_Insert_n@?$vector@_NV?$allocator@_N@std@@@std@@QAE?AV?$_Vb_iterator@U?$_Wrap_alloc@V?$allocator@I@std@@@std@@@2@V?$_Vb_const_iterator@U?$_Wrap_alloc@V?$allocator@I@std@@@std@@@2@IAB_N@Z 0042e690 f i ObjMesh.obj
 0001:0002d7e0       ?_Insert_x@?$vector@_NV?$allocator@_N@std@@@std@@QAEIV?$_Vb_const_iterator@U?$_Wrap_alloc@V?$allocator@I@std@@@std@@@2@I@Z 0042e7e0 f i ObjMesh.obj
 0001:0002db40       ?_Mask@?$_Vb_reference@U?$_Wrap_alloc@V?$allocator@I@std@@@std@@@std@@IBEIXZ 0042eb40 f i ObjMesh.obj
 0001:0002db60       ?_Myend@?$_Vector_alloc@U?$_Vec_base_types@IV?$allocator@I@std@@@std@@@std@@QAEAAPAIXZ 0042eb60 f i ObjMesh.obj
 0001:0002db80       ?_Myend@?$_Vector_alloc@U?$_Vec_base_types@IV?$allocator@I@std@@@std@@@std@@QBEABQAIXZ 0042eb80 f i ObjMesh.obj
 0001:0002dba0       ?_Myend@?$_Vector_alloc@U?$_Vec_base_types@UObjMeshMaterial@@V?$allocator@UObjMeshMaterial@@@std@@@std@@@std@@QAEAAPAUObjMeshMaterial@@XZ 0042eba0 f i ObjMesh.obj
 0001:0002dbc0       ?_Myend@?$_Vector_alloc@U?$_Vec_base_types@UObjMeshMaterial@@V?$allocator@UObjMeshMaterial@@@std@@@std@@@std@@QBEABQAUObjMeshMaterial@@XZ 0042ebc0 f i ObjMesh.obj
 0001:0002dbe0       ?_Myend@?$_Vector_alloc@U?$_Vec_base_types@UObjMeshTetraLink@@V?$allocator@UObjMeshTetraLink@@@std@@@std@@@std@@QAEAAPAUObjMeshTetraLink@@XZ 0042ebe0 f i ObjMesh.obj
 0001:0002dc00       ?_Myend@?$_Vector_alloc@U?$_Vec_base_types@UObjMeshTetraLink@@V?$allocator@UObjMeshTetraLink@@@std@@@std@@@std@@QBEABQAUObjMeshTetraLink@@XZ 0042ec00 f i ObjMesh.obj
 0001:0002dc20       ?_Myend@?$_Vector_alloc@U?$_Vec_base_types@UObjMeshTriangle@@V?$allocator@UObjMeshTriangle@@@std@@@std@@@std@@QAEAAPAUObjMeshTriangle@@XZ 0042ec20 f i ObjMesh.obj
 0001:0002dc40       ?_Myend@?$_Vector_alloc@U?$_Vec_base_types@UObjMeshTriangle@@V?$allocator@UObjMeshTriangle@@@std@@@std@@@std@@QBEABQAUObjMeshTriangle@@XZ 0042ec40 f i ObjMesh.obj
 0001:0002dc60       ?_Myend@?$_Vector_alloc@U?$_Vec_base_types@UTexCoord@@V?$allocator@UTexCoord@@@std@@@std@@@std@@QAEAAPAUTexCoord@@XZ 0042ec60 f i ObjMesh.obj
 0001:0002dc80       ?_Myend@?$_Vector_alloc@U?$_Vec_base_types@UTexCoord@@V?$allocator@UTexCoord@@@std@@@std@@@std@@QBEABQAUTexCoord@@XZ 0042ec80 f i ObjMesh.obj
 0001:0002dca0       ?_Myend@?$_Vector_alloc@U?$_Vec_base_types@VNxVec3@@V?$allocator@VNxVec3@@@std@@@std@@@std@@QAEAAPAVNxVec3@@XZ 0042eca0 f i ObjMesh.obj
 0001:0002dcc0       ?_Myend@?$_Vector_alloc@U?$_Vec_base_types@VNxVec3@@V?$allocator@VNxVec3@@@std@@@std@@@std@@QBEABQAVNxVec3@@XZ 0042ecc0 f i ObjMesh.obj
 0001:0002dce0       ?_Myfirst@?$_Vector_alloc@U?$_Vec_base_types@IV?$allocator@I@std@@@std@@@std@@QAEAAPAIXZ 0042ece0 f i ObjMesh.obj
 0001:0002dd00       ?_Myfirst@?$_Vector_alloc@U?$_Vec_base_types@IV?$allocator@I@std@@@std@@@std@@QBEABQAIXZ 0042ed00 f i ObjMesh.obj
 0001:0002dd20       ?_Myfirst@?$_Vector_alloc@U?$_Vec_base_types@UObjMeshMaterial@@V?$allocator@UObjMeshMaterial@@@std@@@std@@@std@@QAEAAPAUObjMeshMaterial@@XZ 0042ed20 f i ObjMesh.obj
 0001:0002dd40       ?_Myfirst@?$_Vector_alloc@U?$_Vec_base_types@UObjMeshMaterial@@V?$allocator@UObjMeshMaterial@@@std@@@std@@@std@@QBEABQAUObjMeshMaterial@@XZ 0042ed40 f i ObjMesh.obj
 0001:0002dd60       ?_Myfirst@?$_Vector_alloc@U?$_Vec_base_types@UObjMeshTetraLink@@V?$allocator@UObjMeshTetraLink@@@std@@@std@@@std@@QAEAAPAUObjMeshTetraLink@@XZ 0042ed60 f i ObjMesh.obj
 0001:0002dd80       ?_Myfirst@?$_Vector_alloc@U?$_Vec_base_types@UObjMeshTetraLink@@V?$allocator@UObjMeshTetraLink@@@std@@@std@@@std@@QBEABQAUObjMeshTetraLink@@XZ 0042ed80 f i ObjMesh.obj
 0001:0002dda0       ?_Myfirst@?$_Vector_alloc@U?$_Vec_base_types@UObjMeshTriangle@@V?$allocator@UObjMeshTriangle@@@std@@@std@@@std@@QAEAAPAUObjMeshTriangle@@XZ 0042eda0 f i ObjMesh.obj
 0001:0002ddc0       ?_Myfirst@?$_Vector_alloc@U?$_Vec_base_types@UObjMeshTriangle@@V?$allocator@UObjMeshTriangle@@@std@@@std@@@std@@QBEABQAUObjMeshTriangle@@XZ 0042edc0 f i ObjMesh.obj
 0001:0002dde0       ?_Myfirst@?$_Vector_alloc@U?$_Vec_base_types@UTexCoord@@V?$allocator@UTexCoord@@@std@@@std@@@std@@QAEAAPAUTexCoord@@XZ 0042ede0 f i ObjMesh.obj
 0001:0002de00       ?_Myfirst@?$_Vector_alloc@U?$_Vec_base_types@UTexCoord@@V?$allocator@UTexCoord@@@std@@@std@@@std@@QBEABQAUTexCoord@@XZ 0042ee00 f i ObjMesh.obj
 0001:0002de20       ?_Myfirst@?$_Vector_alloc@U?$_Vec_base_types@VNxVec3@@V?$allocator@VNxVec3@@@std@@@std@@@std@@QAEAAPAVNxVec3@@XZ 0042ee20 f i ObjMesh.obj
 0001:0002de40       ?_Myfirst@?$_Vector_alloc@U?$_Vec_base_types@VNxVec3@@V?$allocator@VNxVec3@@@std@@@std@@@std@@QBEABQAVNxVec3@@XZ 0042ee40 f i ObjMesh.obj
 0001:0002de60       ?_Mylast@?$_Vector_alloc@U?$_Vec_base_types@IV?$allocator@I@std@@@std@@@std@@QAEAAPAIXZ 0042ee60 f i ObjMesh.obj
 0001:0002de80       ?_Mylast@?$_Vector_alloc@U?$_Vec_base_types@IV?$allocator@I@std@@@std@@@std@@QBEABQAIXZ 0042ee80 f i ObjMesh.obj
 0001:0002dea0       ?_Mylast@?$_Vector_alloc@U?$_Vec_base_types@UObjMeshMaterial@@V?$allocator@UObjMeshMaterial@@@std@@@std@@@std@@QAEAAPAUObjMeshMaterial@@XZ 0042eea0 f i ObjMesh.obj
 0001:0002dec0       ?_Mylast@?$_Vector_alloc@U?$_Vec_base_types@UObjMeshMaterial@@V?$allocator@UObjMeshMaterial@@@std@@@std@@@std@@QBEABQAUObjMeshMaterial@@XZ 0042eec0 f i ObjMesh.obj
 0001:0002dee0       ?_Mylast@?$_Vector_alloc@U?$_Vec_base_types@UObjMeshTetraLink@@V?$allocator@UObjMeshTetraLink@@@std@@@std@@@std@@QAEAAPAUObjMeshTetraLink@@XZ 0042eee0 f i ObjMesh.obj
 0001:0002df00       ?_Mylast@?$_Vector_alloc@U?$_Vec_base_types@UObjMeshTetraLink@@V?$allocator@UObjMeshTetraLink@@@std@@@std@@@std@@QBEABQAUObjMeshTetraLink@@XZ 0042ef00 f i ObjMesh.obj
 0001:0002df20       ?_Mylast@?$_Vector_alloc@U?$_Vec_base_types@UObjMeshTriangle@@V?$allocator@UObjMeshTriangle@@@std@@@std@@@std@@QAEAAPAUObjMeshTriangle@@XZ 0042ef20 f i ObjMesh.obj
 0001:0002df40       ?_Mylast@?$_Vector_alloc@U?$_Vec_base_types@UObjMeshTriangle@@V?$allocator@UObjMeshTriangle@@@std@@@std@@@std@@QBEABQAUObjMeshTriangle@@XZ 0042ef40 f i ObjMesh.obj
 0001:0002df60       ?_Mylast@?$_Vector_alloc@U?$_Vec_base_types@UTexCoord@@V?$allocator@UTexCoord@@@std@@@std@@@std@@QAEAAPAUTexCoord@@XZ 0042ef60 f i ObjMesh.obj
 0001:0002df80       ?_Mylast@?$_Vector_alloc@U?$_Vec_base_types@UTexCoord@@V?$allocator@UTexCoord@@@std@@@std@@@std@@QBEABQAUTexCoord@@XZ 0042ef80 f i ObjMesh.obj
 0001:0002dfa0       ?_Mylast@?$_Vector_alloc@U?$_Vec_base_types@VNxVec3@@V?$allocator@VNxVec3@@@std@@@std@@@std@@QAEAAPAVNxVec3@@XZ 0042efa0 f i ObjMesh.obj
 0001:0002dfc0       ?_Mylast@?$_Vector_alloc@U?$_Vec_base_types@VNxVec3@@V?$allocator@VNxVec3@@@std@@@std@@@std@@QBEABQAVNxVec3@@XZ 0042efc0 f i ObjMesh.obj
 0001:0002dfe0       ?_Myproxy@?$_Vector_alloc@U?$_Vec_base_types@HV?$allocator@H@std@@@std@@@std@@QAEAAPAU_Container_proxy@2@XZ 0042efe0 f i ObjMesh.obj
 0001:0002e000       ?_Myproxy@?$_Vector_alloc@U?$_Vec_base_types@UTexCoord@@V?$allocator@UTexCoord@@@std@@@std@@@std@@QAEAAPAU_Container_proxy@2@XZ 0042f000 f i ObjMesh.obj
 0001:0002e020       ?_Myproxy@?$_Vector_alloc@U?$_Vec_base_types@VNxVec3@@V?$allocator@VNxVec3@@@std@@@std@@@std@@QAEAAPAU_Container_proxy@2@XZ 0042f020 f i ObjMesh.obj
 0001:0002e040       ?_Nw@?$_Vb_val@V?$allocator@_N@std@@@std@@SAII@Z 0042f040 f i ObjMesh.obj
 0001:0002e060       ?_Orphan_all@?$_Vector_alloc@U?$_Vec_base_types@IV?$allocator@I@std@@@std@@@std@@QAEXXZ 0042f060 f i ObjMesh.obj
 0001:0002e080       ?_Orphan_all@?$_Vector_alloc@U?$_Vec_base_types@UObjMeshMaterial@@V?$allocator@UObjMeshMaterial@@@std@@@std@@@std@@QAEXXZ 0042f080 f i ObjMesh.obj
 0001:0002e0a0       ?_Orphan_all@?$_Vector_alloc@U?$_Vec_base_types@UObjMeshTetraLink@@V?$allocator@UObjMeshTetraLink@@@std@@@std@@@std@@QAEXXZ 0042f0a0 f i ObjMesh.obj
 0001:0002e0c0       ?_Orphan_all@?$_Vector_alloc@U?$_Vec_base_types@UObjMeshTriangle@@V?$allocator@UObjMeshTriangle@@@std@@@std@@@std@@QAEXXZ 0042f0c0 f i ObjMesh.obj
 0001:0002e0e0       ?_Orphan_all@?$_Vector_alloc@U?$_Vec_base_types@UTexCoord@@V?$allocator@UTexCoord@@@std@@@std@@@std@@QAEXXZ 0042f0e0 f i ObjMesh.obj
 0001:0002e100       ?_Orphan_all@?$_Vector_alloc@U?$_Vec_base_types@VNxVec3@@V?$allocator@VNxVec3@@@std@@@std@@@std@@QAEXXZ 0042f100 f i ObjMesh.obj
 0001:0002e120       ?_Orphan_me@_Iterator_base12@std@@QAEXXZ 0042f120 f i ObjMesh.obj
 0001:0002e200       ?_Orphan_range@?$vector@IV?$allocator@I@std@@@std@@ABEXPAI0@Z 0042f200 f i ObjMesh.obj
 0001:0002e2f0       ?_Orphan_range@?$vector@UObjMeshMaterial@@V?$allocator@UObjMeshMaterial@@@std@@@std@@ABEXPAUObjMeshMaterial@@0@Z 0042f2f0 f i ObjMesh.obj
 0001:0002e3e0       ?_Orphan_range@?$vector@UObjMeshTetraLink@@V?$allocator@UObjMeshTetraLink@@@std@@@std@@ABEXPAUObjMeshTetraLink@@0@Z 0042f3e0 f i ObjMesh.obj
 0001:0002e4d0       ?_Orphan_range@?$vector@UObjMeshTriangle@@V?$allocator@UObjMeshTriangle@@@std@@@std@@ABEXPAUObjMeshTriangle@@0@Z 0042f4d0 f i ObjMesh.obj
 0001:0002e5c0       ?_Orphan_range@?$vector@UTexCoord@@V?$allocator@UTexCoord@@@std@@@std@@ABEXPAUTexCoord@@0@Z 0042f5c0 f i ObjMesh.obj
 0001:0002e6b0       ?_Orphan_range@?$vector@VNxVec3@@V?$allocator@VNxVec3@@@std@@@std@@ABEXPAVNxVec3@@0@Z 0042f6b0 f i ObjMesh.obj
 0001:0002e7a0       ?_Orphan_range@?$vector@_NV?$allocator@_N@std@@@std@@QBEXII@Z 0042f7a0 f i ObjMesh.obj
 0001:0002e870       ?_Release@?$_Uninitialized_backout_al@PAIV?$allocator@I@std@@@std@@QAEPAIXZ 0042f870 f i ObjMesh.obj
 0001:0002e8a0       ?_Release@?$_Uninitialized_backout_al@PAUObjMeshTetraLink@@V?$allocator@UObjMeshTetraLink@@@std@@@std@@QAEPAUObjMeshTetraLink@@XZ 0042f8a0 f i ObjMesh.obj
 0001:0002e8d0       ?_Release@?$_Uninitialized_backout_al@PAUTexCoord@@V?$allocator@UTexCoord@@@std@@@std@@QAEPAUTexCoord@@XZ 0042f8d0 f i ObjMesh.obj
 0001:0002e900       ?_Release@?$_Uninitialized_backout_al@PAVNxVec3@@V?$allocator@VNxVec3@@@std@@@std@@QAEPAVNxVec3@@XZ 0042f900 f i ObjMesh.obj
 0001:0002e930       ?_Tidy@?$vector@HV?$allocator@H@std@@@std@@AAEXXZ 0042f930 f i ObjMesh.obj
 0001:0002e9e0       ?_Tidy@?$vector@UTexCoord@@V?$allocator@UTexCoord@@@std@@@std@@AAEXXZ 0042f9e0 f i ObjMesh.obj
 0001:0002ea90       ?_Tidy@?$vector@VNxVec3@@V?$allocator@VNxVec3@@@std@@@std@@AAEXXZ 0042fa90 f i ObjMesh.obj
 0001:0002eb40       ?_Udefault@?$vector@VNxVec3@@V?$allocator@VNxVec3@@@std@@@std@@AAEPAVNxVec3@@PAV3@I@Z 0042fb40 f i ObjMesh.obj
 0001:0002eb70       ?_Ufill@?$vector@IV?$allocator@I@std@@@std@@AAEPAIPAIIABI@Z 0042fb70 f i ObjMesh.obj
 0001:0002ebb0       ?_Umove@?$vector@UObjMeshMaterial@@V?$allocator@UObjMeshMaterial@@@std@@@std@@AAEPAUObjMeshMaterial@@PAU3@00@Z 0042fbb0 f i ObjMesh.obj
 0001:0002ebf0       ?_Umove@?$vector@UObjMeshTetraLink@@V?$allocator@UObjMeshTetraLink@@@std@@@std@@AAEPAUObjMeshTetraLink@@PAU3@00@Z 0042fbf0 f i ObjMesh.obj
 0001:0002ec30       ?_Umove@?$vector@UObjMeshTriangle@@V?$allocator@UObjMeshTriangle@@@std@@@std@@AAEPAUObjMeshTriangle@@PAU3@00@Z 0042fc30 f i ObjMesh.obj
 0001:0002ec70       ?_Umove@?$vector@UTexCoord@@V?$allocator@UTexCoord@@@std@@@std@@AAEPAUTexCoord@@PAU3@00@Z 0042fc70 f i ObjMesh.obj
 0001:0002ecb0       ?_Umove@?$vector@VNxVec3@@V?$allocator@VNxVec3@@@std@@@std@@AAEPAVNxVec3@@PAV3@00@Z 0042fcb0 f i ObjMesh.obj
 0001:0002ecf0       ?_Umove_if_noexcept1@?$vector@IV?$allocator@I@std@@@std@@AAEXPAI00U?$integral_constant@_N$00@2@@Z 0042fcf0 f i ObjMesh.obj
 0001:0002ed30       ?_Umove_if_noexcept1@?$vector@UObjMeshMaterial@@V?$allocator@UObjMeshMaterial@@@std@@@std@@AAEXPAUObjMeshMaterial@@00U?$integral_constant@_N$00@2@@Z 0042fd30 f i ObjMesh.obj
 0001:0002ed70       ?_Umove_if_noexcept1@?$vector@UObjMeshTetraLink@@V?$allocator@UObjMeshTetraLink@@@std@@@std@@AAEXPAUObjMeshTetraLink@@00U?$integral_constant@_N$0A@@2@@Z 0042fd70 f i ObjMesh.obj
 0001:0002edb0       ?_Umove_if_noexcept1@?$vector@UObjMeshTriangle@@V?$allocator@UObjMeshTriangle@@@std@@@std@@AAEXPAUObjMeshTriangle@@00U?$integral_constant@_N$00@2@@Z 0042fdb0 f i ObjMesh.obj
 0001:0002edf0       ?_Umove_if_noexcept1@?$vector@UTexCoord@@V?$allocator@UTexCoord@@@std@@@std@@AAEXPAUTexCoord@@00U?$integral_constant@_N$00@2@@Z 0042fdf0 f i ObjMesh.obj
 0001:0002ee30       ?_Umove_if_noexcept1@?$vector@VNxVec3@@V?$allocator@VNxVec3@@@std@@@std@@AAEXPAVNxVec3@@00U?$integral_constant@_N$0A@@2@@Z 0042fe30 f i ObjMesh.obj
 0001:0002ee70       ?_Umove_if_noexcept@?$vector@IV?$allocator@I@std@@@std@@AAEXPAI00@Z 0042fe70 f i ObjMesh.obj
 0001:0002eeb0       ?_Umove_if_noexcept@?$vector@UObjMeshMaterial@@V?$allocator@UObjMeshMaterial@@@std@@@std@@AAEXPAUObjMeshMaterial@@00@Z 0042feb0 f i ObjMesh.obj
 0001:0002eef0       ?_Umove_if_noexcept@?$vector@UObjMeshTetraLink@@V?$allocator@UObjMeshTetraLink@@@std@@@std@@AAEXPAUObjMeshTetraLink@@00@Z 0042fef0 f i ObjMesh.obj
 0001:0002ef30       ?_Umove_if_noexcept@?$vector@UObjMeshTriangle@@V?$allocator@UObjMeshTriangle@@@std@@@std@@AAEXPAUObjMeshTriangle@@00@Z 0042ff30 f i ObjMesh.obj
 0001:0002ef70       ?_Umove_if_noexcept@?$vector@UTexCoord@@V?$allocator@UTexCoord@@@std@@@std@@AAEXPAUTexCoord@@00@Z 0042ff70 f i ObjMesh.obj
 0001:0002efb0       ?_Umove_if_noexcept@?$vector@VNxVec3@@V?$allocator@VNxVec3@@@std@@@std@@AAEXPAVNxVec3@@00@Z 0042ffb0 f i ObjMesh.obj
 0001:0002eff0       ?_Valid@?$_Vb_iter_base@U?$_Wrap_alloc@V?$allocator@I@std@@@std@@@std@@QBEHI@Z 0042fff0 f i ObjMesh.obj
 0001:0002f090       ?_Verify_range@std@@YAXABV?$_Vb_const_iterator@U?$_Wrap_alloc@V?$allocator@I@std@@@std@@@1@0@Z 00430090 f i ObjMesh.obj
 0001:0002f110       ?_Xlen@?$vector@_NV?$allocator@_N@std@@@std@@QBEXXZ 00430110 f i ObjMesh.obj
 0001:0002f130       ?_Xlength@?$vector@IV?$allocator@I@std@@@std@@CAXXZ 00430130 f i ObjMesh.obj
 0001:0002f150       ?_Xlength@?$vector@UObjMeshMaterial@@V?$allocator@UObjMeshMaterial@@@std@@@std@@CAXXZ 00430150 f i ObjMesh.obj
 0001:0002f170       ?_Xlength@?$vector@UObjMeshTetraLink@@V?$allocator@UObjMeshTetraLink@@@std@@@std@@CAXXZ 00430170 f i ObjMesh.obj
 0001:0002f190       ?_Xlength@?$vector@UObjMeshTriangle@@V?$allocator@UObjMeshTriangle@@@std@@@std@@CAXXZ 00430190 f i ObjMesh.obj
 0001:0002f1b0       ?_Xlength@?$vector@UTexCoord@@V?$allocator@UTexCoord@@@std@@@std@@CAXXZ 004301b0 f i ObjMesh.obj
 0001:0002f1d0       ?_Xlength@?$vector@VNxVec3@@V?$allocator@VNxVec3@@@std@@@std@@CAXXZ 004301d0 f i ObjMesh.obj
 0001:0002f1f0       ?allocate@?$allocator@I@std@@QAEPAII@Z 004301f0 f i ObjMesh.obj
 0001:0002f220       ?allocate@?$allocator@UObjMeshMaterial@@@std@@QAEPAUObjMeshMaterial@@I@Z 00430220 f i ObjMesh.obj
 0001:0002f250       ?allocate@?$allocator@UObjMeshTetraLink@@@std@@QAEPAUObjMeshTetraLink@@I@Z 00430250 f i ObjMesh.obj
 0001:0002f280       ?allocate@?$allocator@UObjMeshTriangle@@@std@@QAEPAUObjMeshTriangle@@I@Z 00430280 f i ObjMesh.obj
 0001:0002f2b0       ?allocate@?$allocator@UTexCoord@@@std@@QAEPAUTexCoord@@I@Z 004302b0 f i ObjMesh.obj
 0001:0002f2e0       ?allocate@?$allocator@VNxVec3@@@std@@QAEPAVNxVec3@@I@Z 004302e0 f i ObjMesh.obj
 0001:0002f310       ?begin@?$vector@_NV?$allocator@_N@std@@@std@@QAE?AV?$_Vb_iterator@U?$_Wrap_alloc@V?$allocator@I@std@@@std@@@2@XZ 00430310 f i ObjMesh.obj
 0001:0002f380       ?capacity@?$vector@IV?$allocator@I@std@@@std@@QBEIXZ 00430380 f i ObjMesh.obj
 0001:0002f3c0       ?capacity@?$vector@UObjMeshMaterial@@V?$allocator@UObjMeshMaterial@@@std@@@std@@QBEIXZ 004303c0 f i ObjMesh.obj
 0001:0002f400       ?capacity@?$vector@UObjMeshTetraLink@@V?$allocator@UObjMeshTetraLink@@@std@@@std@@QBEIXZ 00430400 f i ObjMesh.obj
 0001:0002f440       ?capacity@?$vector@UObjMeshTriangle@@V?$allocator@UObjMeshTriangle@@@std@@@std@@QBEIXZ 00430440 f i ObjMesh.obj
 0001:0002f480       ?capacity@?$vector@UTexCoord@@V?$allocator@UTexCoord@@@std@@@std@@QBEIXZ 00430480 f i ObjMesh.obj
 0001:0002f4c0       ?capacity@?$vector@VNxVec3@@V?$allocator@VNxVec3@@@std@@@std@@QBEIXZ 004304c0 f i ObjMesh.obj
 0001:0002f500       ?capacity@?$vector@_NV?$allocator@_N@std@@@std@@QBEIXZ 00430500 f i ObjMesh.obj
 0001:0002f520       ?clear@?$vector@UObjMeshMaterial@@V?$allocator@UObjMeshMaterial@@@std@@@std@@QAEXXZ 00430520 f i ObjMesh.obj
 0001:0002f5b0       ?clear@?$vector@UObjMeshTetraLink@@V?$allocator@UObjMeshTetraLink@@@std@@@std@@QAEXXZ 004305b0 f i ObjMesh.obj
 0001:0002f640       ?clear@?$vector@UObjMeshTriangle@@V?$allocator@UObjMeshTriangle@@@std@@@std@@QAEXXZ 00430640 f i ObjMesh.obj
 0001:0002f6d0       ?clear@?$vector@UTexCoord@@V?$allocator@UTexCoord@@@std@@@std@@QAEXXZ 004306d0 f i ObjMesh.obj
 0001:0002f760       ?clear@?$vector@VNxVec3@@V?$allocator@VNxVec3@@@std@@@std@@QAEXXZ 00430760 f i ObjMesh.obj
 0001:0002f7f0       ?containsVertexNr@ObjMeshTriangle@@QBE_NH@Z 004307f0 f i ObjMesh.obj
 0001:0002f860       ?data@?$vector@IV?$allocator@I@std@@@std@@QAEPAIXZ 00430860 f i ObjMesh.obj
 0001:0002f8c0       ?data@?$vector@IV?$allocator@I@std@@@std@@QBEPBIXZ 004308c0 f i ObjMesh.obj
 0001:0002f920       ?deallocate@?$allocator@I@std@@QAEXQAII@Z 00430920 f i ObjMesh.obj
 0001:0002f950       ?deallocate@?$allocator@UObjMeshMaterial@@@std@@QAEXQAUObjMeshMaterial@@I@Z 00430950 f i ObjMesh.obj
 0001:0002f980       ?deallocate@?$allocator@UObjMeshTetraLink@@@std@@QAEXQAUObjMeshTetraLink@@I@Z 00430980 f i ObjMesh.obj
 0001:0002f9b0       ?deallocate@?$allocator@UObjMeshTriangle@@@std@@QAEXQAUObjMeshTriangle@@I@Z 004309b0 f i ObjMesh.obj
 0001:0002f9e0       ?deallocate@?$allocator@UTexCoord@@@std@@QAEXQAUTexCoord@@I@Z 004309e0 f i ObjMesh.obj
 0001:0002fa10       ?deallocate@?$allocator@VNxVec3@@@std@@QAEXQAVNxVec3@@I@Z 00430a10 f i ObjMesh.obj
 0001:0002fa40       ?determinant@NxMat33@@QBEMXZ 00430a40 f i ObjMesh.obj
 0001:0002fb30       ?dot@NxVec3@@QBEMABV1@@Z   00430b30 f i ObjMesh.obj
 0001:0002fb90       ?empty@?$vector@UObjMeshTetraLink@@V?$allocator@UObjMeshTetraLink@@@std@@@std@@QBE_NXZ 00430b90 f i ObjMesh.obj
 0001:0002fbe0       ?empty@?$vector@_NV?$allocator@_N@std@@@std@@QBE_NXZ 00430be0 f i ObjMesh.obj
 0001:0002fc20       ?end@?$vector@_NV?$allocator@_N@std@@@std@@QAE?AV?$_Vb_iterator@U?$_Wrap_alloc@V?$allocator@I@std@@@std@@@2@XZ 00430c20 f i ObjMesh.obj
 0001:0002fca0       ?init@ObjMeshTriangle@@QAEXXZ 00430ca0 f i ObjMesh.obj
 0001:0002fd90       ?insert@?$vector@_NV?$allocator@_N@std@@@std@@QAE?AV?$_Vb_iterator@U?$_Wrap_alloc@V?$allocator@I@std@@@std@@@2@V?$_Vb_const_iterator@U?$_Wrap_alloc@V?$allocator@I@std@@@std@@@2@AB_N@Z 00430d90 f i ObjMesh.obj
 0001:0002fe40       ?max_size@?$_Default_allocator_traits@V?$allocator@I@std@@@std@@SAIABV?$allocator@I@2@@Z 00430e40 f i ObjMesh.obj
 0001:0002fe50       ?max_size@?$_Default_allocator_traits@V?$allocator@UObjMeshMaterial@@@std@@@std@@SAIABV?$allocator@UObjMeshMaterial@@@2@@Z 00430e50 f i ObjMesh.obj
 0001:0002fe60       ?max_size@?$_Default_allocator_traits@V?$allocator@UObjMeshTetraLink@@@std@@@std@@SAIABV?$allocator@UObjMeshTetraLink@@@2@@Z 00430e60 f i ObjMesh.obj
 0001:0002fe70       ?max_size@?$_Default_allocator_traits@V?$allocator@UObjMeshTriangle@@@std@@@std@@SAIABV?$allocator@UObjMeshTriangle@@@2@@Z 00430e70 f i ObjMesh.obj
 0001:0002fe80       ?max_size@?$_Default_allocator_traits@V?$allocator@UTexCoord@@@std@@@std@@SAIABV?$allocator@UTexCoord@@@2@@Z 00430e80 f i ObjMesh.obj
 0001:0002fe90       ?max_size@?$_Default_allocator_traits@V?$allocator@VNxVec3@@@std@@@std@@SAIABV?$allocator@VNxVec3@@@2@@Z 00430e90 f i ObjMesh.obj
 0001:0002fea0       ?max_size@?$vector@IV?$allocator@I@std@@@std@@QBEIXZ 00430ea0 f i ObjMesh.obj
 0001:0002fef0       ?max_size@?$vector@UObjMeshMaterial@@V?$allocator@UObjMeshMaterial@@@std@@@std@@QBEIXZ 00430ef0 f i ObjMesh.obj
 0001:0002ff40       ?max_size@?$vector@UObjMeshTetraLink@@V?$allocator@UObjMeshTetraLink@@@std@@@std@@QBEIXZ 00430f40 f i ObjMesh.obj
 0001:0002ff90       ?max_size@?$vector@UObjMeshTriangle@@V?$allocator@UObjMeshTriangle@@@std@@@std@@QBEIXZ 00430f90 f i ObjMesh.obj
 0001:0002ffe0       ?max_size@?$vector@UTexCoord@@V?$allocator@UTexCoord@@@std@@@std@@QBEIXZ 00430fe0 f i ObjMesh.obj
 0001:00030030       ?max_size@?$vector@VNxVec3@@V?$allocator@VNxVec3@@@std@@@std@@QBEIXZ 00431030 f i ObjMesh.obj
 0001:00030080       ?max_size@?$vector@_NV?$allocator@_N@std@@@std@@QBEIXZ 00431080 f i ObjMesh.obj
 0001:000300d0       ?push_back@?$vector@UObjMeshMaterial@@V?$allocator@UObjMeshMaterial@@@std@@@std@@QAEXABUObjMeshMaterial@@@Z 004310d0 f i ObjMesh.obj
 0001:000300f0       ?push_back@?$vector@UObjMeshTetraLink@@V?$allocator@UObjMeshTetraLink@@@std@@@std@@QAEXABUObjMeshTetraLink@@@Z 004310f0 f i ObjMesh.obj
 0001:00030110       ?push_back@?$vector@UObjMeshTriangle@@V?$allocator@UObjMeshTriangle@@@std@@@std@@QAEXABUObjMeshTriangle@@@Z 00431110 f i ObjMesh.obj
 0001:00030130       ?push_back@?$vector@UTexCoord@@V?$allocator@UTexCoord@@@std@@@std@@QAEXABUTexCoord@@@Z 00431130 f i ObjMesh.obj
 0001:00030150       ?push_back@?$vector@VNxVec3@@V?$allocator@VNxVec3@@@std@@@std@@QAEXABVNxVec3@@@Z 00431150 f i ObjMesh.obj
 0001:00030170       ?push_back@?$vector@_NV?$allocator@_N@std@@@std@@QAEXAB_N@Z 00431170 f i ObjMesh.obj
 0001:00030230       ?resize@?$vector@IV?$allocator@I@std@@@std@@QAEXIABI@Z 00431230 f i ObjMesh.obj
 0001:00030270       ?resize@?$vector@VNxVec3@@V?$allocator@VNxVec3@@@std@@@std@@QAEXI@Z 00431270 f i ObjMesh.obj
 0001:000302b0       ?size@?$vector@IV?$allocator@I@std@@@std@@QBEIXZ 004312b0 f i ObjMesh.obj
 0001:000302f0       ?size@?$vector@UObjMeshMaterial@@V?$allocator@UObjMeshMaterial@@@std@@@std@@QBEIXZ 004312f0 f i ObjMesh.obj
 0001:00030330       ?size@?$vector@UObjMeshTetraLink@@V?$allocator@UObjMeshTetraLink@@@std@@@std@@QBEIXZ 00431330 f i ObjMesh.obj
 0001:00030370       ?size@?$vector@UObjMeshTriangle@@V?$allocator@UObjMeshTriangle@@@std@@@std@@QBEIXZ 00431370 f i ObjMesh.obj
 0001:000303b0       ?size@?$vector@UTexCoord@@V?$allocator@UTexCoord@@@std@@@std@@QBEIXZ 004313b0 f i ObjMesh.obj
 0001:000303f0       ?size@?$vector@VNxVec3@@V?$allocator@VNxVec3@@@std@@@std@@QBEIXZ 004313f0 f i ObjMesh.obj
 0001:00030430       ?size@?$vector@_NV?$allocator@_N@std@@@std@@QBEIXZ 00431430 f i ObjMesh.obj
 0001:00030450       ?zero@TexCoord@@QAEXXZ     00431450 f i ObjMesh.obj
 0001:00030480       __vfprintf_l               00431480 f i ObjMesh.obj
 0001:000304c0       _fprintf                   004314c0 f i ObjMesh.obj
 0001:00030500       ??0UserStream@@QAE@PBD_N@Z 00431500 f   Stream.obj
 0001:00030560       ??1UserStream@@UAE@XZ      00431560 f   Stream.obj
 0001:000305a0       ?readByte@UserStream@@UBEEXZ 004315a0 f   Stream.obj
 0001:000305f0       ?readWord@UserStream@@UBEGXZ 004315f0 f   Stream.obj
 0001:00030640       ?readDword@UserStream@@UBEIXZ 00431640 f   Stream.obj
 0001:00030690       ?readFloat@UserStream@@UBEMXZ 00431690 f   Stream.obj
 0001:000306e0       ?readDouble@UserStream@@UBENXZ 004316e0 f   Stream.obj
 0001:00030730       ?readBuffer@UserStream@@UBEXPAXI@Z 00431730 f   Stream.obj
 0001:00030780       ?storeByte@UserStream@@UAEAAVNxStream@@E@Z 00431780 f   Stream.obj
 0001:000307d0       ?storeWord@UserStream@@UAEAAVNxStream@@G@Z 004317d0 f   Stream.obj
 0001:00030820       ?storeDword@UserStream@@UAEAAVNxStream@@I@Z 00431820 f   Stream.obj
 0001:00030870       ?storeFloat@UserStream@@UAEAAVNxStream@@M@Z 00431870 f   Stream.obj
 0001:000308c0       ?storeDouble@UserStream@@UAEAAVNxStream@@N@Z 004318c0 f   Stream.obj
 0001:00030910       ?storeBuffer@UserStream@@UAEAAVNxStream@@PBXI@Z 00431910 f   Stream.obj
 0001:00030960       ??0MemoryWriteBuffer@@QAE@XZ 00431960 f   Stream.obj
 0001:000309a0       ??1MemoryWriteBuffer@@UAE@XZ 004319a0 f   Stream.obj
 0001:00030a10       ?storeByte@MemoryWriteBuffer@@UAEAAVNxStream@@E@Z 00431a10 f   Stream.obj
 0001:00030a40       ?storeWord@MemoryWriteBuffer@@UAEAAVNxStream@@G@Z 00431a40 f   Stream.obj
 0001:00030a70       ?storeDword@MemoryWriteBuffer@@UAEAAVNxStream@@I@Z 00431a70 f   Stream.obj
 0001:00030aa0       ?storeFloat@MemoryWriteBuffer@@UAEAAVNxStream@@M@Z 00431aa0 f   Stream.obj
 0001:00030ad0       ?storeDouble@MemoryWriteBuffer@@UAEAAVNxStream@@N@Z 00431ad0 f   Stream.obj
 0001:00030b00       ?storeBuffer@MemoryWriteBuffer@@UAEAAVNxStream@@PBXI@Z 00431b00 f   Stream.obj
 0001:00030bd0       ??0MemoryReadBuffer@@QAE@PBE@Z 00431bd0 f   Stream.obj
 0001:00030c00       ??1MemoryReadBuffer@@UAE@XZ 00431c00 f   Stream.obj
 0001:00030c20       ?readByte@MemoryReadBuffer@@UBEEXZ 00431c20 f   Stream.obj
 0001:00030c50       ?readWord@MemoryReadBuffer@@UBEGXZ 00431c50 f   Stream.obj
 0001:00030c80       ?readDword@MemoryReadBuffer@@UBEIXZ 00431c80 f   Stream.obj
 0001:00030cb0       ?readFloat@MemoryReadBuffer@@UBEMXZ 00431cb0 f   Stream.obj
 0001:00030ce0       ?readDouble@MemoryReadBuffer@@UBENXZ 00431ce0 f   Stream.obj
 0001:00030d10       ?readBuffer@MemoryReadBuffer@@UBEXPAXI@Z 00431d10 f   Stream.obj
 0001:00030f60       ??0NxStream@@QAE@XZ        00431f60 f i Stream.obj
 0001:00030f80       ??1NxStream@@UAE@XZ        00431f80 f i Stream.obj
 0001:00030fa0       ??_GMemoryReadBuffer@@UAEPAXI@Z 00431fa0 f i Stream.obj
 0001:00030fa0       ??_EMemoryReadBuffer@@UAEPAXI@Z 00431fa0 f i Stream.obj
 0001:00030fe0       ??_GMemoryWriteBuffer@@UAEPAXI@Z 00431fe0 f i Stream.obj
 0001:00030fe0       ??_EMemoryWriteBuffer@@UAEPAXI@Z 00431fe0 f i Stream.obj
 0001:00031020       ??_GNxStream@@UAEPAXI@Z    00432020 f i Stream.obj
 0001:00031020       ??_ENxStream@@UAEPAXI@Z    00432020 f i Stream.obj
 0001:00031060       ??_GUserStream@@UAEPAXI@Z  00432060 f i Stream.obj
 0001:00031060       ??_EUserStream@@UAEPAXI@Z  00432060 f i Stream.obj
 0001:000310a0       ?readBuffer@MemoryWriteBuffer@@UBEXPAXI@Z 004320a0 f i Stream.obj
 0001:000310d0       ?readByte@MemoryWriteBuffer@@UBEEXZ 004320d0 f i Stream.obj
 0001:00031100       ?readDouble@MemoryWriteBuffer@@UBENXZ 00432100 f i Stream.obj
 0001:00031130       ?readDword@MemoryWriteBuffer@@UBEIXZ 00432130 f i Stream.obj
 0001:00031160       ?readFloat@MemoryWriteBuffer@@UBEMXZ 00432160 f i Stream.obj
 0001:00031190       ?readWord@MemoryWriteBuffer@@UBEGXZ 00432190 f i Stream.obj
 0001:000311c0       ?storeBuffer@MemoryReadBuffer@@UAEAAVNxStream@@PBXI@Z 004321c0 f i Stream.obj
 0001:00031200       ?storeByte@MemoryReadBuffer@@UAEAAVNxStream@@E@Z 00432200 f i Stream.obj
 0001:00031240       ?storeDouble@MemoryReadBuffer@@UAEAAVNxStream@@N@Z 00432240 f i Stream.obj
 0001:00031280       ?storeDword@MemoryReadBuffer@@UAEAAVNxStream@@I@Z 00432280 f i Stream.obj
 0001:000312c0       ?storeFloat@MemoryReadBuffer@@UAEAAVNxStream@@M@Z 004322c0 f i Stream.obj
 0001:00031300       ?storeWord@MemoryReadBuffer@@UAEAAVNxStream@@G@Z 00432300 f i Stream.obj
 0001:00031340       ?AddUserDataToActors@@YAXPAVNxScene@@@Z 00432340 f   UserData.obj
 0001:00031430       ?AddUserDataToShapes@@YAXPAVNxActor@@@Z 00432430 f   UserData.obj
 0001:00031630       ?ReleaseUserDataFromActors@@YAXPAVNxScene@@@Z 00432630 f   UserData.obj
 0001:000316c0       ?ReleaseUserDataFromShapes@@YAXPAVNxActor@@@Z 004326c0 f   UserData.obj
 0001:00031880       ??0ActorUserData@@QAE@XZ   00432880 f i UserData.obj
 0001:000318c0       ??0NxSimpleTriangleMesh@@QAE@XZ 004328c0 f i UserData.obj
 0001:000318e0       ??0NxTriangleMeshDesc@@QAE@XZ 004328e0 f i UserData.obj
 0001:00031910       ??0ShapeUserData@@QAE@XZ   00432910 f i UserData.obj
 0001:00031970       ?isTriangleMesh@NxShape@@QAEPAVNxTriangleMeshShape@@XZ 00432970 f i UserData.obj
 0001:00031990       ?setToDefault@NxSimpleTriangleMesh@@QAEXXZ 00432990 f i UserData.obj
 0001:00031a00       ?setToDefault@NxTriangleMeshDesc@@QAEXXZ 00432a00 f i UserData.obj
 0001:00031a70       ?renderData@DebugRenderer@@QBEXABVNxDebugRenderable@@@Z 00432a70 f   DebugRenderer.obj
 0001:00032400       ?renderBuffer@DebugRenderer@@CAXPAM0HH@Z 00433400 f   DebugRenderer.obj
 0001:000326f0       ?getLines@NxDebugRenderable@@QBEPBUNxDebugLine@@XZ 004336f0 f i DebugRenderer.obj
 0001:00032710       ?getNbLines@NxDebugRenderable@@QBEIXZ 00433710 f i DebugRenderer.obj
 0001:00032730       ?getNbPoints@NxDebugRenderable@@QBEIXZ 00433730 f i DebugRenderer.obj
 0001:00032750       ?getNbTriangles@NxDebugRenderable@@QBEIXZ 00433750 f i DebugRenderer.obj
 0001:00032770       ?getPoints@NxDebugRenderable@@QBEPBUNxDebugPoint@@XZ 00433770 f i DebugRenderer.obj
 0001:00032790       ?getTriangles@NxDebugRenderable@@QBEPBUNxDebugTriangle@@XZ 00433790 f i DebugRenderer.obj
 0001:000327b0       ??0UserAllocator@@QAE@XZ   004337b0 f   UserAllocator.obj
 0001:00032860       ??1UserAllocator@@UAE@XZ   00433860 f   UserAllocator.obj
 0001:000329d0       ?reset@UserAllocator@@QAEXXZ 004339d0 f   UserAllocator.obj
 0001:00032a00       ?malloc@UserAllocator@@UAEPAXI@Z 00433a00 f   UserAllocator.obj
 0001:00032af0       ?malloc@UserAllocator@@UAEPAXIW4NxMemoryType@@@Z 00433af0 f   UserAllocator.obj
 0001:00032be0       ?mallocDEBUG@UserAllocator@@UAEPAXIPBDH@Z 00433be0 f   UserAllocator.obj
 0001:00032c00       ?mallocDEBUG@UserAllocator@@UAEPAXIPBDH0W4NxMemoryType@@@Z 00433c00 f   UserAllocator.obj
 0001:00032e70       ?realloc@UserAllocator@@UAEPAXPAXI@Z 00433e70 f   UserAllocator.obj
 0001:000330a0       ?free@UserAllocator@@UAEXPAX@Z 004340a0 f   UserAllocator.obj
 0001:00033440       ??0NxUserAllocator@@QAE@XZ 00434440 f i UserAllocator.obj
 0001:00033460       ??0SampleMutex@@QAE@XZ     00434460 f i UserAllocator.obj
 0001:00033480       ??1NxUserAllocator@@UAE@XZ 00434480 f i UserAllocator.obj
 0001:000334a0       ??1SampleMutex@@QAE@XZ     004344a0 f i UserAllocator.obj
 0001:000334c0       ??_ENxUserAllocator@@UAEPAXI@Z 004344c0 f i UserAllocator.obj
 0001:000334c0       ??_GNxUserAllocator@@UAEPAXI@Z 004344c0 f i UserAllocator.obj
 0001:00033500       ??_GUserAllocator@@UAEPAXI@Z 00434500 f i UserAllocator.obj
 0001:00033500       ??_EUserAllocator@@UAEPAXI@Z 00434500 f i UserAllocator.obj
 0001:00033540       ?checkDEBUG@NxUserAllocator@@UAEXXZ 00434540 f i UserAllocator.obj
 0001:00033550       ?lock@SampleMutex@@QAEXXZ  00434550 f i UserAllocator.obj
 0001:00033570       ?malloc@NxUserAllocator@@UAEPAXIW4NxMemoryType@@@Z 00434570 f i UserAllocator.obj
 0001:000335a0       ?mallocDEBUG@NxUserAllocator@@UAEPAXIPBDH0W4NxMemoryType@@@Z 004345a0 f i UserAllocator.obj
 0001:000335d0       ?unlock@SampleMutex@@QAEXXZ 004345d0 f i UserAllocator.obj
 0001:000335f0       _printf                    004345f0 f i UserAllocator.obj
 0001:00033640       ?FindMediaFile@@YAPADPBDPAD@Z 00434640 f   MediaPath_WIN.obj
 0001:00033830       ?GetTempFilePath@@YAPADPAD@Z 00434830 f   MediaPath_WIN.obj
 0001:00033920       ?strrchr@@YAPADQADH@Z      00434920 f i MediaPath_WIN.obj
 0001:00033940       ?getTime@@YAKXZ            00434940 f   Timing_WIN.obj
 0001:00033950       ?getCurrentTime@@YAMXZ     00434950 f   Timing_WIN.obj
 0001:000339a0       ?getElapsedTime@@YAMXZ     004349a0 f   Timing_WIN.obj
 0001:00033aa0       ?PrintControls@@YAXXZ      00434aa0 f   Lesson115.obj
 0001:00033ad0       ?IsSelectable@@YA_NPAVNxActor@@@Z 00434ad0 f   Lesson115.obj
 0001:00033b50       ?SelectNextActor@@YAXXZ    00434b50 f   Lesson115.obj
 0001:00033c10       ?ProcessCameraKeys@@YAXXZ  00434c10 f   Lesson115.obj
 0001:00033ec0       ?SetupCamera@@YAXXZ        00434ec0 f   Lesson115.obj
 0001:00034010       ?RenderActors@@YAX_N@Z     00435010 f   Lesson115.obj
 0001:000340a0       ?DrawForce@@YAXPAVNxActor@@AAVNxVec3@@ABV2@@Z 004350a0 f   Lesson115.obj
 0001:00034140       ?RenderSoftBody@@YAXXZ     00435140 f   Lesson115.obj
 0001:000341c0       ?ApplyForceToActor@@YA?AVNxVec3@@PAVNxActor@@ABV1@M_N@Z 004351c0 f   Lesson115.obj
 0001:00034250       ?ProcessForceKeys@@YAXXZ   00435250 f   Lesson115.obj
 0001:000345a0       ?ProcessInputs@@YAXXZ      004355a0 f   Lesson115.obj
 0001:000345e0       ?RenderCallback@@YAXXZ     004355e0 f   Lesson115.obj
 0001:00034710       ?ReshapeCallback@@YAXHH@Z  00435710 f   Lesson115.obj
 0001:00034740       ?IdleCallback@@YAXXZ       00435740 f   Lesson115.obj
 0001:00034750       ?KeyboardCallback@@YAXEHH@Z 00435750 f   Lesson115.obj
 0001:00034780       ?KeyboardUpCallback@@YAXEHH@Z 00435780 f   Lesson115.obj
 0001:00034950       ?SpecialCallback@@YAXHHH@Z 00435950 f   Lesson115.obj
 0001:00034970       ?MouseCallback@@YAXHHHH@Z  00435970 f   Lesson115.obj
 0001:00034990       ?MotionCallback@@YAXHH@Z   00435990 f   Lesson115.obj
 0001:00034ab0       ?ExitCallback@@YAXXZ       00435ab0 f   Lesson115.obj
 0001:00034ac0       ?InitGlut@@YAXHPAPAD@Z     00435ac0 f   Lesson115.obj
 0001:00034d00       ?SetupAnimalScene@@YAXXZ   00435d00 f   Lesson115.obj
 0001:00035190       ?CreateStack@@YAXXZ        00436190 f   Lesson115.obj
 0001:00035420       ?CreateGroundPlane@@YAPAVNxActor@@XZ 00436420 f   Lesson115.obj
 0001:00035500       ?CreateCapsule@@YAPAVNxActor@@ABVNxVec3@@MMM@Z 00436500 f   Lesson115.obj
 0001:000356d0       ?CreateBox@@YAPAVNxActor@@ABVNxVec3@@0M@Z 004366d0 f   Lesson115.obj
 0001:00035850       ?InitializeHUD@@YAXXZ      00436850 f   Lesson115.obj
 0001:000358f0       ?InitNx@@YAXXZ             004368f0 f   Lesson115.obj
 0001:00035b80       ?ReleaseNx@@YAXXZ          00436b80 f   Lesson115.obj
 0001:00035cc0       ?ResetNx@@YAXXZ            00436cc0 f   Lesson115.obj
 0001:00035cd0       ?StartPhysics@@YAXXZ       00436cd0 f   Lesson115.obj
 0001:00035d20       ?GetPhysicsResults@@YAXXZ  00436d20 f   Lesson115.obj
 0001:00035d50       _main                      00436d50 f   Lesson115.obj
 0001:00036640       ??$?0$$V@?$_Compressed_pair@V?$allocator@I@std@@V?$_Vector_val@U?$_Simple_types@I@std@@@2@$00@std@@QAE@U_Zero_then_variadic_args_t@1@@Z 00437640 f i Lesson115.obj
 0001:00036670       ??$?0$$V@?$_Compressed_pair@V?$allocator@UObjMeshMaterial@@@std@@V?$_Vector_val@U?$_Simple_types@UObjMeshMaterial@@@std@@@2@$00@std@@QAE@U_Zero_then_variadic_args_t@1@@Z 00437670 f i Lesson115.obj
 0001:000366a0       ??$?0$$V@?$_Compressed_pair@V?$allocator@UObjMeshTetraLink@@@std@@V?$_Vector_val@U?$_Simple_types@UObjMeshTetraLink@@@std@@@2@$00@std@@QAE@U_Zero_then_variadic_args_t@1@@Z 004376a0 f i Lesson115.obj
 0001:000366d0       ??$?0$$V@?$_Compressed_pair@V?$allocator@UObjMeshTriangle@@@std@@V?$_Vector_val@U?$_Simple_types@UObjMeshTriangle@@@std@@@2@$00@std@@QAE@U_Zero_then_variadic_args_t@1@@Z 004376d0 f i Lesson115.obj
 0001:00036700       ??$?0I@?$allocator@U_Container_proxy@std@@@std@@QAE@ABV?$allocator@I@1@@Z 00437700 f i Lesson115.obj
 0001:00036720       ??$?0UObjMeshMaterial@@@?$allocator@U_Container_proxy@std@@@std@@QAE@ABV?$allocator@UObjMeshMaterial@@@1@@Z 00437720 f i Lesson115.obj
 0001:00036740       ??$?0UObjMeshTetraLink@@@?$allocator@U_Container_proxy@std@@@std@@QAE@ABV?$allocator@UObjMeshTetraLink@@@1@@Z 00437740 f i Lesson115.obj
 0001:00036760       ??$?0UObjMeshTriangle@@@?$allocator@U_Container_proxy@std@@@std@@QAE@ABV?$allocator@UObjMeshTriangle@@@1@@Z 00437760 f i Lesson115.obj
 0001:00036780       ??$addressof@V?$_Vector_val@U?$_Simple_types@I@std@@@std@@@std@@YAPAV?$_Vector_val@U?$_Simple_types@I@std@@@0@AAV10@@Z 00437780 f i Lesson115.obj
 0001:00036790       ??$addressof@V?$_Vector_val@U?$_Simple_types@UObjMeshMaterial@@@std@@@std@@@std@@YAPAV?$_Vector_val@U?$_Simple_types@UObjMeshMaterial@@@std@@@0@AAV10@@Z 00437790 f i Lesson115.obj
 0001:000367a0       ??$addressof@V?$_Vector_val@U?$_Simple_types@UObjMeshTetraLink@@@std@@@std@@@std@@YAPAV?$_Vector_val@U?$_Simple_types@UObjMeshTetraLink@@@std@@@0@AAV10@@Z 004377a0 f i Lesson115.obj
 0001:000367b0       ??$addressof@V?$_Vector_val@U?$_Simple_types@UObjMeshTriangle@@@std@@@std@@@std@@YAPAV?$_Vector_val@U?$_Simple_types@UObjMeshTriangle@@@std@@@0@AAV10@@Z 004377b0 f i Lesson115.obj
 0001:000367c0       ??0?$NxArray@PAVMySoftBody@@VNxAllocatorDefault@@@@QAE@XZ 004377c0 f i Lesson115.obj
 0001:00036800       ??0?$NxArray@PAVNxShapeDesc@@VNxAllocatorDefault@@@@QAE@XZ 00437800 f i Lesson115.obj
 0001:00036840       ??0?$NxArray@PAVObjMesh@@VNxAllocatorDefault@@@@QAE@XZ 00437840 f i Lesson115.obj
 0001:00036880       ??0?$NxArray@VDisplayString@@VNxAllocatorDefault@@@@QAE@XZ 00437880 f i Lesson115.obj
 0001:000368c0       ??0?$_Vb_val@V?$allocator@_N@std@@@std@@QAE@XZ 004378c0 f i Lesson115.obj
 0001:00036940       ??0?$_Vector_alloc@U?$_Vec_base_types@IV?$allocator@I@std@@@std@@@std@@QAE@XZ 00437940 f i Lesson115.obj
 0001:00036970       ??0?$_Vector_alloc@U?$_Vec_base_types@UObjMeshMaterial@@V?$allocator@UObjMeshMaterial@@@std@@@std@@@std@@QAE@XZ 00437970 f i Lesson115.obj
 0001:000369a0       ??0?$_Vector_alloc@U?$_Vec_base_types@UObjMeshTetraLink@@V?$allocator@UObjMeshTetraLink@@@std@@@std@@@std@@QAE@XZ 004379a0 f i Lesson115.obj
 0001:000369d0       ??0?$_Vector_alloc@U?$_Vec_base_types@UObjMeshTriangle@@V?$allocator@UObjMeshTriangle@@@std@@@std@@@std@@QAE@XZ 004379d0 f i Lesson115.obj
 0001:00036a00       ??0?$_Vector_val@U?$_Simple_types@I@std@@@std@@QAE@XZ 00437a00 f i Lesson115.obj
 0001:00036a50       ??0?$_Vector_val@U?$_Simple_types@UObjMeshMaterial@@@std@@@std@@QAE@XZ 00437a50 f i Lesson115.obj
 0001:00036aa0       ??0?$_Vector_val@U?$_Simple_types@UObjMeshTetraLink@@@std@@@std@@QAE@XZ 00437aa0 f i Lesson115.obj
 0001:00036af0       ??0?$_Vector_val@U?$_Simple_types@UObjMeshTriangle@@@std@@@std@@QAE@XZ 00437af0 f i Lesson115.obj
 0001:00036b40       ??0?$allocator@I@std@@QAE@XZ 00437b40 f i Lesson115.obj
 0001:00036b60       ??0?$allocator@UObjMeshMaterial@@@std@@QAE@XZ 00437b60 f i Lesson115.obj
 0001:00036b80       ??0?$allocator@UObjMeshTetraLink@@@std@@QAE@XZ 00437b80 f i Lesson115.obj
 0001:00036ba0       ??0?$allocator@UObjMeshTriangle@@@std@@QAE@XZ 00437ba0 f i Lesson115.obj
 0001:00036bc0       ??0?$vector@IV?$allocator@I@std@@@std@@QAE@XZ 00437bc0 f i Lesson115.obj
 0001:00036c10       ??0?$vector@UObjMeshMaterial@@V?$allocator@UObjMeshMaterial@@@std@@@std@@QAE@XZ 00437c10 f i Lesson115.obj
 0001:00036c60       ??0?$vector@UObjMeshTetraLink@@V?$allocator@UObjMeshTetraLink@@@std@@@std@@QAE@XZ 00437c60 f i Lesson115.obj
 0001:00036cb0       ??0?$vector@UObjMeshTriangle@@V?$allocator@UObjMeshTriangle@@@std@@@std@@QAE@XZ 00437cb0 f i Lesson115.obj
 0001:00036d00       ??0?$vector@_NV?$allocator@_N@std@@@std@@QAE@XZ 00437d00 f i Lesson115.obj
 0001:00036d20       ??0HUD@@QAE@XZ             00437d20 f i Lesson115.obj
 0001:00036d40       ??0NxActorDesc@@QAE@XZ     00437d40 f i Lesson115.obj
 0001:00036de0       ??0NxActorDescBase@@IAE@XZ 00437de0 f i Lesson115.obj
 0001:00036e00       ??0NxBodyDesc@@QAE@XZ      00437e00 f i Lesson115.obj
 0001:00036ea0       ??0NxBoxShapeDesc@@QAE@XZ  00437ea0 f i Lesson115.obj
 0001:00036f30       ??0NxCapsuleShapeDesc@@QAE@XZ 00437f30 f i Lesson115.obj
 0001:00036fb0       ??0NxGroupsMask@@QAE@XZ    00437fb0 f i Lesson115.obj
 0001:00036fd0       ??0NxPhysicsSDKDesc@@QAE@XZ 00437fd0 f i Lesson115.obj
 0001:00036ff0       ??0NxPlaneShapeDesc@@QAE@XZ 00437ff0 f i Lesson115.obj
 0001:00037080       ??0NxQuat@@QAE@MABVNxVec3@@@Z 00438080 f i Lesson115.obj
 0001:000370b0       ??0NxQuat@@QAE@XZ          004380b0 f i Lesson115.obj
 0001:000370d0       ??0NxSceneDesc@@QAE@XZ     004380d0 f i Lesson115.obj
 0001:00037100       ??0NxShapeDesc@@IAE@W4NxShapeType@@@Z 00438100 f i Lesson115.obj
 0001:000371a0       ??0NxSoftBodyDesc@@QAE@XZ  004381a0 f i Lesson115.obj
 0001:00037280       ??0NxSoftBodySplitPairData@@QAE@XZ 00438280 f i Lesson115.obj
 0001:000372a0       ??0ObjMesh@@QAE@XZ         004382a0 f i Lesson115.obj
 0001:000373c0       ??1?$NxArray@PAVMySoftBody@@VNxAllocatorDefault@@@@QAE@XZ 004383c0 f i Lesson115.obj
 0001:00037460       ??1?$NxArray@PAVNxShapeDesc@@VNxAllocatorDefault@@@@QAE@XZ 00438460 f i Lesson115.obj
 0001:00037500       ??1?$NxArray@PAVObjMesh@@VNxAllocatorDefault@@@@QAE@XZ 00438500 f i Lesson115.obj
 0001:000375a0       ??1?$NxArray@VDisplayString@@VNxAllocatorDefault@@@@QAE@XZ 004385a0 f i Lesson115.obj
 0001:00037640       ??1?$_Vb_val@V?$allocator@_N@std@@@std@@QAE@XZ 00438640 f i Lesson115.obj
 0001:000376a0       ??1?$_Vector_alloc@U?$_Vec_base_types@IV?$allocator@I@std@@@std@@@std@@QAE@XZ 004386a0 f i Lesson115.obj
 0001:000376f0       ??1?$_Vector_alloc@U?$_Vec_base_types@UObjMeshMaterial@@V?$allocator@UObjMeshMaterial@@@std@@@std@@@std@@QAE@XZ 004386f0 f i Lesson115.obj
 0001:00037740       ??1?$_Vector_alloc@U?$_Vec_base_types@UObjMeshTetraLink@@V?$allocator@UObjMeshTetraLink@@@std@@@std@@@std@@QAE@XZ 00438740 f i Lesson115.obj
 0001:00037790       ??1?$_Vector_alloc@U?$_Vec_base_types@UObjMeshTriangle@@V?$allocator@UObjMeshTriangle@@@std@@@std@@@std@@QAE@XZ 00438790 f i Lesson115.obj
 0001:000377e0       ??1?$vector@IV?$allocator@I@std@@@std@@QAE@XZ 004387e0 f i Lesson115.obj
 0001:00037840       ??1?$vector@UObjMeshMaterial@@V?$allocator@UObjMeshMaterial@@@std@@@std@@QAE@XZ 00438840 f i Lesson115.obj
 0001:000378a0       ??1?$vector@UObjMeshTetraLink@@V?$allocator@UObjMeshTetraLink@@@std@@@std@@QAE@XZ 004388a0 f i Lesson115.obj
 0001:00037900       ??1?$vector@UObjMeshTriangle@@V?$allocator@UObjMeshTriangle@@@std@@@std@@QAE@XZ 00438900 f i Lesson115.obj
 0001:00037960       ??1?$vector@_NV?$allocator@_N@std@@@std@@QAE@XZ 00438960 f i Lesson115.obj
 0001:00037980       ??1HUD@@QAE@XZ             00438980 f i Lesson115.obj
 0001:000379a0       ??1NxActorDesc@@QAE@XZ     004389a0 f i Lesson115.obj
 0001:000379d0       ??1NxActorDescBase@@QAE@XZ 004389d0 f i Lesson115.obj
 0001:000379f0       ??1NxBodyDesc@@QAE@XZ      004389f0 f i Lesson115.obj
 0001:00037a10       ??1NxBoxShapeDesc@@UAE@XZ  00438a10 f i Lesson115.obj
 0001:00037a30       ??1NxCapsuleShapeDesc@@UAE@XZ 00438a30 f i Lesson115.obj
 0001:00037a50       ??1NxGroupsMask@@QAE@XZ    00438a50 f i Lesson115.obj
 0001:00037a60       ??1NxPlaneShapeDesc@@UAE@XZ 00438a60 f i Lesson115.obj
 0001:00037a80       ??1NxShapeDesc@@UAE@XZ     00438a80 f i Lesson115.obj
 0001:00037ac0       ??1NxSoftBodyDesc@@QAE@XZ  00438ac0 f i Lesson115.obj
 0001:00037b30       ??1NxSoftBodySplitPairData@@QAE@XZ 00438b30 f i Lesson115.obj
 0001:00037b40       ??1ObjMesh@@QAE@XZ         00438b40 f i Lesson115.obj
 0001:00037bd0       ??A?$NxArray@PAVNxShapeDesc@@VNxAllocatorDefault@@@@QBEABQAVNxShapeDesc@@I@Z 00438bd0 f i Lesson115.obj
 0001:00037bf0       ??D@YA?AVNxVec3@@MABV0@@Z  00438bf0 f i Lesson115.obj
 0001:00037c50       ??KNxVec3@@QBE?AV0@M@Z     00438c50 f i Lesson115.obj
 0001:00037cd0       ??_ENxBoxShapeDesc@@UAEPAXI@Z 00438cd0 f i Lesson115.obj
 0001:00037cd0       ??_GNxBoxShapeDesc@@UAEPAXI@Z 00438cd0 f i Lesson115.obj
 0001:00037d10       ??_GNxCapsuleShapeDesc@@UAEPAXI@Z 00438d10 f i Lesson115.obj
 0001:00037d10       ??_ENxCapsuleShapeDesc@@UAEPAXI@Z 00438d10 f i Lesson115.obj
 0001:00037d50       ??_GNxPlaneShapeDesc@@UAEPAXI@Z 00438d50 f i Lesson115.obj
 0001:00037d50       ??_ENxPlaneShapeDesc@@UAEPAXI@Z 00438d50 f i Lesson115.obj
 0001:00037d90       ??_GNxShapeDesc@@UAEPAXI@Z 00438d90 f i Lesson115.obj
 0001:00037d90       ??_ENxShapeDesc@@UAEPAXI@Z 00438d90 f i Lesson115.obj
 0001:00037dd0       ??_GObjMesh@@QAEPAXI@Z     00438dd0 f i Lesson115.obj
 0001:00037e10       ?_Alloc_proxy@?$_Vb_val@V?$allocator@_N@std@@@std@@QAEXXZ 00438e10 f i Lesson115.obj
 0001:00037e90       ?_Alloc_proxy@?$_Vector_alloc@U?$_Vec_base_types@IV?$allocator@I@std@@@std@@@std@@QAEXXZ 00438e90 f i Lesson115.obj
 0001:00037f30       ?_Alloc_proxy@?$_Vector_alloc@U?$_Vec_base_types@UObjMeshMaterial@@V?$allocator@UObjMeshMaterial@@@std@@@std@@@std@@QAEXXZ 00438f30 f i Lesson115.obj
 0001:00037fd0       ?_Alloc_proxy@?$_Vector_alloc@U?$_Vec_base_types@UObjMeshTetraLink@@V?$allocator@UObjMeshTetraLink@@@std@@@std@@@std@@QAEXXZ 00438fd0 f i Lesson115.obj
 0001:00038070       ?_Alloc_proxy@?$_Vector_alloc@U?$_Vec_base_types@UObjMeshTriangle@@V?$allocator@UObjMeshTriangle@@@std@@@std@@@std@@QAEXXZ 00439070 f i Lesson115.obj
 0001:00038110       ?_Free_proxy@?$_Vb_val@V?$allocator@_N@std@@@std@@QAEXXZ 00439110 f i Lesson115.obj
 0001:00038180       ?_Free_proxy@?$_Vector_alloc@U?$_Vec_base_types@IV?$allocator@I@std@@@std@@@std@@QAEXXZ 00439180 f i Lesson115.obj
 0001:00038200       ?_Free_proxy@?$_Vector_alloc@U?$_Vec_base_types@UObjMeshMaterial@@V?$allocator@UObjMeshMaterial@@@std@@@std@@@std@@QAEXXZ 00439200 f i Lesson115.obj
 0001:00038280       ?_Free_proxy@?$_Vector_alloc@U?$_Vec_base_types@UObjMeshTetraLink@@V?$allocator@UObjMeshTetraLink@@@std@@@std@@@std@@QAEXXZ 00439280 f i Lesson115.obj
 0001:00038300       ?_Free_proxy@?$_Vector_alloc@U?$_Vec_base_types@UObjMeshTriangle@@V?$allocator@UObjMeshTriangle@@@std@@@std@@@std@@QAEXXZ 00439300 f i Lesson115.obj
 0001:00038380       ?_Myproxy@?$_Vector_alloc@U?$_Vec_base_types@IV?$allocator@I@std@@@std@@@std@@QAEAAPAU_Container_proxy@2@XZ 00439380 f i Lesson115.obj
 0001:000383a0       ?_Myproxy@?$_Vector_alloc@U?$_Vec_base_types@UObjMeshMaterial@@V?$allocator@UObjMeshMaterial@@@std@@@std@@@std@@QAEAAPAU_Container_proxy@2@XZ 004393a0 f i Lesson115.obj
 0001:000383c0       ?_Myproxy@?$_Vector_alloc@U?$_Vec_base_types@UObjMeshTetraLink@@V?$allocator@UObjMeshTetraLink@@@std@@@std@@@std@@QAEAAPAU_Container_proxy@2@XZ 004393c0 f i Lesson115.obj
 0001:000383e0       ?_Myproxy@?$_Vector_alloc@U?$_Vec_base_types@UObjMeshTriangle@@V?$allocator@UObjMeshTriangle@@@std@@@std@@@std@@QAEAAPAU_Container_proxy@2@XZ 004393e0 f i Lesson115.obj
 0001:00038400       ?_Tidy@?$vector@IV?$allocator@I@std@@@std@@AAEXXZ 00439400 f i Lesson115.obj
 0001:000384b0       ?_Tidy@?$vector@UObjMeshMaterial@@V?$allocator@UObjMeshMaterial@@@std@@@std@@AAEXXZ 004394b0 f i Lesson115.obj
 0001:00038560       ?_Tidy@?$vector@UObjMeshTetraLink@@V?$allocator@UObjMeshTetraLink@@@std@@@std@@AAEXXZ 00439560 f i Lesson115.obj
 0001:00038610       ?_Tidy@?$vector@UObjMeshTriangle@@V?$allocator@UObjMeshTriangle@@@std@@@std@@AAEXXZ 00439610 f i Lesson115.obj
 0001:000386c0       ?allocate@?$NxArray@PAVMySoftBody@@VNxAllocatorDefault@@@@AAEPAPAVMySoftBody@@I@Z 004396c0 f i Lesson115.obj
 0001:00038700       ?allocate@?$NxArray@PAVNxShapeDesc@@VNxAllocatorDefault@@@@AAEPAPAVNxShapeDesc@@I@Z 00439700 f i Lesson115.obj
 0001:00038740       ?allocate@?$NxArray@PAVObjMesh@@VNxAllocatorDefault@@@@AAEPAPAVObjMesh@@I@Z 00439740 f i Lesson115.obj
 0001:00038780       ?begin@?$NxArray@PAVMySoftBody@@VNxAllocatorDefault@@@@QAEPAPAVMySoftBody@@XZ 00439780 f i Lesson115.obj
 0001:000387a0       ?begin@?$NxArray@PAVNxShapeDesc@@VNxAllocatorDefault@@@@QAEPAPAVNxShapeDesc@@XZ 004397a0 f i Lesson115.obj
 0001:000387c0       ?begin@?$NxArray@PAVObjMesh@@VNxAllocatorDefault@@@@QAEPAPAVObjMesh@@XZ 004397c0 f i Lesson115.obj
 0001:000387e0       ?capacity@?$NxArray@PAVMySoftBody@@VNxAllocatorDefault@@@@QBEIXZ 004397e0 f i Lesson115.obj
 0001:00038820       ?capacity@?$NxArray@PAVNxShapeDesc@@VNxAllocatorDefault@@@@QBEIXZ 00439820 f i Lesson115.obj
 0001:00038860       ?capacity@?$NxArray@PAVObjMesh@@VNxAllocatorDefault@@@@QBEIXZ 00439860 f i Lesson115.obj
 0001:000388a0       ?clear@?$NxArray@PAVMySoftBody@@VNxAllocatorDefault@@@@QAEXXZ 004398a0 f i Lesson115.obj
 0001:000388e0       ?clear@?$NxArray@PAVNxShapeDesc@@VNxAllocatorDefault@@@@QAEXXZ 004398e0 f i Lesson115.obj
 0001:00038920       ?clear@?$NxArray@PAVObjMesh@@VNxAllocatorDefault@@@@QAEXXZ 00439920 f i Lesson115.obj
 0001:00038960       ?copy@?$NxArray@PAVMySoftBody@@VNxAllocatorDefault@@@@AAEPAPAVMySoftBody@@PBQAV2@0PAPAV2@@Z 00439960 f i Lesson115.obj
 0001:000389b0       ?copy@?$NxArray@PAVNxShapeDesc@@VNxAllocatorDefault@@@@AAEPAPAVNxShapeDesc@@PBQAV2@0PAPAV2@@Z 004399b0 f i Lesson115.obj
 0001:00038a00       ?copy@?$NxArray@PAVObjMesh@@VNxAllocatorDefault@@@@AAEPAPAVObjMesh@@PBQAV2@0PAPAV2@@Z 00439a00 f i Lesson115.obj
 0001:00038a50       ?cos@NxMath@@SAMM@Z        00439a50 f i Lesson115.obj
 0001:00038a70       ?deallocate@?$NxArray@PAVMySoftBody@@VNxAllocatorDefault@@@@AAEXPAPAVMySoftBody@@@Z 00439a70 f i Lesson115.obj
 0001:00038aa0       ?deallocate@?$NxArray@PAVNxShapeDesc@@VNxAllocatorDefault@@@@AAEXPAPAVNxShapeDesc@@@Z 00439aa0 f i Lesson115.obj
 0001:00038ad0       ?deallocate@?$NxArray@PAVObjMesh@@VNxAllocatorDefault@@@@AAEXPAPAVObjMesh@@@Z 00439ad0 f i Lesson115.obj
 0001:00038b00       ?degToRad@NxMath@@SAMM@Z   00439b00 f i Lesson115.obj
 0001:00038b30       ?destroy@?$NxArray@PAVMySoftBody@@VNxAllocatorDefault@@@@AAEXPAPAVMySoftBody@@0@Z 00439b30 f i Lesson115.obj
 0001:00038b60       ?destroy@?$NxArray@PAVNxShapeDesc@@VNxAllocatorDefault@@@@AAEXPAPAVNxShapeDesc@@0@Z 00439b60 f i Lesson115.obj
 0001:00038b90       ?destroy@?$NxArray@PAVObjMesh@@VNxAllocatorDefault@@@@AAEXPAPAVObjMesh@@0@Z 00439b90 f i Lesson115.obj
 0001:00038bc0       ?end@?$NxArray@PAVMySoftBody@@VNxAllocatorDefault@@@@QAEPAPAVMySoftBody@@XZ 00439bc0 f i Lesson115.obj
 0001:00038be0       ?end@?$NxArray@PAVNxShapeDesc@@VNxAllocatorDefault@@@@QAEPAPAVNxShapeDesc@@XZ 00439be0 f i Lesson115.obj
 0001:00038c00       ?end@?$NxArray@PAVObjMesh@@VNxAllocatorDefault@@@@QAEPAPAVObjMesh@@XZ 00439c00 f i Lesson115.obj
 0001:00038c20       ?fromAngleAxis@NxQuat@@QAEXMABVNxVec3@@@Z 00439c20 f i Lesson115.obj
 0001:00038dd0       ?getNxSoftBody@MySoftBody@@QAEPAVNxSoftBody@@XZ 00439dd0 f i Lesson115.obj
 0001:00038df0       ?id@NxMat34@@QAEXXZ        00439df0 f i Lesson115.obj
 0001:00038e20       ?isValid@NxActorDesc@@QBE_NXZ 00439e20 f i Lesson115.obj
 0001:00038fa0       ?isValid@NxActorDescBase@@QBE_NXZ 00439fa0 f i Lesson115.obj
 0001:00039020       ?isValid@NxBodyDesc@@QBE_NXZ 0043a020 f i Lesson115.obj
 0001:000390f0       ?isValid@NxBoxShapeDesc@@UBE_NXZ 0043a0f0 f i Lesson115.obj
 0001:00039160       ?isValid@NxCapsuleShapeDesc@@UBE_NXZ 0043a160 f i Lesson115.obj
 0001:00039200       ?isValid@NxPlaneShapeDesc@@UBE_NXZ 0043a200 f i Lesson115.obj
 0001:00039260       ?isValid@NxShapeDesc@@UBE_NXZ 0043a260 f i Lesson115.obj
 0001:00039300       ?isValidInternal@NxActorDescBase@@IBE_N_N@Z 0043a300 f i Lesson115.obj
 0001:00039460       ?isZero@NxVec3@@QBEHXZ     0043a460 f i Lesson115.obj
 0001:000394d0       ?multiply@NxQuat@@QAEXABV1@ABVNxVec3@@@Z 0043a4d0 f i Lesson115.obj
 0001:00039660       ?pushBack@?$NxArray@PAVMySoftBody@@VNxAllocatorDefault@@@@QAEXABQAVMySoftBody@@@Z 0043a660 f i Lesson115.obj
 0001:000396c0       ?pushBack@?$NxArray@PAVNxShapeDesc@@VNxAllocatorDefault@@@@QAEXABQAVNxShapeDesc@@@Z 0043a6c0 f i Lesson115.obj
 0001:00039720       ?pushBack@?$NxArray@PAVObjMesh@@VNxAllocatorDefault@@@@QAEXABQAVObjMesh@@@Z 0043a720 f i Lesson115.obj
 0001:00039780       ?push_back@?$NxArray@PAVMySoftBody@@VNxAllocatorDefault@@@@QAEXABQAVMySoftBody@@@Z 0043a780 f i Lesson115.obj
 0001:000397a0       ?push_back@?$NxArray@PAVObjMesh@@VNxAllocatorDefault@@@@QAEXABQAVObjMesh@@@Z 0043a7a0 f i Lesson115.obj
 0001:000397c0       ?reserve@?$NxArray@PAVMySoftBody@@VNxAllocatorDefault@@@@QAEXI@Z 0043a7c0 f i Lesson115.obj
 0001:00039880       ?reserve@?$NxArray@PAVNxShapeDesc@@VNxAllocatorDefault@@@@QAEXI@Z 0043a880 f i Lesson115.obj
 0001:00039940       ?reserve@?$NxArray@PAVObjMesh@@VNxAllocatorDefault@@@@QAEXI@Z 0043a940 f i Lesson115.obj
 0001:00039a00       ?rotX@NxMat33@@QAEXM@Z     0043aa00 f i Lesson115.obj
 0001:00039af0       ?rotate@NxQuat@@QBEXAAVNxVec3@@@Z 0043aaf0 f i Lesson115.obj
 0001:00039c70       ?setToDefault@NxActorDesc@@QAEXXZ 0043ac70 f i Lesson115.obj
 0001:00039ca0       ?setToDefault@NxActorDescBase@@QAEXXZ 0043aca0 f i Lesson115.obj
 0001:00039d40       ?setToDefault@NxBodyDesc@@QAEXXZ 0043ad40 f i Lesson115.obj
 0001:00039e80       ?setToDefault@NxBoxShapeDesc@@UAEXXZ 0043ae80 f i Lesson115.obj
 0001:00039eb0       ?setToDefault@NxCapsuleShapeDesc@@UAEXXZ 0043aeb0 f i Lesson115.obj
 0001:00039f00       ?setToDefault@NxPhysicsSDKDesc@@QAEXXZ 0043af00 f i Lesson115.obj
 0001:00039f70       ?setToDefault@NxPlaneShapeDesc@@UAEXXZ 0043af70 f i Lesson115.obj
 0001:00039fd0       ?setToDefault@NxSceneDesc@@QAEXXZ 0043afd0 f i Lesson115.obj
 0001:0003a1f0       ?setToDefault@NxShapeDesc@@UAEXXZ 0043b1f0 f i Lesson115.obj
 0001:0003a2d0       ?setToDefault@NxSoftBodyDesc@@QAEXXZ 0043b2d0 f i Lesson115.obj
 0001:0003a580       ?setToDefault@NxSoftBodySplitPairData@@QAEXXZ 0043b580 f i Lesson115.obj
 0001:0003a5c0       ?sin@NxMath@@SAMM@Z        0043b5c0 f i Lesson115.obj
 0001:0003a5e0       ?size@?$NxArray@PAVMySoftBody@@VNxAllocatorDefault@@@@QBEIXZ 0043b5e0 f i Lesson115.obj
 0001:0003a600       ?size@?$NxArray@PAVNxShapeDesc@@VNxAllocatorDefault@@@@QBEIXZ 0043b600 f i Lesson115.obj
 0001:0003a620       ?size@?$NxArray@PAVObjMesh@@VNxAllocatorDefault@@@@QBEIXZ 0043b620 f i Lesson115.obj
 0001:0003a65f       _NxGetUtilLib              0043b65f f   PhysXLoader:PhysXLoader.dll
 0001:0003a665       _NxGetCookingLib           0043b665 f   PhysXLoader:PhysXLoader.dll
 0001:0003a66b       _NxGetPhysicsSDKAllocator  0043b66b f   PhysXLoader:PhysXLoader.dll
 0001:0003a671       _NxCreatePhysicsSDK        0043b671 f   PhysXLoader:PhysXLoader.dll
 0001:0003a677       _NxInitCooking             0043b677 f   PhysXCooking:PhysXCooking.dll
 0001:0003a67d       _NxCloseCooking            0043b67d f   PhysXCooking:PhysXCooking.dll
 0001:0003a683       _NxCookSoftBodyMesh        0043b683 f   PhysXCooking:PhysXCooking.dll
 0001:0003a689       _InitializeCriticalSection@4 0043b689 f   kernel32:KERNEL32.dll
 0001:0003a68f       _EnterCriticalSection@4    0043b68f f   kernel32:KERNEL32.dll
 0001:0003a695       _LeaveCriticalSection@4    0043b695 f   kernel32:KERNEL32.dll
 0001:0003a69b       _DeleteCriticalSection@4   0043b69b f   kernel32:KERNEL32.dll
 0001:0003a6a1       _SetCurrentDirectoryA@4    0043b6a1 f   kernel32:KERNEL32.dll
 0001:0003a6a7       _GetCurrentDirectoryA@8    0043b6a7 f   kernel32:KERNEL32.dll
 0001:0003a6ad       _GetModuleFileNameA@12     0043b6ad f   kernel32:KERNEL32.dll
 0001:0003a6b3       _QueryPerformanceCounter@4 0043b6b3 f   kernel32:KERNEL32.dll
 0001:0003a6b9       _QueryPerformanceFrequency@4 0043b6b9 f   kernel32:KERNEL32.dll
 0001:0003a6bf       _glutSolidSphere@16        0043b6bf f   glut32:glut32.dll
 0001:0003a6c5       _glutSolidCube@8           0043b6c5 f   glut32:glut32.dll
 0001:0003a6cb       _glutGet@4                 0043b6cb f   glut32:glut32.dll
 0001:0003a6d1       ___glutInitWithExit@12     0043b6d1 f   glut32:glut32.dll
 0001:0003a6d7       _glutInitDisplayMode@4     0043b6d7 f   glut32:glut32.dll
 0001:0003a6dd       _glutInitWindowSize@8      0043b6dd f   glut32:glut32.dll
 0001:0003a6e3       _glutMainLoop@0            0043b6e3 f   glut32:glut32.dll
 0001:0003a6e9       ___glutCreateWindowWithExit@8 0043b6e9 f   glut32:glut32.dll
 0001:0003a6ef       _glutPostRedisplay@0       0043b6ef f   glut32:glut32.dll
 0001:0003a6f5       _glutSwapBuffers@0         0043b6f5 f   glut32:glut32.dll
 0001:0003a6fb       _glutSetWindow@4           0043b6fb f   glut32:glut32.dll
 0001:0003a701       _glutDisplayFunc@4         0043b701 f   glut32:glut32.dll
 0001:0003a707       _glutReshapeFunc@4         0043b707 f   glut32:glut32.dll
 0001:0003a70d       _glutKeyboardFunc@4        0043b70d f   glut32:glut32.dll
 0001:0003a713       _glutMouseFunc@4           0043b713 f   glut32:glut32.dll
 0001:0003a719       _glutMotionFunc@4          0043b719 f   glut32:glut32.dll
 0001:0003a71f       _glutIdleFunc@4            0043b71f f   glut32:glut32.dll
 0001:0003a725       _glutSpecialFunc@4         0043b725 f   glut32:glut32.dll
 0001:0003a72b       _glutKeyboardUpFunc@4      0043b72b f   glut32:glut32.dll
 0001:0003a731       _timeGetTime@0             0043b731 f   winmm:WINMM.dll
 0001:0003a737       _glColor4f@16              0043b737 f   opengl32:OPENGL32.dll
 0001:0003a73d       _glDisable@4               0043b73d f   opengl32:OPENGL32.dll
 0001:0003a743       _glDisableClientState@4    0043b743 f   opengl32:OPENGL32.dll
 0001:0003a749       _glDrawArrays@12           0043b749 f   opengl32:OPENGL32.dll
 0001:0003a74f       _glDrawElements@16         0043b74f f   opengl32:OPENGL32.dll
 0001:0003a755       _glEnable@4                0043b755 f   opengl32:OPENGL32.dll
 0001:0003a75b       _glEnableClientState@4     0043b75b f   opengl32:OPENGL32.dll
 0001:0003a761       _glLineWidth@4             0043b761 f   opengl32:OPENGL32.dll
 0001:0003a767       _glMultMatrixf@4           0043b767 f   opengl32:OPENGL32.dll
 0001:0003a76d       _glNormalPointer@12        0043b76d f   opengl32:OPENGL32.dll
 0001:0003a773       _glPopMatrix@0             0043b773 f   opengl32:OPENGL32.dll
 0001:0003a779       _glPushMatrix@0            0043b779 f   opengl32:OPENGL32.dll
 0001:0003a77f       _glRotatef@16              0043b77f f   opengl32:OPENGL32.dll
 0001:0003a785       _glScalef@12               0043b785 f   opengl32:OPENGL32.dll
 0001:0003a78b       _glTranslatef@12           0043b78b f   opengl32:OPENGL32.dll
 0001:0003a791       _glVertexPointer@16        0043b791 f   opengl32:OPENGL32.dll
 0001:0003a797       _glBindTexture@8           0043b797 f   opengl32:OPENGL32.dll
 0001:0003a79d       _glBlendFunc@8             0043b79d f   opengl32:OPENGL32.dll
 0001:0003a7a3       _glGenTextures@8           0043b7a3 f   opengl32:OPENGL32.dll
 0001:0003a7a9       _glLoadIdentity@0          0043b7a9 f   opengl32:OPENGL32.dll
 0001:0003a7af       _glMatrixMode@4            0043b7af f   opengl32:OPENGL32.dll
 0001:0003a7b5       _glOrtho@48                0043b7b5 f   opengl32:OPENGL32.dll
 0001:0003a7bb       _glTexCoordPointer@16      0043b7bb f   opengl32:OPENGL32.dll
 0001:0003a7c1       _glTexImage2D@36           0043b7c1 f   opengl32:OPENGL32.dll
 0001:0003a7c7       _glTexParameterf@12        0043b7c7 f   opengl32:OPENGL32.dll
 0001:0003a7cd       _glClear@4                 0043b7cd f   opengl32:OPENGL32.dll
 0001:0003a7d3       _glClearColor@16           0043b7d3 f   opengl32:OPENGL32.dll
 0001:0003a7d9       _glColorMask@16            0043b7d9 f   opengl32:OPENGL32.dll
 0001:0003a7df       _glDeleteTextures@8        0043b7df f   opengl32:OPENGL32.dll
 0001:0003a7e5       _glGetDoublev@8            0043b7e5 f   opengl32:OPENGL32.dll
 0001:0003a7eb       _glGetIntegerv@8           0043b7eb f   opengl32:OPENGL32.dll
 0001:0003a7f1       _glPixelStorei@8           0043b7f1 f   opengl32:OPENGL32.dll
 0001:0003a7f7       _glPolygonMode@8           0043b7f7 f   opengl32:OPENGL32.dll
 0001:0003a7fd       _glReadPixels@28           0043b7fd f   opengl32:OPENGL32.dll
 0001:0003a803       _glTexParameteri@12        0043b803 f   opengl32:OPENGL32.dll
 0001:0003a809       _glColor4fv@4              0043b809 f   opengl32:OPENGL32.dll
 0001:0003a80f       _glColorPointer@16         0043b80f f   opengl32:OPENGL32.dll
 0001:0003a815       _glFlush@0                 0043b815 f   opengl32:OPENGL32.dll
 0001:0003a81b       _glLightfv@12              0043b81b f   opengl32:OPENGL32.dll
 0001:0003a821       _glViewport@16             0043b821 f   opengl32:OPENGL32.dll
 0001:0003a827       _gluProject@48             0043b827 f   glu32:GLU32.dll
 0001:0003a82d       _gluUnProject@48           0043b82d f   glu32:GLU32.dll
 0001:0003a833       _gluPerspective@32         0043b833 f   glu32:GLU32.dll
 0001:0003a839       _gluLookAt@72              0043b839 f   glu32:GLU32.dll
 0001:0003a840       ??_U@YAPAXI@Z              0043b840 f   LIBCMTD:new_array.obj
 0001:0003a860       ??_V@YAXPAX@Z              0043b860 f   LIBCMTD:delete_array.obj
 0001:0003a880       @__security_check_cookie@4 0043b880 f   LIBCMTD:secchk.obj
 0001:0003a8a0       ??2@YAPAXI@Z               0043b8a0 f   LIBCMTD:new_scalar.obj
 0001:0003a900       ??3@YAXPAXI@Z              0043b900 f   LIBCMTD:delete_scalar_size.obj
 0001:0003a920       ??_V@YAXPAXI@Z             0043b920 f   LIBCMTD:delete_array_size.obj
 0001:0003a940       ??1type_info@@UAE@XZ       0043b940 f   LIBCMTD:std_type_info_static.obj
 0001:0003a960       ??_Etype_info@@UAEPAXI@Z   0043b960 f i LIBCMTD:std_type_info_static.obj
 0001:0003a960       ??_Gtype_info@@UAEPAXI@Z   0043b960 f i LIBCMTD:std_type_info_static.obj
 0001:0003a9a0       ___raise_securityfailure   0043b9a0 f   LIBCMTD:gs_report.obj
 0001:0003a9e0       ___report_gsfailure        0043b9e0 f   LIBCMTD:gs_report.obj
 0001:0003ab30       ___report_rangecheckfailure 0043bb30 f   LIBCMTD:gs_report.obj
 0001:0003ab40       ___report_securityfailure  0043bb40 f   LIBCMTD:gs_report.obj
 0001:0003ac50       ___report_securityfailureEx 0043bc50 f   LIBCMTD:gs_report.obj
 0001:0003adc0       __alloca_probe             0043bdc0 f   LIBCMTD:chkstk.obj
 0001:0003adc0       __chkstk                   0043bdc0 f   LIBCMTD:chkstk.obj
 0001:0003ae00       ??$__crt_fast_decode_pointer@PAP6AXXZ@@YAPAP6AXXZQAP6AXXZ@Z 0043be00 f i LIBCMTD:utility.obj
 0001:0003ae30       ??$__crt_fast_encode_pointer@PAP6AXXZ@@YAPAP6AXXZQAP6AXXZ@Z 0043be30 f i LIBCMTD:utility.obj
 0001:0003ae70       ?__crt_rotate_pointer_value@@YAIIH@Z 0043be70 f i LIBCMTD:utility.obj
 0001:0003ae80       ?configure_argv@__scrt_narrow_argv_policy@@SAHXZ 0043be80 f i LIBCMTD:utility.obj
 0001:0003af50       ?initialize_environment@__scrt_narrow_environment_policy@@SAHXZ 0043bf50 f i LIBCMTD:utility.obj
 0001:0003aff0       _NtCurrentTeb              0043bff0 f i LIBCMTD:utility.obj
 0001:0003b000       ___scrt_acquire_startup_lock 0043c000 f   LIBCMTD:utility.obj
 0001:0003b060       ___scrt_dllmain_after_initialize_c 0043c060 f   LIBCMTD:utility.obj
 0001:0003b0a0       ___scrt_dllmain_before_initialize_c 0043c0a0 f   LIBCMTD:utility.obj
 0001:0003b0d0       ___scrt_dllmain_crt_thread_attach 0043c0d0 f   LIBCMTD:utility.obj
 0001:0003b110       ___scrt_dllmain_crt_thread_detach 0043c110 f   LIBCMTD:utility.obj
 0001:0003b130       ___scrt_dllmain_exception_filter 0043c130 f   LIBCMTD:utility.obj
 0001:0003b190       ___scrt_dllmain_uninitialize_c 0043c190 f   LIBCMTD:utility.obj
 0001:0003b1d0       ___scrt_dllmain_uninitialize_critical 0043c1d0 f   LIBCMTD:utility.obj
 0001:0003b1f0       ___scrt_initialize_crt     0043c1f0 f   LIBCMTD:utility.obj
 0001:0003b250       ___scrt_initialize_onexit_tables 0043c250 f   LIBCMTD:utility.obj
 0001:0003b370       ___scrt_is_nonwritable_in_current_image 0043c370 f   LIBCMTD:utility.obj
 0001:0003b4f0       ___scrt_release_startup_lock 0043c4f0 f   LIBCMTD:utility.obj
 0001:0003b520       ___scrt_uninitialize_crt   0043c520 f   LIBCMTD:utility.obj
 0001:0003b570       __onexit                   0043c570 f   LIBCMTD:utility.obj
 0001:0003b600       _at_quick_exit             0043c600 f   LIBCMTD:utility.obj
 0001:0003b660       _atexit                    0043c660 f   LIBCMTD:utility.obj
 0001:0003b6a0       __ftoui3                   0043c6a0 f   LIBCMTD:ftol3.obj
 0001:0003b6af       __ftoul3                   0043c6af f   LIBCMTD:ftol3.obj
 0001:0003b6be       __ftol3                    0043c6be f   LIBCMTD:ftol3.obj
 0001:0003b6cb       __ftol3_NaN                0043c6cb f   LIBCMTD:ftol3.obj
 0001:0003b6e3       __ftol3_work               0043c6e3 f   LIBCMTD:ftol3.obj
 0001:0003b769       __ftol3_common             0043c769 f   LIBCMTD:ftol3.obj
 0001:0003b82b       __ftol3_arg_error          0043c82b f   LIBCMTD:ftol3.obj
 0001:0003b83d       __ftol3_except             0043c83d f   LIBCMTD:ftol3.obj
 0001:0003b881       __dtoui3                   0043c881 f   LIBCMTD:ftol3.obj
 0001:0003b890       __dtoul3                   0043c890 f   LIBCMTD:ftol3.obj
 0001:0003b89f       __dtol3                    0043c89f f   LIBCMTD:ftol3.obj
 0001:0003b8ac       __dtol3_NaN                0043c8ac f   LIBCMTD:ftol3.obj
 0001:0003b8c9       __dtol3_work               0043c8c9 f   LIBCMTD:ftol3.obj
 0001:0003b9b0       __ultod3                   0043c9b0 f   LIBCMTD:ftol3.obj
 0001:0003b9f0       __ltod3                    0043c9f0 f   LIBCMTD:ftol3.obj
 0001:0003bf00       ?set_app_type@__scrt_main_policy@@SAXXZ 0043cf00 f i LIBCMTD:exe_main.obj
 0001:0003bf20       ?set_commode@__scrt_file_policy@@SAXXZ 0043cf20 f i LIBCMTD:exe_main.obj
 0001:0003bf40       ?set_fmode@__scrt_file_policy@@SAXXZ 0043cf40 f i LIBCMTD:exe_main.obj
 0001:0003bf60       _mainCRTStartup            0043cf60 f   LIBCMTD:exe_main.obj
 0001:0003bf70       ??3@YAXPAX@Z               0043cf70 f   LIBCMTD:delete_scalar.obj
 0001:0003bf90       ??0bad_alloc@std@@AAE@QBD@Z 0043cf90 f i LIBCMTD:throw_bad_alloc.obj
 0001:0003bfc0       ??0bad_alloc@std@@QAE@ABV01@@Z 0043cfc0 f i LIBCMTD:throw_bad_alloc.obj
 0001:0003bff0       ??0bad_alloc@std@@QAE@XZ   0043cff0 f i LIBCMTD:throw_bad_alloc.obj
 0001:0003c020       ??0bad_array_new_length@std@@QAE@ABV01@@Z 0043d020 f i LIBCMTD:throw_bad_alloc.obj
 0001:0003c050       ??0bad_array_new_length@std@@QAE@XZ 0043d050 f i LIBCMTD:throw_bad_alloc.obj
 0001:0003c080       ??0exception@std@@QAE@ABV01@@Z 0043d080 f i LIBCMTD:throw_bad_alloc.obj
 0001:0003c0d0       ??0exception@std@@QAE@QBDH@Z 0043d0d0 f i LIBCMTD:throw_bad_alloc.obj
 0001:0003c110       ??1bad_alloc@std@@UAE@XZ   0043d110 f i LIBCMTD:throw_bad_alloc.obj
 0001:0003c130       ??1bad_array_new_length@std@@UAE@XZ 0043d130 f i LIBCMTD:throw_bad_alloc.obj
 0001:0003c150       ??1exception@std@@UAE@XZ   0043d150 f i LIBCMTD:throw_bad_alloc.obj
 0001:0003c180       ??_Ebad_alloc@std@@UAEPAXI@Z 0043d180 f i LIBCMTD:throw_bad_alloc.obj
 0001:0003c180       ??_Gbad_alloc@std@@UAEPAXI@Z 0043d180 f i LIBCMTD:throw_bad_alloc.obj
 0001:0003c1c0       ??_Ebad_array_new_length@std@@UAEPAXI@Z 0043d1c0 f i LIBCMTD:throw_bad_alloc.obj
 0001:0003c1c0       ??_Gbad_array_new_length@std@@UAEPAXI@Z 0043d1c0 f i LIBCMTD:throw_bad_alloc.obj
 0001:0003c200       ??_Gexception@std@@UAEPAXI@Z 0043d200 f i LIBCMTD:throw_bad_alloc.obj
 0001:0003c200       ??_Eexception@std@@UAEPAXI@Z 0043d200 f i LIBCMTD:throw_bad_alloc.obj
 0001:0003c240       ?__scrt_throw_std_bad_alloc@@YAXXZ 0043d240 f   LIBCMTD:throw_bad_alloc.obj
 0001:0003c270       ?__scrt_throw_std_bad_array_new_length@@YAXXZ 0043d270 f   LIBCMTD:throw_bad_alloc.obj
 0001:0003c2a0       ?what@exception@std@@UBEPBDXZ 0043d2a0 f i LIBCMTD:throw_bad_alloc.obj
 0001:0003c2e0       ___isa_available_init      0043d2e0 f   LIBCMTD:cpu_disp.obj
 0001:0003c670       __get_startup_argv_mode    0043d670 f   LIBCMTD:argv_mode.obj
 0001:0003c680       ___scrt_is_ucrt_dll_in_use 0043d680 f   LIBCMTD:ucrt_detection.obj
 0001:0003c6b0       ___scrt_fastfail           0043d6b0 f   LIBCMTD:utility_desktop.obj
 0001:0003c840       ___scrt_get_show_window_mode 0043d840 f   LIBCMTD:utility_desktop.obj
 0001:0003c890       ___scrt_initialize_mta     0043d890 f   LIBCMTD:utility_desktop.obj
 0001:0003c8a0       ___scrt_initialize_winrt   0043d8a0 f   LIBCMTD:utility_desktop.obj
 0001:0003c8b0       ___scrt_is_managed_app     0043d8b0 f   LIBCMTD:utility_desktop.obj
 0001:0003c960       ___scrt_set_unhandled_exception_filter 0043d960 f   LIBCMTD:utility_desktop.obj
 0001:0003c980       ___scrt_stub_for_initialize_mta 0043d980 f   LIBCMTD:utility_desktop.obj
 0001:0003c980       ___scrt_exe_initialize_mta 0043d980 f   LIBCMTD:utility_desktop.obj
 0001:0003c990       ___scrt_unhandled_exception_filter@4 0043d990 f   LIBCMTD:utility_desktop.obj
 0001:0003ca10       __crt_debugger_hook        0043da10 f   LIBCMTD:utility_desktop.obj
 0001:0003ca30       @_guard_check_icall_nop@4  0043da30 f i LIBCMTD:guard_support.obj
 0001:0003ca40       _ReadNoFence               0043da40 f i LIBCMTD:guard_support.obj
 0001:0003ca60       _ReadPointerNoFence        0043da60 f i LIBCMTD:guard_support.obj
 0001:0003ca80       __guard_icall_checks_enforced 0043da80 f i LIBCMTD:guard_support.obj
 0001:0003cb50       ___security_init_cookie    0043db50 f   LIBCMTD:gs_support.obj
 0001:0003cbf0       __matherr                  0043dbf0 f   LIBCMTD:matherr.obj
 0001:0003cc00       __get_startup_commit_mode  0043dc00 f   LIBCMTD:commit_mode.obj
 0001:0003cc10       __get_startup_file_mode    0043dc10 f   LIBCMTD:file_mode.obj
 0001:0003cc20       __get_startup_new_mode     0043dc20 f   LIBCMTD:new_mode.obj
 0001:0003cc30       __get_startup_thread_locale_mode 0043dc30 f   LIBCMTD:thread_locale.obj
 0001:0003cc40       ?__scrt_initialize_type_info@@YAXXZ 0043dc40 f   LIBCMTD:tncleanup.obj
 0001:0003cc60       ?__scrt_uninitialize_type_info@@YAXXZ 0043dc60 f   LIBCMTD:tncleanup.obj
 0001:0003cc80       __should_initialize_environment 0043dc80 f   LIBCMTD:env_mode.obj
 0001:0003cc90       __initialize_default_precision 0043dc90 f   LIBCMTD:default_precision.obj
 0001:0003ccc0       __initialize_invalid_parameter_handler 0043dcc0 f   LIBCMTD:invalid_parameter_handler.obj
 0001:0003ccd0       __initialize_denormal_control 0043dcd0 f   LIBCMTD:denormal_control.obj
 0001:0003cce0       ___scrt_initialize_default_local_stdio_options 0043dce0 f   LIBCMTD:default_local_stdio_options.obj
 0001:0003cd30       ___scrt_is_user_matherr_present 0043dd30 f   LIBCMTD:matherr_detection.obj
 0001:0003cd60       ___scrt_get_dyn_tls_init_callback 0043dd60 f   LIBCMTD:dyn_tls_init.obj
 0001:0003cd70       ___scrt_get_dyn_tls_dtor_callback 0043dd70 f   LIBCMTD:dyn_tls_dtor.obj
 0001:0003cd80       __RTC_Initialize           0043dd80 f   LIBCMTD:initsect.obj
 0001:0003cdc0       __RTC_Terminate            0043ddc0 f   LIBCMTD:initsect.obj
 0001:0003ce00       ??0_Init_locks@std@@QAE@XZ 0043de00 f   libcpmtd:xlock.obj
 0001:0003ce60       ??0_Lockit@std@@QAE@H@Z    0043de60 f   libcpmtd:xlock.obj
 0001:0003cec0       ??0_Lockit@std@@QAE@XZ     0043dec0 f   libcpmtd:xlock.obj
 0001:0003cf10       ??1_Init_locks@std@@QAE@XZ 0043df10 f   libcpmtd:xlock.obj
 0001:0003cf70       ??1_Lockit@std@@QAE@XZ     0043df70 f   libcpmtd:xlock.obj
 0001:0003cfc0       ?_Init_locks_ctor@_Init_locks@std@@CAXPAV12@@Z 0043dfc0 f   libcpmtd:xlock.obj
 0001:0003d020       ?_Init_locks_dtor@_Init_locks@std@@CAXPAV12@@Z 0043e020 f   libcpmtd:xlock.obj
 0001:0003d080       ?_Lockit_ctor@_Lockit@std@@CAXPAV12@@Z 0043e080 f   libcpmtd:xlock.obj
 0001:0003d0b0       ?_Lockit_ctor@_Lockit@std@@CAXPAV12@H@Z 0043e0b0 f   libcpmtd:xlock.obj
 0001:0003d0f0       ?_Lockit_ctor@_Lockit@std@@SAXH@Z 0043e0f0 f   libcpmtd:xlock.obj
 0001:0003d130       ?_Lockit_dtor@_Lockit@std@@CAXPAV12@@Z 0043e130 f   libcpmtd:xlock.obj
 0001:0003d150       ?_Lockit_dtor@_Lockit@std@@SAXH@Z 0043e150 f   libcpmtd:xlock.obj
 0001:0003d190       __Lock_at_thread_exit_mutex 0043e190 f   libcpmtd:xlock.obj
 0001:0003d1c0       __Unlock_at_thread_exit_mutex 0043e1c0 f   libcpmtd:xlock.obj
 0001:0003d1f0       ??0bad_function_call@std@@QAE@ABV01@@Z 0043e1f0 f i libcpmtd:xthrow.obj
 0001:0003d220       ??0bad_function_call@std@@QAE@XZ 0043e220 f i libcpmtd:xthrow.obj
 0001:0003d250       ??0exception@std@@QAE@QBD@Z 0043e250 f i libcpmtd:xthrow.obj
 0001:0003d2b0       ??0exception@std@@QAE@XZ   0043e2b0 f i libcpmtd:xthrow.obj
 0001:0003d2e0       ??0invalid_argument@std@@QAE@ABV01@@Z 0043e2e0 f i libcpmtd:xthrow.obj
 0001:0003d310       ??0invalid_argument@std@@QAE@PBD@Z 0043e310 f i libcpmtd:xthrow.obj
 0001:0003d340       ??0length_error@std@@QAE@ABV01@@Z 0043e340 f i libcpmtd:xthrow.obj
 0001:0003d370       ??0length_error@std@@QAE@PBD@Z 0043e370 f i libcpmtd:xthrow.obj
 0001:0003d3a0       ??0logic_error@std@@QAE@ABV01@@Z 0043e3a0 f i libcpmtd:xthrow.obj
 0001:0003d3d0       ??0logic_error@std@@QAE@PBD@Z 0043e3d0 f i libcpmtd:xthrow.obj
 0001:0003d400       ??0out_of_range@std@@QAE@ABV01@@Z 0043e400 f i libcpmtd:xthrow.obj
 0001:0003d430       ??0out_of_range@std@@QAE@PBD@Z 0043e430 f i libcpmtd:xthrow.obj
 0001:0003d460       ??0overflow_error@std@@QAE@ABV01@@Z 0043e460 f i libcpmtd:xthrow.obj
 0001:0003d490       ??0overflow_error@std@@QAE@PBD@Z 0043e490 f i libcpmtd:xthrow.obj
 0001:0003d4c0       ??0regex_error@std@@QAE@ABV01@@Z 0043e4c0 f i libcpmtd:xthrow.obj
 0001:0003d500       ??0regex_error@std@@QAE@W4error_type@regex_constants@1@@Z 0043e500 f i libcpmtd:xthrow.obj
 0001:0003d550       ??0runtime_error@std@@QAE@ABV01@@Z 0043e550 f i libcpmtd:xthrow.obj
 0001:0003d580       ??0runtime_error@std@@QAE@PBD@Z 0043e580 f i libcpmtd:xthrow.obj
 0001:0003d5b0       ??1bad_function_call@std@@UAE@XZ 0043e5b0 f i libcpmtd:xthrow.obj
 0001:0003d5d0       ??1invalid_argument@std@@UAE@XZ 0043e5d0 f i libcpmtd:xthrow.obj
 0001:0003d5f0       ??1length_error@std@@UAE@XZ 0043e5f0 f i libcpmtd:xthrow.obj
 0001:0003d610       ??1logic_error@std@@UAE@XZ 0043e610 f i libcpmtd:xthrow.obj
 0001:0003d630       ??1out_of_range@std@@UAE@XZ 0043e630 f i libcpmtd:xthrow.obj
 0001:0003d650       ??1overflow_error@std@@UAE@XZ 0043e650 f i libcpmtd:xthrow.obj
 0001:0003d670       ??1regex_error@std@@UAE@XZ 0043e670 f i libcpmtd:xthrow.obj
 0001:0003d690       ??1runtime_error@std@@UAE@XZ 0043e690 f i libcpmtd:xthrow.obj
 0001:0003d6b0       ??_Gbad_function_call@std@@UAEPAXI@Z 0043e6b0 f i libcpmtd:xthrow.obj
 0001:0003d6b0       ??_Ebad_function_call@std@@UAEPAXI@Z 0043e6b0 f i libcpmtd:xthrow.obj
 0001:0003d6f0       ??_Ginvalid_argument@std@@UAEPAXI@Z 0043e6f0 f i libcpmtd:xthrow.obj
 0001:0003d6f0       ??_Einvalid_argument@std@@UAEPAXI@Z 0043e6f0 f i libcpmtd:xthrow.obj
 0001:0003d730       ??_Elength_error@std@@UAEPAXI@Z 0043e730 f i libcpmtd:xthrow.obj
 0001:0003d730       ??_Glength_error@std@@UAEPAXI@Z 0043e730 f i libcpmtd:xthrow.obj
 0001:0003d770       ??_Glogic_error@std@@UAEPAXI@Z 0043e770 f i libcpmtd:xthrow.obj
 0001:0003d770       ??_Elogic_error@std@@UAEPAXI@Z 0043e770 f i libcpmtd:xthrow.obj
 0001:0003d7b0       ??_Eout_of_range@std@@UAEPAXI@Z 0043e7b0 f i libcpmtd:xthrow.obj
 0001:0003d7b0       ??_Gout_of_range@std@@UAEPAXI@Z 0043e7b0 f i libcpmtd:xthrow.obj
 0001:0003d7f0       ??_Goverflow_error@std@@UAEPAXI@Z 0043e7f0 f i libcpmtd:xthrow.obj
 0001:0003d7f0       ??_Eoverflow_error@std@@UAEPAXI@Z 0043e7f0 f i libcpmtd:xthrow.obj
 0001:0003d830       ??_Gregex_error@std@@UAEPAXI@Z 0043e830 f i libcpmtd:xthrow.obj
 0001:0003d830       ??_Eregex_error@std@@UAEPAXI@Z 0043e830 f i libcpmtd:xthrow.obj
 0001:0003d870       ??_Eruntime_error@std@@UAEPAXI@Z 0043e870 f i libcpmtd:xthrow.obj
 0001:0003d870       ??_Gruntime_error@std@@UAEPAXI@Z 0043e870 f i libcpmtd:xthrow.obj
 0001:0003d8b0       ?_Stringify@regex_error@std@@CAPBDW4error_type@regex_constants@2@@Z 0043e8b0 f i libcpmtd:xthrow.obj
 0001:0003d9b0       ?_Xbad_alloc@std@@YAXXZ    0043e9b0 f   libcpmtd:xthrow.obj
 0001:0003d9e0       ?_Xbad_function_call@std@@YAXXZ 0043e9e0 f   libcpmtd:xthrow.obj
 0001:0003da10       ?_Xinvalid_argument@std@@YAXPBD@Z 0043ea10 f   libcpmtd:xthrow.obj
 0001:0003da40       ?_Xlength_error@std@@YAXPBD@Z 0043ea40 f   libcpmtd:xthrow.obj
 0001:0003da70       ?_Xout_of_range@std@@YAXPBD@Z 0043ea70 f   libcpmtd:xthrow.obj
 0001:0003daa0       ?_Xoverflow_error@std@@YAXPBD@Z 0043eaa0 f   libcpmtd:xthrow.obj
 0001:0003dad0       ?_Xregex_error@std@@YAXW4error_type@regex_constants@1@@Z 0043ead0 f   libcpmtd:xthrow.obj
 0001:0003db00       ?_Xruntime_error@std@@YAXPBD@Z 0043eb00 f   libcpmtd:xthrow.obj
 0001:0003db30       ?__empty_global_delete@@YAXPAXIW4align_val_t@std@@@Z 0043eb30 f i libcpmtd:xthrow.obj
 0001:0003db40       ?__empty_global_delete@@YAXPAXW4align_val_t@std@@@Z 0043eb40 f i libcpmtd:xthrow.obj
 0001:0003db50       ?what@bad_function_call@std@@UBEPBDXZ 0043eb50 f i libcpmtd:xthrow.obj
 0001:0003db70       __Mtxdst                   0043eb70 f   libcpmtd:xmtx.obj
 0001:0003db90       __Mtxinit                  0043eb90 f   libcpmtd:xmtx.obj
 0001:0003dbb0       __Mtxlock                  0043ebb0 f   libcpmtd:xmtx.obj
 0001:0003dbd0       __Mtxunlock                0043ebd0 f   libcpmtd:xmtx.obj
 0001:0003e2f0       ___crtAcquireSRWLockExclusive 0043f2f0 f   libcpmtd:winapisupp.obj
 0001:0003e340       ___crtCloseThreadpoolTimer 0043f340 f   libcpmtd:winapisupp.obj
 0001:0003e390       ___crtCloseThreadpoolWait  0043f390 f   libcpmtd:winapisupp.obj
 0001:0003e3e0       ___crtCloseThreadpoolWork  0043f3e0 f   libcpmtd:winapisupp.obj
 0001:0003e430       ___crtCreateEventExW       0043f430 f   libcpmtd:winapisupp.obj
 0001:0003e4b0       ___crtCreateSemaphoreExW   0043f4b0 f   libcpmtd:winapisupp.obj
 0001:0003e570       ___crtCreateSymbolicLinkW  0043f570 f   libcpmtd:winapisupp.obj
 0001:0003e5d0       ___crtCreateThreadpoolTimer 0043f5d0 f   libcpmtd:winapisupp.obj
 0001:0003e630       ___crtCreateThreadpoolWait 0043f630 f   libcpmtd:winapisupp.obj
 0001:0003e690       ___crtCreateThreadpoolWork 0043f690 f   libcpmtd:winapisupp.obj
 0001:0003e6e0       ___crtFlsAlloc             0043f6e0 f   libcpmtd:winapisupp.obj
 0001:0003e740       ___crtFlsFree              0043f740 f   libcpmtd:winapisupp.obj
 0001:0003e7a0       ___crtFlsGetValue          0043f7a0 f   libcpmtd:winapisupp.obj
 0001:0003e800       ___crtFlsSetValue          0043f800 f   libcpmtd:winapisupp.obj
 0001:0003e860       ___crtFlushProcessWriteBuffers 0043f860 f   libcpmtd:winapisupp.obj
 0001:0003e8b0       ___crtFreeLibraryWhenCallbackReturns 0043f8b0 f   libcpmtd:winapisupp.obj
 0001:0003e900       ___crtGetCurrentProcessorNumber 0043f900 f   libcpmtd:winapisupp.obj
 0001:0003e950       ___crtGetFileInformationByHandleEx 0043f950 f   libcpmtd:winapisupp.obj
 0001:0003e9c0       ___crtGetSystemTimePreciseAsFileTime 0043f9c0 f   libcpmtd:winapisupp.obj
 0001:0003ea20       ___crtGetTickCount64       0043fa20 f   libcpmtd:winapisupp.obj
 0001:0003ea70       ___crtInitOnceExecuteOnce  0043fa70 f   libcpmtd:winapisupp.obj
 0001:0003ebd0       ___crtInitializeConditionVariable 0043fbd0 f   libcpmtd:winapisupp.obj
 0001:0003ec20       ___crtInitializeCriticalSectionEx 0043fc20 f   libcpmtd:winapisupp.obj
 0001:0003ec90       ___crtInitializeSRWLock    0043fc90 f   libcpmtd:winapisupp.obj
 0001:0003ece0       ___crtIsPackagedApp        0043fce0 f   libcpmtd:winapisupp.obj
 0001:0003ed30       ___crtReleaseSRWLockExclusive 0043fd30 f   libcpmtd:winapisupp.obj
 0001:0003ed80       ___crtSetFileInformationByHandle 0043fd80 f   libcpmtd:winapisupp.obj
 0001:0003edf0       ___crtSetThreadpoolTimer   0043fdf0 f   libcpmtd:winapisupp.obj
 0001:0003ee50       ___crtSetThreadpoolWait    0043fe50 f   libcpmtd:winapisupp.obj
 0001:0003eeb0       ___crtSleepConditionVariableCS 0043feb0 f   libcpmtd:winapisupp.obj
 0001:0003ef00       ___crtSleepConditionVariableSRW 0043ff00 f   libcpmtd:winapisupp.obj
 0001:0003ef60       ___crtSubmitThreadpoolWork 0043ff60 f   libcpmtd:winapisupp.obj
 0001:0003efb0       ___crtTryAcquireSRWLockExclusive 0043ffb0 f   libcpmtd:winapisupp.obj
 0001:0003f000       ___crtWaitForThreadpoolTimerCallbacks 00440000 f   libcpmtd:winapisupp.obj
 0001:0003f050       ___crtWakeAllConditionVariable 00440050 f   libcpmtd:winapisupp.obj
 0001:0003f0a0       ___crtWakeConditionVariable 004400a0 f   libcpmtd:winapisupp.obj
 0001:0003f0f0       ___crt_IsPackagedAppHelper 004400f0 f   libcpmtd:winapisupp.obj
 0001:0003f170       ??$?0AAViterator@TryBlockMap@__FrameHandler3@@AAV012@$0A@@?$pair@Viterator@TryBlockMap@__FrameHandler3@@V123@@std@@QAE@AAViterator@TryBlockMap@__FrameHandler3@@0@Z 00440170 f i libvcruntimed:trnsctrl.obj
 0001:0003f1d0       ??$forward@AAViterator@TryBlockMap@__FrameHandler3@@@std@@YAAAViterator@TryBlockMap@__FrameHandler3@@AAV123@@Z 004401d0 f i libvcruntimed:trnsctrl.obj
 0001:0003f1e0       ??0iterator@TryBlockMap@__FrameHandler3@@QAE@AAV12@I@Z 004401e0 f i libvcruntimed:trnsctrl.obj
 0001:0003f210       ?GetRangeOfTrysToCheck@__FrameHandler3@@SA?AU?$pair@Viterator@TryBlockMap@__FrameHandler3@@V123@@std@@AAVTryBlockMap@1@HH@Z 00440210 f   libvcruntimed:trnsctrl.obj
 0001:0003f340       ?_CallCatchBlock2@@YAPAXPAUEHRegistrationNode@@PBU_s_FuncInfo@@PAXHK@Z 00440340 f   libvcruntimed:trnsctrl.obj
 0001:0003f3d0       ?_CallSETranslator@@YAHPAUEHExceptionRecord@@PAUEHRegistrationNode@@PAX2PBU_s_FuncInfo@@H1@Z 004403d0 f   libvcruntimed:trnsctrl.obj
 0001:0003f500       ?_JumpToContinuation@@YGXPAXPAUEHRegistrationNode@@@Z 00440500 f   libvcruntimed:trnsctrl.obj
 0001:0003f540       ?_UnwindNestedFrames@@YGXPAUEHRegistrationNode@@PAUEHExceptionRecord@@@Z 00440540 f   libvcruntimed:trnsctrl.obj
 0001:0003f5b0       ?getFuncInfo@TryBlockMap@__FrameHandler3@@QAEPBU_s_FuncInfo@@XZ 004405b0 f i libvcruntimed:trnsctrl.obj
 0001:0003f5d0       __CatchGuardHandler        004405d0 f   libvcruntimed:trnsctrl.obj
 0001:0003f630       __CreateFrameInfo          00440630 f   libvcruntimed:trnsctrl.obj
 0001:0003f670       __FindAndUnlinkFrame       00440670 f   libvcruntimed:trnsctrl.obj
 0001:0003f700       __TranslatorGuardHandler   00440700 f   libvcruntimed:trnsctrl.obj
 0001:0003f7e0       ___CxxFrameHandler         004407e0 f   libvcruntimed:trnsctrl.obj
 0001:0003f830       ___CxxFrameHandler2        00440830 f   libvcruntimed:trnsctrl.obj
 0001:0003f880       ___CxxFrameHandler3        00440880 f   libvcruntimed:trnsctrl.obj
 0001:0003f8d0       ___CxxLongjmpUnwind@4      004408d0 f   libvcruntimed:trnsctrl.obj
 0001:0003f920       _memmove                   00440920 f   libvcruntimed:memmove.obj
 0001:00040000       __CxxThrowException@8      00441000 f   libvcruntimed:throw.obj
 0001:000400e0       _memset                    004410e0 f   libvcruntimed:memset.obj
 0001:00040290       _memcpy                    00441290 f   libvcruntimed:memcpy.obj
 0001:00040970       ??$__crt_fast_decode_pointer@P6AXXZ@@YAP6AXXZQ6AXXZ@Z 00441970 f i libvcruntimed:purevirt.obj
 0001:000409a0       ??$__crt_fast_encode_pointer@P6AXXZ@@YAP6AXXZQ6AXXZ@Z 004419a0 f i libvcruntimed:purevirt.obj
 0001:000409e0       ??$__crt_interlocked_exchange_pointer@$$A6AXXZP6AXXZ@@YAP6AXXZPDS6AXXZQ6AXXZ@Z 004419e0 f i libvcruntimed:purevirt.obj
 0001:000409f0       ??$__crt_interlocked_read_pointer@$$A6AXXZ@@YAP6AXXZPDS6AXXZ@Z 004419f0 f i libvcruntimed:purevirt.obj
 0001:00040a10       ?__crt_interlocked_read_32@@YAHPDH@Z 00441a10 f i libvcruntimed:purevirt.obj
 0001:00040a30       __get_purecall_handler     00441a30 f   libvcruntimed:purevirt.obj
 0001:00040a60       __purecall                 00441a60 f   libvcruntimed:purevirt.obj
 0001:00040aa0       __set_purecall_handler     00441aa0 f   libvcruntimed:purevirt.obj
 0001:00040ae0       _strrchr                   00441ae0 f   libvcruntimed:strrchr.obj
 0001:00040c70       ___vcrt_initialize         00441c70 f   libvcruntimed:initialization.obj
 0001:00040cc0       ___vcrt_thread_attach      00441cc0 f   libvcruntimed:initialization.obj
 0001:00040ce0       ___vcrt_thread_detach      00441ce0 f   libvcruntimed:initialization.obj
 0001:00040d00       ___vcrt_uninitialize       00441d00 f   libvcruntimed:initialization.obj
 0001:00040d30       ___vcrt_uninitialize_critical 00441d30 f   libvcruntimed:initialization.obj
 0001:00040dd0       __except_handler4          00441dd0 f   libvcruntimed:chandler4.obj
 0001:00041020       ??$?RD@__crt_public_free_policy@@QBEXQBD@Z 00442020 f i libvcruntimed:std_exception.obj
 0001:00041040       ??0?$__crt_unique_heap_ptr@DU__crt_public_free_policy@@@@QAE@QAD@Z 00442040 f i libvcruntimed:std_exception.obj
 0001:00041060       ??1?$__crt_unique_heap_ptr@DU__crt_public_free_policy@@@@QAE@XZ 00442060 f i libvcruntimed:std_exception.obj
 0001:00041080       ??B?$__crt_unique_heap_ptr@DU__crt_public_free_policy@@@@QBE_NXZ 00442080 f i libvcruntimed:std_exception.obj
 0001:000410a0       ?detach@?$__crt_unique_heap_ptr@DU__crt_public_free_policy@@@@QAEPADXZ 004420a0 f i libvcruntimed:std_exception.obj
 0001:000410d0       ?get@?$__crt_unique_heap_ptr@DU__crt_public_free_policy@@@@QBEPADXZ 004420d0 f i libvcruntimed:std_exception.obj
 0001:000410f0       ?is_valid@?$__crt_unique_heap_ptr@DU__crt_public_free_policy@@@@QBE_NXZ 004420f0 f i libvcruntimed:std_exception.obj
 0001:00041130       ?release@?$__crt_unique_heap_ptr@DU__crt_public_free_policy@@@@QAEXXZ 00442130 f i libvcruntimed:std_exception.obj
 0001:00041160       ___std_exception_copy      00442160 f   libvcruntimed:std_exception.obj
 0001:00041280       ___std_exception_destroy   00442280 f   libvcruntimed:std_exception.obj
 0001:00041300       ??$?RD@__crt_internal_free_policy@@QBEXQBD@Z 00442300 f i libvcruntimed:std_type_info.obj
 0001:00041330       ??$?RX@__crt_internal_free_policy@@QBEXQBX@Z 00442330 f i libvcruntimed:std_type_info.obj
 0001:00041360       ??$__crt_interlocked_compare_exchange_pointer@$$CBDPAD$$T@@YAPBDPDSBDQAD$$T@Z 00442360 f i libvcruntimed:std_type_info.obj
 0001:00041380       ??$__crt_interlocked_read_pointer@$$CBD@@YAPBDPDSBD@Z 00442380 f i libvcruntimed:std_type_info.obj
 0001:000413a0       ??0?$__crt_unique_heap_ptr@DU__crt_internal_free_policy@@@@QAE@QAD@Z 004423a0 f i libvcruntimed:std_type_info.obj
 0001:000413c0       ??0?$__crt_unique_heap_ptr@XU__crt_internal_free_policy@@@@QAE@QAX@Z 004423c0 f i libvcruntimed:std_type_info.obj
 0001:000413e0       ??1?$__crt_unique_heap_ptr@DU__crt_internal_free_policy@@@@QAE@XZ 004423e0 f i libvcruntimed:std_type_info.obj
 0001:00041400       ??1?$__crt_unique_heap_ptr@XU__crt_internal_free_policy@@@@QAE@XZ 00442400 f i libvcruntimed:std_type_info.obj
 0001:00041460       ??B?$__crt_unique_heap_ptr@DU__crt_internal_free_policy@@@@QBE_NXZ 00442460 f i libvcruntimed:std_type_info.obj
 0001:00041480       ??B?$__crt_unique_heap_ptr@XU__crt_internal_free_policy@@@@QBE_NXZ 00442480 f i libvcruntimed:std_type_info.obj
 0001:00041500       ?detach@?$__crt_unique_heap_ptr@XU__crt_internal_free_policy@@@@QAEPAXXZ 00442500 f i libvcruntimed:std_type_info.obj
 0001:00041530       ?get@?$__crt_unique_heap_ptr@DU__crt_internal_free_policy@@@@QBEPADXZ 00442530 f i libvcruntimed:std_type_info.obj
 0001:00041550       ?get@?$__crt_unique_heap_ptr@XU__crt_internal_free_policy@@@@QBEPAXXZ 00442550 f i libvcruntimed:std_type_info.obj
 0001:00041570       ?is_valid@?$__crt_unique_heap_ptr@DU__crt_internal_free_policy@@@@QBE_NXZ 00442570 f i libvcruntimed:std_type_info.obj
 0001:000415b0       ?is_valid@?$__crt_unique_heap_ptr@XU__crt_internal_free_policy@@@@QBE_NXZ 004425b0 f i libvcruntimed:std_type_info.obj
 0001:000415f0       ?release@?$__crt_unique_heap_ptr@DU__crt_internal_free_policy@@@@QAEXXZ 004425f0 f i libvcruntimed:std_type_info.obj
 0001:00041620       ?release@?$__crt_unique_heap_ptr@XU__crt_internal_free_policy@@@@QAEXXZ 00442620 f i libvcruntimed:std_type_info.obj
 0001:00041650       ___std_type_info_compare   00442650 f   libvcruntimed:std_type_info.obj
 0001:00041680       ___std_type_info_destroy_list 00442680 f   libvcruntimed:std_type_info.obj
 0001:000416d0       ___std_type_info_hash      004426d0 f   libvcruntimed:std_type_info.obj
 0001:00041740       ___std_type_info_name      00442740 f   libvcruntimed:std_type_info.obj
 0001:000419a0       ??$?RU__vcrt_ptd@@@__crt_internal_free_policy@@QBEXQBU__vcrt_ptd@@@Z 004429a0 f i libvcruntimed:per_thread_data.obj
 0001:000419d0       ??0?$__crt_unique_heap_ptr@U__vcrt_ptd@@U__crt_internal_free_policy@@@@QAE@QAU__vcrt_ptd@@@Z 004429d0 f i libvcruntimed:per_thread_data.obj
 0001:00041a10       ??1?$__crt_unique_heap_ptr@U__vcrt_ptd@@U__crt_internal_free_policy@@@@QAE@XZ 00442a10 f i libvcruntimed:per_thread_data.obj
 0001:00041a50       ??B?$__crt_unique_heap_ptr@U__vcrt_ptd@@U__crt_internal_free_policy@@@@QBE_NXZ 00442a50 f i libvcruntimed:per_thread_data.obj
 0001:00041a70       ?detach@?$__crt_unique_heap_ptr@U__vcrt_ptd@@U__crt_internal_free_policy@@@@QAEPAU__vcrt_ptd@@XZ 00442a70 f i libvcruntimed:per_thread_data.obj
 0001:00041aa0       ?get@?$__crt_unique_heap_ptr@U__vcrt_ptd@@U__crt_internal_free_policy@@@@QBEPAU__vcrt_ptd@@XZ 00442aa0 f i libvcruntimed:per_thread_data.obj
 0001:00041ac0       ?is_valid@?$__crt_unique_heap_ptr@U__vcrt_ptd@@U__crt_internal_free_policy@@@@QBE_NXZ 00442ac0 f i libvcruntimed:per_thread_data.obj
 0001:00041b00       ?release@?$__crt_unique_heap_ptr@U__vcrt_ptd@@U__crt_internal_free_policy@@@@QAEXXZ 00442b00 f i libvcruntimed:per_thread_data.obj
 0001:00041b60       ___vcrt_freefls@4          00442b60 f   libvcruntimed:per_thread_data.obj
 0001:00041b90       ___vcrt_freeptd            00442b90 f   libvcruntimed:per_thread_data.obj
 0001:00041c00       ___vcrt_getptd             00442c00 f   libvcruntimed:per_thread_data.obj
 0001:00041c30       ___vcrt_getptd_noexit      00442c30 f   libvcruntimed:per_thread_data.obj
 0001:00041de0       ___vcrt_getptd_noinit      00442de0 f   libvcruntimed:per_thread_data.obj
 0001:00041e50       ___vcrt_initialize_ptd     00442e50 f   libvcruntimed:per_thread_data.obj
 0001:00041eb0       ___vcrt_uninitialize_ptd   00442eb0 f   libvcruntimed:per_thread_data.obj
 0001:00042d90       ??$TypeMatchHelper@V__FrameHandler3@@@@YAHPBU_s_HandlerType@@PBU_s_CatchableType@@PBU_s_ThrowInfo@@@Z 00443d90 f i libvcruntimed:frame.obj
 0001:00042ea0       ??$__InternalCxxFrameHandler@V__FrameHandler3@@@@YA?AW4_EXCEPTION_DISPOSITION@@PAUEHExceptionRecord@@PAUEHRegistrationNode@@PAU_CONTEXT@@PAXPBU_s_FuncInfo@@H1E@Z 00443ea0 f i libvcruntimed:frame.obj
 0001:000430f0       ??0HandlerMap@__FrameHandler3@@QAE@PBU_s_TryBlockMapEntry@@PAX@Z 004440f0 f i libvcruntimed:frame.obj
 0001:00043120       ??0TryBlockMap@__FrameHandler3@@QAE@PBU_s_FuncInfo@@PAX@Z 00444120 f i libvcruntimed:frame.obj
 0001:00043150       ??0bad_exception@std@@QAE@ABV01@@Z 00444150 f i libvcruntimed:frame.obj
 0001:00043180       ??0bad_exception@std@@QAE@XZ 00444180 f i libvcruntimed:frame.obj
 0001:000431b0       ??0iterator@HandlerMap@__FrameHandler3@@QAE@AAV12@I@Z 004441b0 f i libvcruntimed:frame.obj
 0001:000431e0       ??1bad_exception@std@@UAE@XZ 004441e0 f i libvcruntimed:frame.obj
 0001:00043200       ??8iterator@HandlerMap@__FrameHandler3@@QBE_NABV012@@Z 00444200 f i libvcruntimed:frame.obj
 0001:00043240       ??8type_info@@QBE_NABV0@@Z 00444240 f i libvcruntimed:frame.obj
 0001:00043290       ??9iterator@HandlerMap@__FrameHandler3@@QBE_NABV012@@Z 00444290 f i libvcruntimed:frame.obj
 0001:000432e0       ??Diterator@HandlerMap@__FrameHandler3@@QAEPBU_s_HandlerType@@XZ 004442e0 f i libvcruntimed:frame.obj
 0001:00043310       ??Diterator@TryBlockMap@__FrameHandler3@@QAEPBU_s_TryBlockMapEntry@@XZ 00444310 f i libvcruntimed:frame.obj
 0001:00043340       ??Eiterator@HandlerMap@__FrameHandler3@@QAEAAV012@XZ 00444340 f i libvcruntimed:frame.obj
 0001:00043370       ??Eiterator@TryBlockMap@__FrameHandler3@@QAEAAV012@XZ 00444370 f i libvcruntimed:frame.obj
 0001:000433a0       ??Miterator@TryBlockMap@__FrameHandler3@@QBE_NABV012@@Z 004443a0 f i libvcruntimed:frame.obj
 0001:000433e0       ??_Gbad_exception@std@@UAEPAXI@Z 004443e0 f i libvcruntimed:frame.obj
 0001:000433e0       ??_Ebad_exception@std@@UAEPAXI@Z 004443e0 f i libvcruntimed:frame.obj
 0001:00043420       ?BuildCatchObject@__FrameHandler3@@SAXPAUEHExceptionRecord@@PAXPBU_s_HandlerType@@PBU_s_CatchableType@@@Z 00444420 f   libvcruntimed:frame.obj
 0001:00043450       ?BuildCatchObjectHelper@__FrameHandler3@@SAHPAUEHExceptionRecord@@PAXPBU_s_HandlerType@@PBU_s_CatchableType@@@Z 00444450 f   libvcruntimed:frame.obj
 0001:000438d0       ?FrameUnwindToEmptyState@__FrameHandler3@@SAXPAUEHRegistrationNode@@PAXPBU_s_FuncInfo@@@Z 004448d0 f   libvcruntimed:frame.obj
 0001:00043900       ?FrameUnwindToState@__FrameHandler3@@SAXPAUEHRegistrationNode@@PAXPBU_s_FuncInfo@@H@Z 00444900 f   libvcruntimed:frame.obj
 0001:00043ae0       ?GetMaxState@__FrameHandler3@@SAHPAXPBU_s_FuncInfo@@@Z 00444ae0 f i libvcruntimed:frame.obj
 0001:00043c40       ?TypeMatch@__FrameHandler3@@SAHPBU_s_HandlerType@@PBU_s_CatchableType@@PBU_s_ThrowInfo@@@Z 00444c40 f   libvcruntimed:frame.obj
 0001:00043c60       ?_CallMemberFunction1@@YGXQAX00@Z 00444c60 f i libvcruntimed:frame.obj
 0001:00043c80       ?_CallMemberFunction2@@YGXQAX00H@Z 00444c80 f i libvcruntimed:frame.obj
 0001:00043cb0       ?_ValidateExecute@@YA_NP6GHXZ@Z 00444cb0 f i libvcruntimed:frame.obj
 0001:00043cd0       ?_ValidateRead@@YA_NPBXI@Z 00444cd0 f i libvcruntimed:frame.obj
 0001:00043cf0       ?_ValidateWrite@@YA_NPAXI@Z 00444cf0 f i libvcruntimed:frame.obj
 0001:00043d10       ?begin@HandlerMap@__FrameHandler3@@QAE?AViterator@12@XZ 00444d10 f i libvcruntimed:frame.obj
 0001:00043d40       ?end@HandlerMap@__FrameHandler3@@QAE?AViterator@12@XZ 00444d40 f i libvcruntimed:frame.obj
 0001:00043d70       ?getESTypes@__FrameHandler3@@SAPBU_s_ESTypeList@@PBU_s_FuncInfo@@@Z 00444d70 f i libvcruntimed:frame.obj
 0001:00043d80       ?getLastEntry@HandlerMap@__FrameHandler3@@QAEPBU_s_HandlerType@@XZ 00444d80 f i libvcruntimed:frame.obj
 0001:00043db0       ?getMagicNum@__FrameHandler3@@SAIPBU_s_FuncInfo@@@Z 00444db0 f i libvcruntimed:frame.obj
 0001:00043dd0       ?getNumTryBlocks@TryBlockMap@__FrameHandler3@@QAEIXZ 00444dd0 f i libvcruntimed:frame.obj
 0001:00043df0       ?isEHs@__FrameHandler3@@SA_NPBU_s_FuncInfo@@@Z 00444df0 f i libvcruntimed:frame.obj
 0001:00043e20       ?isNoExcept@__FrameHandler3@@SA_NPBU_s_FuncInfo@@@Z 00444e20 f i libvcruntimed:frame.obj
 0001:00043e50       ___BuildCatchObject        00444e50 f   libvcruntimed:frame.obj
 0001:00043e80       ___BuildCatchObjectHelper  00444e80 f   libvcruntimed:frame.obj
 0001:00043eb0       ___TypeMatch               00444eb0 f   libvcruntimed:frame.obj
 0001:00043ed0       ___vcrt_EncodePointer      00444ed0 f i libvcruntimed:frame.obj
 0001:00043ef0       __CallSettingFrame@12      00444ef0 f   libvcruntimed:lowhelpr.obj
 0001:00043f17       __NLG_Return               00444f17     libvcruntimed:lowhelpr.obj
 0001:00043f60       ___except_validate_context_record 00444f60 f   libvcruntimed:jbcxrval.obj
 0001:00043fc0       ___except_validate_jump_buffer 00444fc0 f   libvcruntimed:jbcxrval.obj
 0001:00043fe0       ___except_validate_jump_buffer_common 00444fe0 f i libvcruntimed:jbcxrval.obj
 0001:00044050       ??$?B$$A6AXXZ@__crt_fast_encoded_nullptr_t@@QBEP6AXXZXZ 00445050 f i libvcruntimed:purevirt_data.obj
 0001:00044070       ?__crt_fast_encode_pointer@@YA?AU__crt_fast_encoded_nullptr_t@@$$T@Z 00445070 f i libvcruntimed:purevirt_data.obj
 0001:00044080       ___vcrt_initialize_pure_virtual_call_handler 00445080 f   libvcruntimed:purevirt_data.obj
 0001:000440b0       ___vcrt_initialize_locks   004450b0 f   libvcruntimed:locks.obj
 0001:00044120       ___vcrt_lock               00445120 f   libvcruntimed:locks.obj
 0001:00044140       ___vcrt_uninitialize_locks 00445140 f   libvcruntimed:locks.obj
 0001:000441a0       ___vcrt_unlock             004451a0 f   libvcruntimed:locks.obj
 0001:000441c0       ??$?BX@__crt_fast_encoded_nullptr_t@@QBEPAXXZ 004451c0 f i libvcruntimed:winapi_downlevel.obj
 0001:000441e0       ??$__crt_fast_decode_pointer@PAX@@YAPAXQAX@Z 004451e0 f i libvcruntimed:winapi_downlevel.obj
 0001:00044210       ??$__crt_fast_encode_pointer@PAX@@YAPAXQAX@Z 00445210 f i libvcruntimed:winapi_downlevel.obj
 0001:00044250       ??$__crt_interlocked_exchange_pointer@UHINSTANCE__@@PAU1@@@YAPAUHINSTANCE__@@PDSAU0@QAU0@@Z 00445250 f i libvcruntimed:winapi_downlevel.obj
 0001:00044260       ??$__crt_interlocked_exchange_pointer@UHINSTANCE__@@PAX@@YAPAUHINSTANCE__@@PDSAU0@QAX@Z 00445260 f i libvcruntimed:winapi_downlevel.obj
 0001:00044270       ??$__crt_interlocked_exchange_pointer@XPAX@@YAPAXPDSAXQAX@Z 00445270 f i libvcruntimed:winapi_downlevel.obj
 0001:00044280       ??$__crt_interlocked_read_pointer@UHINSTANCE__@@@@YAPAUHINSTANCE__@@PDSAU0@@Z 00445280 f i libvcruntimed:winapi_downlevel.obj
 0001:000442a0       ??$__crt_interlocked_read_pointer@X@@YAPAXPDSAX@Z 004452a0 f i libvcruntimed:winapi_downlevel.obj
 0001:000447b0       ___vcrt_FlsAlloc           004457b0 f   libvcruntimed:winapi_downlevel.obj
 0001:00044800       ___vcrt_FlsFree            00445800 f   libvcruntimed:winapi_downlevel.obj
 0001:00044850       ___vcrt_FlsGetValue        00445850 f   libvcruntimed:winapi_downlevel.obj
 0001:000448a0       ___vcrt_FlsSetValue        004458a0 f   libvcruntimed:winapi_downlevel.obj
 0001:00044900       ___vcrt_InitializeCriticalSectionEx 00445900 f   libvcruntimed:winapi_downlevel.obj
 0001:00044960       ___vcrt_initialize_winapi_thunks 00445960 f   libvcruntimed:winapi_downlevel.obj
 0001:000449e0       ___vcrt_uninitialize_winapi_thunks 004459e0 f   libvcruntimed:winapi_downlevel.obj
 0001:00044a70       __local_unwind4            00445a70 f   libvcruntimed:exsup4.obj
 0001:00044b48       __seh_longjmp_unwind4@4    00445b48 f   libvcruntimed:exsup4.obj
 0001:00044b70       @_EH4_CallFilterFunc@8     00445b70 f   libvcruntimed:exsup4.obj
 0001:00044b88       @_EH4_TransferToHandler@8  00445b88 f   libvcruntimed:exsup4.obj
 0001:00044ba4       @_EH4_GlobalUnwind2@8      00445ba4 f   libvcruntimed:exsup4.obj
 0001:00044bc0       @_EH4_LocalUnwind@16       00445bc0 f   libvcruntimed:exsup4.obj
 0001:00044c30       ??0Block@_HeapManager@@QAE@XZ 00445c30 f i libvcruntimed:undname.obj
 0001:00044c50       ??0DName@@QAE@AAPBDD@Z     00445c50 f   libvcruntimed:undname.obj
 0001:00044f00       ??0DName@@QAE@ABV0@@Z      00445f00 f i libvcruntimed:undname.obj
 0001:00044f30       ??0DName@@QAE@D@Z          00445f30 f   libvcruntimed:undname.obj
 0001:00044f80       ??0DName@@QAE@PAV0@@Z      00445f80 f   libvcruntimed:undname.obj
 0001:00045060       ??0DName@@QAE@PBD@Z        00446060 f   libvcruntimed:undname.obj
 0001:000450d0       ??0DName@@QAE@W4DNameStatus@@@Z 004460d0 f   libvcruntimed:undname.obj
 0001:00045190       ??0DName@@QAE@XZ           00446190 f i libvcruntimed:undname.obj
 0001:000451c0       ??0DName@@QAE@_J@Z         004461c0 f   libvcruntimed:undname.obj
 0001:000452e0       ??0DName@@QAE@_K@Z         004462e0 f   libvcruntimed:undname.obj
 0001:000453b0       ??0DNameNode@@IAE@XZ       004463b0 f i libvcruntimed:undname.obj
 0001:000453d0       ??0Replicator@@QAE@XZ      004463d0 f i libvcruntimed:undname.obj
 0001:00045420       ??0UnDecorator@@QAE@PBDP6APADJ@ZK@Z 00446420 f i libvcruntimed:undname.obj
 0001:000454c0       ??0charNode@@QAE@D@Z       004464c0 f i libvcruntimed:undname.obj
 0001:00045500       ??0pDNameNode@@QAE@PAVDName@@@Z 00446500 f   libvcruntimed:undname.obj
 0001:00045580       ??0pairNode@@QAE@PBVDNameNode@@0@Z 00446580 f i libvcruntimed:undname.obj
 0001:000455d0       ??0pcharNode@@QAE@PBDH@Z   004465d0 f   libvcruntimed:undname.obj
 0001:000456b0       ??2@YAPAXIAAV_HeapManager@@H@Z 004466b0 f i libvcruntimed:undname.obj
 0001:000456d0       ??4DName@@QAEAAV0@ABV0@@Z  004466d0 f   libvcruntimed:undname.obj
 0001:00045700       ??4DName@@QAEAAV0@D@Z      00446700 f i libvcruntimed:undname.obj
 0001:00045750       ??4DName@@QAEAAV0@PAV0@@Z  00446750 f   libvcruntimed:undname.obj
 0001:00045810       ??4DName@@QAEAAV0@PBD@Z    00446810 f   libvcruntimed:undname.obj
 0001:00045860       ??4DName@@QAEAAV0@W4DNameStatus@@@Z 00446860 f   libvcruntimed:undname.obj
 0001:00045900       ??AReplicator@@QBE?AVDName@@H@Z 00446900 f   libvcruntimed:undname.obj
 0001:00045980       ??H@YA?AVDName@@DABV0@@Z   00446980 f i libvcruntimed:undname.obj
 0001:000459c0       ??H@YA?AVDName@@PBDABV0@@Z 004469c0 f i libvcruntimed:undname.obj
 0001:00045a00       ??H@YA?AVDName@@W4DNameStatus@@ABV0@@Z 00446a00 f i libvcruntimed:undname.obj
 0001:00045a40       ??HDName@@QBE?AV0@ABV0@@Z  00446a40 f   libvcruntimed:undname.obj
 0001:00045a90       ??HDName@@QBE?AV0@D@Z      00446a90 f   libvcruntimed:undname.obj
 0001:00045ae0       ??HDName@@QBE?AV0@PAV0@@Z  00446ae0 f   libvcruntimed:undname.obj
 0001:00045b30       ??HDName@@QBE?AV0@PBD@Z    00446b30 f   libvcruntimed:undname.obj
 0001:00045b80       ??HDName@@QBE?AV0@W4DNameStatus@@@Z 00446b80 f   libvcruntimed:undname.obj
 0001:00045bd0       ??YDName@@QAEAAV0@ABV0@@Z  00446bd0 f   libvcruntimed:undname.obj
 0001:00045c60       ??YDName@@QAEAAV0@D@Z      00446c60 f   libvcruntimed:undname.obj
 0001:00045d00       ??YDName@@QAEAAV0@PAV0@@Z  00446d00 f   libvcruntimed:undname.obj
 0001:00045df0       ??YDName@@QAEAAV0@PBD@Z    00446df0 f   libvcruntimed:undname.obj
 0001:00045eb0       ??YDName@@QAEAAV0@W4DNameStatus@@@Z 00446eb0 f   libvcruntimed:undname.obj
 0001:00045f30       ??YReplicator@@QAEAAV0@ABVDName@@@Z 00446f30 f   libvcruntimed:undname.obj
 0001:00045fe0       ??_5DName@@QAEAAV0@ABV0@@Z 00446fe0 f   libvcruntimed:undname.obj
 0001:00046050       ?Constructor@_HeapManager@@QAEXP6APAXI@ZP6AXPAX@Z@Z 00447050 f i libvcruntimed:undname.obj
 0001:000460a0       ?Destructor@_HeapManager@@QAEXXZ 004470a0 f i libvcruntimed:undname.obj
 0001:00046120       ?UScore@UnDecorator@@SAPBDW4Tokens@@@Z 00447120 f   libvcruntimed:undname.obj
 0001:00046160       ?append@DName@@AAEXPBVDNameNode@@@Z 00447160 f   libvcruntimed:undname.obj
 0001:00046210       ?composeDeclaration@UnDecorator@@CA?AVDName@@ABV2@@Z 00447210 f i libvcruntimed:undname.obj
 0001:00048900       ?dbGetString@DName@@QBEPADXZ 00449900 f   libvcruntimed:undname.obj
 0001:00048930       ?doAccessSpecifiers@UnDecorator@@SAHXZ 00449930 f i libvcruntimed:undname.obj
 0001:00048960       ?doAllocationLanguage@UnDecorator@@SAHXZ 00449960 f i libvcruntimed:undname.obj
 0001:00048990       ?doAllocationModel@UnDecorator@@SAHXZ 00449990 f i libvcruntimed:undname.obj
 0001:000489c0       ?doEcsu@UnDecorator@@SAHXZ 004499c0 f i libvcruntimed:undname.obj
 0001:000489f0       ?doEllipsis@UnDecorator@@SAHXZ 004499f0 f i libvcruntimed:undname.obj
 0001:00048a20       ?doFunctionReturns@UnDecorator@@SAHXZ 00449a20 f i libvcruntimed:undname.obj
 0001:00048a50       ?doMSKeywords@UnDecorator@@SAHXZ 00449a50 f i libvcruntimed:undname.obj
 0001:00048a80       ?doMemberTypes@UnDecorator@@SAHXZ 00449a80 f i libvcruntimed:undname.obj
 0001:00048ab0       ?doNameOnly@UnDecorator@@SAHXZ 00449ab0 f i libvcruntimed:undname.obj
 0001:00048ad0       ?doNoIdentCharCheck@UnDecorator@@SAHXZ 00449ad0 f i libvcruntimed:undname.obj
 0001:00048af0       ?doPchar@DName@@AAEXPBDH@Z 00449af0 f   libvcruntimed:undname.obj
 0001:00048c80       ?doPtr64@UnDecorator@@SAHXZ 00449c80 f i libvcruntimed:undname.obj
 0001:00048cb0       ?doRestrictionSpec@UnDecorator@@SAHXZ 00449cb0 f i libvcruntimed:undname.obj
 0001:00048ce0       ?doThisTypes@UnDecorator@@SAHXZ 00449ce0 f i libvcruntimed:undname.obj
 0001:00048d20       ?doThrowTypes@UnDecorator@@SAHXZ 00449d20 f i libvcruntimed:undname.obj
 0001:00048d50       ?doTypeOnly@UnDecorator@@SAHXZ 00449d50 f i libvcruntimed:undname.obj
 0001:00048d70       ?doUnderScore@UnDecorator@@SAHXZ 00449d70 f i libvcruntimed:undname.obj
 0001:00048da0       ?getArgumentList@UnDecorator@@CA?AVDName@@XZ 00449da0 f   libvcruntimed:undname.obj
 0001:00048f40       ?getArgumentTypes@UnDecorator@@CA?AVDName@@XZ 00449f40 f   libvcruntimed:undname.obj
 0001:000490e0       ?getArrayType@UnDecorator@@CA?AVDName@@ABV2@@Z 0044a0e0 f i libvcruntimed:undname.obj
 0001:00049400       ?getBasedType@UnDecorator@@CA?AVDName@@XZ 0044a400 f   libvcruntimed:undname.obj
 0001:00049500       ?getBasicDataType@UnDecorator@@CA?AVDName@@ABV2@@Z 0044a500 f   libvcruntimed:undname.obj
 0001:00049ca0       ?getCHPEName@UnDecorator@@QAEPADPADH@Z 0044aca0 f i libvcruntimed:undname.obj
 0001:00049e60       ?getCallIndex@UnDecorator@@CA?AVDName@@XZ 0044ae60 f i libvcruntimed:undname.obj
 0001:00049e80       ?getCallingConvention@UnDecorator@@CA?AVDName@@XZ 0044ae80 f   libvcruntimed:undname.obj
 0001:0004a120       ?getDataIndirectType@UnDecorator@@CA?AVDName@@ABV2@PBD0H@Z 0044b120 f   libvcruntimed:undname.obj
 0001:0004ac60       ?getDataIndirectType@UnDecorator@@CA?AVDName@@XZ 0044bc60 f i libvcruntimed:undname.obj
 0001:0004acb0       ?getDataType@UnDecorator@@CA?AVDName@@PAV2@@Z 0044bcb0 f   libvcruntimed:undname.obj
 0001:0004ae20       ?getDecoratedName@UnDecorator@@CA?AVDName@@XZ 0044be20 f   libvcruntimed:undname.obj
 0001:0004b350       ?getDimension@UnDecorator@@CA?AVDName@@_N@Z 0044c350 f   libvcruntimed:undname.obj
 0001:0004b6b0       ?getDispatchTarget@UnDecorator@@CA?AVDName@@XZ 0044c6b0 f   libvcruntimed:undname.obj
 0001:0004b780       ?getDisplacement@UnDecorator@@CA?AVDName@@XZ 0044c780 f i libvcruntimed:undname.obj
 0001:0004b7a0       ?getECSUDataType@UnDecorator@@CA?AVDName@@XZ 0044c7a0 f   libvcruntimed:undname.obj
 0001:0004b9f0       ?getECSUName@UnDecorator@@CA?AVDName@@XZ 0044c9f0 f i libvcruntimed:undname.obj
 0001:0004ba10       ?getEnumType@UnDecorator@@CA?AVDName@@XZ 0044ca10 f i libvcruntimed:undname.obj
 0001:0004bbb0       ?getExtendedDataIndirectType@UnDecorator@@CA?AVDName@@AAPBDAA_NH@Z 0044cbb0 f   libvcruntimed:undname.obj
 0001:0004bea0       ?getExternalDataType@UnDecorator@@CA?AVDName@@ABV2@@Z 0044cea0 f i libvcruntimed:undname.obj
 0001:0004bf70       ?getFunctionIndirectType@UnDecorator@@CA?AVDName@@ABV2@@Z 0044cf70 f   libvcruntimed:undname.obj
 0001:0004c610       ?getGuardNumber@UnDecorator@@CA?AVDName@@XZ 0044d610 f i libvcruntimed:undname.obj
 0001:0004c630       ?getLastChar@DName@@QBEDXZ 0044d630 f i libvcruntimed:undname.obj
 0001:0004c680       ?getLastChar@DNameStatusNode@@UBEDXZ 0044d680 f i libvcruntimed:undname.obj
 0001:0004c6c0       ?getLastChar@charNode@@UBEDXZ 0044d6c0 f i libvcruntimed:undname.obj
 0001:0004c6e0       ?getLastChar@pDNameNode@@UBEDXZ 0044d6e0 f i libvcruntimed:undname.obj
 0001:0004c720       ?getLastChar@pairNode@@UBEDXZ 0044d720 f i libvcruntimed:undname.obj
 0001:0004c7a0       ?getLastChar@pcharNode@@UBEDXZ 0044d7a0 f i libvcruntimed:undname.obj
 0001:0004c7e0       ?getLexicalFrame@UnDecorator@@CA?AVDName@@XZ 0044d7e0 f i libvcruntimed:undname.obj
 0001:0004c830       ?getMemory@_HeapManager@@QAEPAXIH@Z 0044d830 f   libvcruntimed:undname.obj
 0001:0004c9a0       ?getNoexcept@UnDecorator@@CA?AVDName@@XZ 0044d9a0 f   libvcruntimed:undname.obj
 0001:0004ca20       ?getNumberOfDimensions@UnDecorator@@CAHXZ 0044da20 f   libvcruntimed:undname.obj
 0001:0004cb60       ?getOperatorName@UnDecorator@@CA?AVDName@@_NPA_N@Z 0044db60 f i libvcruntimed:undname.obj
 0001:0004d910       ?getPointerType@UnDecorator@@CA?AVDName@@ABV2@0@Z 0044e910 f i libvcruntimed:undname.obj
 0001:0004d950       ?getPointerTypeArray@UnDecorator@@CA?AVDName@@ABV2@0@Z 0044e950 f i libvcruntimed:undname.obj
 0001:0004d990       ?getPrimaryDataType@UnDecorator@@CA?AVDName@@ABV2@@Z 0044e990 f   libvcruntimed:undname.obj
 0001:0004de80       ?getPtrRefDataType@UnDecorator@@CA?AVDName@@ABV2@H@Z 0044ee80 f   libvcruntimed:undname.obj
 0001:0004e140       ?getPtrRefType@UnDecorator@@CA?AVDName@@ABV2@0PBD@Z 0044f140 f   libvcruntimed:undname.obj
 0001:0004e310       ?getReferenceType@UnDecorator@@CA?AVDName@@ABV2@0PBD@Z 0044f310 f i libvcruntimed:undname.obj
 0001:0004e340       ?getRestrictionSpec@UnDecorator@@CA?AVDName@@XZ 0044f340 f   libvcruntimed:undname.obj
 0001:0004e510       ?getReturnType@UnDecorator@@CA?AVDName@@PAV2@@Z 0044f510 f   libvcruntimed:undname.obj
 0001:0004e570       ?getScope@UnDecorator@@CA?AVDName@@XZ 0044f570 f   libvcruntimed:undname.obj
 0001:0004ec70       ?getScopedName@UnDecorator@@CA?AVDName@@XZ 0044fc70 f   libvcruntimed:undname.obj
 0001:0004ee00       ?getSignedDimension@UnDecorator@@CA?AVDName@@XZ 0044fe00 f   libvcruntimed:undname.obj
 0001:0004eea0       ?getStorageConvention@UnDecorator@@CA?AVDName@@XZ 0044fea0 f i libvcruntimed:undname.obj
 0001:0004eec0       ?getString@DName@@QBEPADPAD0@Z 0044fec0 f i libvcruntimed:undname.obj
 0001:0004ef30       ?getString@DName@@QBEPADPADH@Z 0044ff30 f i libvcruntimed:undname.obj
 0001:0004efe0       ?getString@DNameStatusNode@@UBEPADPAD0@Z 0044ffe0 f i libvcruntimed:undname.obj
 0001:0004f020       ?getString@charNode@@UBEPADPAD0@Z 00450020 f i libvcruntimed:undname.obj
 0001:0004f060       ?getString@pDNameNode@@UBEPADPAD0@Z 00450060 f i libvcruntimed:undname.obj
 0001:0004f0b0       ?getString@pairNode@@UBEPADPAD0@Z 004500b0 f i libvcruntimed:undname.obj
 0001:0004f160       ?getString@pcharNode@@UBEPADPAD0@Z 00450160 f i libvcruntimed:undname.obj
 0001:0004f1a0       ?getStringEncoding@UnDecorator@@CA?AVDName@@PBDH@Z 004501a0 f   libvcruntimed:undname.obj
 0001:0004f2f0       ?getStringHelper@@YAPADPADPBD1H@Z 004502f0 f i libvcruntimed:undname.obj
 0001:0004f340       ?getSymbolName@UnDecorator@@CA?AVDName@@XZ 00450340 f i libvcruntimed:undname.obj
 0001:0004f3f0       ?getTemplateArgumentList@UnDecorator@@CA?AVDName@@XZ 004503f0 f   libvcruntimed:undname.obj
 0001:0004f910       ?getTemplateConstant@UnDecorator@@CA?AVDName@@XZ 00450910 f   libvcruntimed:undname.obj
 0001:000500c0       ?getTemplateName@UnDecorator@@CA?AVDName@@_N@Z 004510c0 f   libvcruntimed:undname.obj
 0001:00050310       ?getThisType@UnDecorator@@CA?AVDName@@XZ 00451310 f i libvcruntimed:undname.obj
 0001:00050360       ?getThrowTypes@UnDecorator@@CA?AVDName@@XZ 00451360 f   libvcruntimed:undname.obj
 0001:000503b0       ?getTypeEncoding@UnDecorator@@CAHXZ 004513b0 f i libvcruntimed:undname.obj
 0001:000510e0       ?getUndecoratedName@UnDecorator@@QAEPADPADH@Z 004520e0 f i libvcruntimed:undname.obj
 0001:00051280       ?getVCallThunkType@UnDecorator@@CA?AVDName@@XZ 00452280 f i libvcruntimed:undname.obj
 0001:00051300       ?getVbTableType@UnDecorator@@CA?AVDName@@ABV2@@Z 00452300 f i libvcruntimed:undname.obj
 0001:00051320       ?getVdispMapType@UnDecorator@@CA?AVDName@@ABV2@@Z 00452320 f i libvcruntimed:undname.obj
 0001:000513b0       ?getVfTableType@UnDecorator@@CA?AVDName@@ABV2@@Z 004523b0 f i libvcruntimed:undname.obj
 0001:00051610       ?getZName@UnDecorator@@CA?AVDName@@_N0@Z 00452610 f   libvcruntimed:undname.obj
 0001:000519d0       ?haveTemplateParameters@UnDecorator@@SAHXZ 004529d0 f i libvcruntimed:undname.obj
 0001:000519f0       ?isArray@DName@@QBEHXZ     004529f0 f i libvcruntimed:undname.obj
 0001:00051a10       ?isComArray@DName@@QBEHXZ  00452a10 f i libvcruntimed:undname.obj
 0001:00051a30       ?isEmpty@DName@@QBEHXZ     00452a30 f i libvcruntimed:undname.obj
 0001:00051a70       ?isFull@Replicator@@QBEHXZ 00452a70 f i libvcruntimed:undname.obj
 0001:00051ab0       ?isNoTE@DName@@QBEHXZ      00452ab0 f i libvcruntimed:undname.obj
 0001:00051ad0       ?isPinPtr@DName@@QBEHXZ    00452ad0 f i libvcruntimed:undname.obj
 0001:00051af0       ?isPtrRef@DName@@QBEHXZ    00452af0 f i libvcruntimed:undname.obj
 0001:00051b10       ?isUDC@DName@@QBEHXZ       00452b10 f i libvcruntimed:undname.obj
 0001:00051b60       ?isUDTThunk@DName@@QBEHXZ  00452b60 f i libvcruntimed:undname.obj
 0001:00051bb0       ?isVCallThunk@DName@@QBEHXZ 00452bb0 f i libvcruntimed:undname.obj
 0001:00051bd0       ?isValid@DName@@QBEHXZ     00452bd0 f i libvcruntimed:undname.obj
 0001:00051c10       ?length@DName@@QBEHXZ      00452c10 f i libvcruntimed:undname.obj
 0001:00051c60       ?length@DNameStatusNode@@UBEHXZ 00452c60 f i libvcruntimed:undname.obj
 0001:00051c80       ?length@charNode@@UBEHXZ   00452c80 f i libvcruntimed:undname.obj
 0001:00051ca0       ?length@pDNameNode@@UBEHXZ 00452ca0 f i libvcruntimed:undname.obj
 0001:00051ce0       ?length@pairNode@@UBEHXZ   00452ce0 f i libvcruntimed:undname.obj
 0001:00051d70       ?length@pcharNode@@UBEHXZ  00452d70 f i libvcruntimed:undname.obj
 0001:00051d90       ?make@DNameStatusNode@@SAPBV1@W4DNameStatus@@@Z 00452d90 f i libvcruntimed:undname.obj
 0001:00051dd0       ?parseDecoratedName@UnDecorator@@CA?AVDName@@XZ 00452dd0 f   libvcruntimed:undname.obj
 0001:00051fc0       ?setIsArray@DName@@QAEXXZ  00452fc0 f i libvcruntimed:undname.obj
 0001:00051ff0       ?setIsComArray@DName@@QAEXXZ 00452ff0 f i libvcruntimed:undname.obj
 0001:00052020       ?setIsNoTE@DName@@QAEXXZ   00453020 f i libvcruntimed:undname.obj
 0001:00052050       ?setIsPinPtr@DName@@QAEXXZ 00453050 f i libvcruntimed:undname.obj
 0001:00052080       ?setIsUDC@DName@@QAEXXZ    00453080 f i libvcruntimed:undname.obj
 0001:000520c0       ?setIsVCallThunk@DName@@QAEXXZ 004530c0 f i libvcruntimed:undname.obj
 0001:000520f0       ?setPtrRef@DName@@QAEAAV1@XZ 004530f0 f i libvcruntimed:undname.obj
 0001:00052120       ?status@DName@@QBE?AW4DNameStatus@@XZ 00453120 f i libvcruntimed:undname.obj
 0001:00052240       ___unDName                 00453240 f   libvcruntimed:undname.obj
 0001:00052280       ___unDNameEx               00453280 f   libvcruntimed:undname.obj
 0001:00052380       __vsprintf_s_l             00453380 f i libvcruntimed:undname.obj
 0001:000523e0       _sprintf_s                 004533e0 f i libvcruntimed:undname.obj
 0001:00052430       _unDNameGenerateCHPE       00453430 f   libvcruntimed:undname.obj
 0001:000524e0       __get_unexpected           004534e0 f   libvcruntimed:unexpected.obj
 0001:00052500       _set_unexpected            00453500 f   libvcruntimed:unexpected.obj
 0001:00052540       _unexpected                00453540 f   libvcruntimed:unexpected.obj
 0001:00052580       ?GetCurrentState@__FrameHandler3@@SAHPAUEHRegistrationNode@@PAXPBU_s_FuncInfo@@@Z 00453580 f   libvcruntimed:ehstate.obj
 0001:000525c0       ?SetState@__FrameHandler3@@SAXPAUEHRegistrationNode@@PBU_s_FuncInfo@@H@Z 004535c0 f   libvcruntimed:ehstate.obj
 0001:000525e0       ___DestructExceptionObject 004535e0 f   libvcruntimed:ehhelpers.obj
 0001:00052760       ?_CallMemberFunction0@@YGXQAX0@Z 00453760 f i libvcruntimed:ehhelpers.obj
 0001:00052780       ?raw_name@type_info@@QBEPBDXZ 00453780 f i libvcruntimed:ehhelpers.obj
 0001:000527a0       __IsExceptionObjectToBeDestroyed 004537a0 f   libvcruntimed:ehhelpers.obj
 0001:000527f0       __SetWinRTOutOfMemoryExceptionCallback 004537f0 f   libvcruntimed:ehhelpers.obj
 0001:00052800       ___AdjustPointer           00453800 f   libvcruntimed:ehhelpers.obj
 0001:00052860       ___FrameUnwindFilter       00453860 f   libvcruntimed:ehhelpers.obj
 0001:000528f0       ___GetPlatformExceptionInfo 004538f0 f   libvcruntimed:ehhelpers.obj
 0001:00052990       ___current_exception       00453990 f   libvcruntimed:ehhelpers.obj
 0001:000529a0       ___current_exception_context 004539a0 f   libvcruntimed:ehhelpers.obj
 0001:000529b0       ___processing_throw        004539b0 f   libvcruntimed:ehhelpers.obj
 0001:000529c0       ___std_terminate           004539c0 f   libvcruntimed:ehhelpers.obj
 0001:000529d0       __is_exception_typeof      004539d0 f   libvcruntimed:ehhelpers.obj
 0001:00052ae0       __global_unwind2           00453ae0 f   libvcruntimed:exsup.obj
 0001:00052b46       __local_unwind2            00453b46 f   libvcruntimed:exsup.obj
 0001:00052bca       __abnormal_termination     00453bca f   libvcruntimed:exsup.obj
 0001:00052bf0       __NLG_Notify1              00453bf0 f   libvcruntimed:exsup.obj
 0001:00052bfc       __NLG_Notify               00453bfc f   libvcruntimed:exsup.obj
 0001:00052c13       __NLG_Dispatch2            00453c13     libvcruntimed:exsup.obj
 0001:00052c13       __NLG_Dispatch             00453c13     libvcruntimed:exsup.obj
 0001:00052c1b       __NLG_Call                 00453c1b f   libvcruntimed:exsup.obj
 0001:00052c1d       __NLG_Return2              00453c1d     libvcruntimed:exsup.obj
 0001:00052c70       _cos                       00453c70 f   libucrtd:cos.obj
 0001:00052ce0       _fabs                      00453ce0 f   libucrtd:fabs.obj
 0001:00052da0       _sin                       00453da0 f   libucrtd:sin.obj
 0001:00052e00       _sqrt                      00453e00 f   libucrtd:sqrt.obj
 0001:00052e20       _strlen                    00453e20 f   libucrtd:strlen.obj
 0001:00052ed0       ??$?0ABV?$stream_output_adapter@D@__crt_stdio_output@@AB_KABQBDABQAU__crt_locale_pointers@@ABQAD@?$format_validation_base@DV?$stream_output_adapter@D@__crt_stdio_output@@@__crt_stdio_output@@IAE@ABV?$stream_output_adapter@D@1@AB_KABQBDABQAU__crt_locale_pointers@@ABQAD@Z 00453ed0 f i libucrtd:output.obj
 0001:00052f10       ??$?0ABV?$stream_output_adapter@D@__crt_stdio_output@@AB_KABQBDABQAU__crt_locale_pointers@@ABQAD@?$positional_parameter_base@DV?$stream_output_adapter@D@__crt_stdio_output@@@__crt_stdio_output@@IAE@ABV?$stream_output_adapter@D@1@AB_KABQBDABQAU__crt_locale_pointers@@ABQAD@Z 00453f10 f i libucrtd:output.obj
 0001:00052fa0       ??$?0ABV?$stream_output_adapter@D@__crt_stdio_output@@AB_KABQBDABQAU__crt_locale_pointers@@ABQAD@?$standard_base@DV?$stream_output_adapter@D@__crt_stdio_output@@@__crt_stdio_output@@IAE@ABV?$stream_output_adapter@D@1@AB_KABQBDABQAU__crt_locale_pointers@@ABQAD@Z 00453fa0 f i libucrtd:output.obj
 0001:00053000       ??$?0ABV?$stream_output_adapter@_W@__crt_stdio_output@@AB_KABQB_WABQAU__crt_locale_pointers@@ABQAD@?$format_validation_base@_WV?$stream_output_adapter@_W@__crt_stdio_output@@@__crt_stdio_output@@IAE@ABV?$stream_output_adapter@_W@1@AB_KABQB_WABQAU__crt_locale_pointers@@ABQAD@Z 00454000 f i libucrtd:output.obj
 0001:00053040       ??$?0ABV?$stream_output_adapter@_W@__crt_stdio_output@@AB_KABQB_WABQAU__crt_locale_pointers@@ABQAD@?$positional_parameter_base@_WV?$stream_output_adapter@_W@__crt_stdio_output@@@__crt_stdio_output@@IAE@ABV?$stream_output_adapter@_W@1@AB_KABQB_WABQAU__crt_locale_pointers@@ABQAD@Z 00454040 f i libucrtd:output.obj
 0001:000530d0       ??$?0ABV?$stream_output_adapter@_W@__crt_stdio_output@@AB_KABQB_WABQAU__crt_locale_pointers@@ABQAD@?$standard_base@_WV?$stream_output_adapter@_W@__crt_stdio_output@@@__crt_stdio_output@@IAE@ABV?$stream_output_adapter@_W@1@AB_KABQB_WABQAU__crt_locale_pointers@@ABQAD@Z 004540d0 f i libucrtd:output.obj
 0001:00053130       ??$?0ABV?$string_output_adapter@D@__crt_stdio_output@@AB_KABQBDABQAU__crt_locale_pointers@@ABQAD@?$format_validation_base@DV?$string_output_adapter@D@__crt_stdio_output@@@__crt_stdio_output@@IAE@ABV?$string_output_adapter@D@1@AB_KABQBDABQAU__crt_locale_pointers@@ABQAD@Z 00454130 f i libucrtd:output.obj
 0001:00053170       ??$?0ABV?$string_output_adapter@D@__crt_stdio_output@@AB_KABQBDABQAU__crt_locale_pointers@@ABQAD@?$positional_parameter_base@DV?$string_output_adapter@D@__crt_stdio_output@@@__crt_stdio_output@@IAE@ABV?$string_output_adapter@D@1@AB_KABQBDABQAU__crt_locale_pointers@@ABQAD@Z 00454170 f i libucrtd:output.obj
 0001:00053200       ??$?0ABV?$string_output_adapter@D@__crt_stdio_output@@AB_KABQBDABQAU__crt_locale_pointers@@ABQAD@?$standard_base@DV?$string_output_adapter@D@__crt_stdio_output@@@__crt_stdio_output@@IAE@ABV?$string_output_adapter@D@1@AB_KABQBDABQAU__crt_locale_pointers@@ABQAD@Z 00454200 f i libucrtd:output.obj
 0001:00053260       ??$?0ABV?$string_output_adapter@_W@__crt_stdio_output@@AB_KABQB_WABQAU__crt_locale_pointers@@ABQAD@?$format_validation_base@_WV?$string_output_adapter@_W@__crt_stdio_output@@@__crt_stdio_output@@IAE@ABV?$string_output_adapter@_W@1@AB_KABQB_WABQAU__crt_locale_pointers@@ABQAD@Z 00454260 f i libucrtd:output.obj
 0001:000532a0       ??$?0ABV?$string_output_adapter@_W@__crt_stdio_output@@AB_KABQB_WABQAU__crt_locale_pointers@@ABQAD@?$positional_parameter_base@_WV?$string_output_adapter@_W@__crt_stdio_output@@@__crt_stdio_output@@IAE@ABV?$string_output_adapter@_W@1@AB_KABQB_WABQAU__crt_locale_pointers@@ABQAD@Z 004542a0 f i libucrtd:output.obj
 0001:00053330       ??$?0ABV?$string_output_adapter@_W@__crt_stdio_output@@AB_KABQB_WABQAU__crt_locale_pointers@@ABQAD@?$standard_base@_WV?$string_output_adapter@_W@__crt_stdio_output@@@__crt_stdio_output@@IAE@ABV?$string_output_adapter@_W@1@AB_KABQB_WABQAU__crt_locale_pointers@@ABQAD@Z 00454330 f i libucrtd:output.obj
 0001:00053930       ??$__crt_interlocked_read@J@@YAJPDJ@Z 00454930 f i libucrtd:output.obj
 0001:000571d0       ??$count@D@formatting_buffer@__crt_stdio_output@@QBEIXZ 004581d0 f i libucrtd:output.obj
 0001:00057220       ??$count@_W@formatting_buffer@__crt_stdio_output@@QBEIXZ 00458220 f i libucrtd:output.obj
 0001:00057270       ??$data@D@formatting_buffer@__crt_stdio_output@@QAEPADXZ 00458270 f i libucrtd:output.obj
 0001:000572c0       ??$data@_W@formatting_buffer@__crt_stdio_output@@QAEPA_WXZ 004582c0 f i libucrtd:output.obj
 0001:00057310       ??$ensure_buffer_is_big_enough@D@formatting_buffer@__crt_stdio_output@@QAE_NI@Z 00458310 f i libucrtd:output.obj
 0001:00057430       ??$ensure_buffer_is_big_enough@_W@formatting_buffer@__crt_stdio_output@@QAE_NI@Z 00458430 f i libucrtd:output.obj
 0001:00057550       ??$extract_argument_from_va_list@C_J@?$positional_parameter_base@DV?$stream_output_adapter@D@__crt_stdio_output@@@__crt_stdio_output@@IAE_NAA_J@Z 00458550 f i libucrtd:output.obj
 0001:000576d0       ??$extract_argument_from_va_list@C_J@?$positional_parameter_base@DV?$string_output_adapter@D@__crt_stdio_output@@@__crt_stdio_output@@IAE_NAA_J@Z 004586d0 f i libucrtd:output.obj
 0001:00057850       ??$extract_argument_from_va_list@C_J@?$positional_parameter_base@_WV?$stream_output_adapter@_W@__crt_stdio_output@@@__crt_stdio_output@@IAE_NAA_J@Z 00458850 f i libucrtd:output.obj
 0001:000579d0       ??$extract_argument_from_va_list@C_J@?$positional_parameter_base@_WV?$string_output_adapter@_W@__crt_stdio_output@@@__crt_stdio_output@@IAE_NAA_J@Z 004589d0 f i libucrtd:output.obj
 0001:00057b50       ??$extract_argument_from_va_list@C_J@?$standard_base@DV?$stream_output_adapter@D@__crt_stdio_output@@@__crt_stdio_output@@IAE_NAA_J@Z 00458b50 f i libucrtd:output.obj
 0001:00057b90       ??$extract_argument_from_va_list@C_J@?$standard_base@DV?$string_output_adapter@D@__crt_stdio_output@@@__crt_stdio_output@@IAE_NAA_J@Z 00458b90 f i libucrtd:output.obj
 0001:00057bd0       ??$extract_argument_from_va_list@C_J@?$standard_base@_WV?$stream_output_adapter@_W@__crt_stdio_output@@@__crt_stdio_output@@IAE_NAA_J@Z 00458bd0 f i libucrtd:output.obj
 0001:00057c10       ??$extract_argument_from_va_list@C_J@?$standard_base@_WV?$string_output_adapter@_W@__crt_stdio_output@@@__crt_stdio_output@@IAE_NAA_J@Z 00458c10 f i libucrtd:output.obj
 0001:00057c50       ??$extract_argument_from_va_list@E_J@?$positional_parameter_base@DV?$stream_output_adapter@D@__crt_stdio_output@@@__crt_stdio_output@@IAE_NAA_J@Z 00458c50 f i libucrtd:output.obj
 0001:00057dd0       ??$extract_argument_from_va_list@E_J@?$positional_parameter_base@DV?$string_output_adapter@D@__crt_stdio_output@@@__crt_stdio_output@@IAE_NAA_J@Z 00458dd0 f i libucrtd:output.obj
 0001:00057f50       ??$extract_argument_from_va_list@E_J@?$positional_parameter_base@_WV?$stream_output_adapter@_W@__crt_stdio_output@@@__crt_stdio_output@@IAE_NAA_J@Z 00458f50 f i libucrtd:output.obj
 0001:000580d0       ??$extract_argument_from_va_list@E_J@?$positional_parameter_base@_WV?$string_output_adapter@_W@__crt_stdio_output@@@__crt_stdio_output@@IAE_NAA_J@Z 004590d0 f i libucrtd:output.obj
 0001:00058250       ??$extract_argument_from_va_list@E_J@?$standard_base@DV?$stream_output_adapter@D@__crt_stdio_output@@@__crt_stdio_output@@IAE_NAA_J@Z 00459250 f i libucrtd:output.obj
 0001:00058290       ??$extract_argument_from_va_list@E_J@?$standard_base@DV?$string_output_adapter@D@__crt_stdio_output@@@__crt_stdio_output@@IAE_NAA_J@Z 00459290 f i libucrtd:output.obj
 0001:000582d0       ??$extract_argument_from_va_list@E_J@?$standard_base@_WV?$stream_output_adapter@_W@__crt_stdio_output@@@__crt_stdio_output@@IAE_NAA_J@Z 004592d0 f i libucrtd:output.obj
 0001:00058310       ??$extract_argument_from_va_list@E_J@?$standard_base@_WV?$string_output_adapter@_W@__crt_stdio_output@@@__crt_stdio_output@@IAE_NAA_J@Z 00459310 f i libucrtd:output.obj
 0001:00058350       ??$extract_argument_from_va_list@F_J@?$positional_parameter_base@DV?$stream_output_adapter@D@__crt_stdio_output@@@__crt_stdio_output@@IAE_NAA_J@Z 00459350 f i libucrtd:output.obj
 0001:000584d0       ??$extract_argument_from_va_list@F_J@?$positional_parameter_base@DV?$string_output_adapter@D@__crt_stdio_output@@@__crt_stdio_output@@IAE_NAA_J@Z 004594d0 f i libucrtd:output.obj
 0001:00058650       ??$extract_argument_from_va_list@F_J@?$positional_parameter_base@_WV?$stream_output_adapter@_W@__crt_stdio_output@@@__crt_stdio_output@@IAE_NAA_J@Z 00459650 f i libucrtd:output.obj
 0001:000587d0       ??$extract_argument_from_va_list@F_J@?$positional_parameter_base@_WV?$string_output_adapter@_W@__crt_stdio_output@@@__crt_stdio_output@@IAE_NAA_J@Z 004597d0 f i libucrtd:output.obj
 0001:00058950       ??$extract_argument_from_va_list@F_J@?$standard_base@DV?$stream_output_adapter@D@__crt_stdio_output@@@__crt_stdio_output@@IAE_NAA_J@Z 00459950 f i libucrtd:output.obj
 0001:00058990       ??$extract_argument_from_va_list@F_J@?$standard_base@DV?$string_output_adapter@D@__crt_stdio_output@@@__crt_stdio_output@@IAE_NAA_J@Z 00459990 f i libucrtd:output.obj
 0001:000589d0       ??$extract_argument_from_va_list@F_J@?$standard_base@_WV?$stream_output_adapter@_W@__crt_stdio_output@@@__crt_stdio_output@@IAE_NAA_J@Z 004599d0 f i libucrtd:output.obj
 0001:00058a10       ??$extract_argument_from_va_list@F_J@?$standard_base@_WV?$string_output_adapter@_W@__crt_stdio_output@@@__crt_stdio_output@@IAE_NAA_J@Z 00459a10 f i libucrtd:output.obj
 0001:00058a50       ??$extract_argument_from_va_list@GD@?$positional_parameter_base@DV?$stream_output_adapter@D@__crt_stdio_output@@@__crt_stdio_output@@IAE_NAAD@Z 00459a50 f i libucrtd:output.obj
 0001:00058bd0       ??$extract_argument_from_va_list@GD@?$positional_parameter_base@DV?$string_output_adapter@D@__crt_stdio_output@@@__crt_stdio_output@@IAE_NAAD@Z 00459bd0 f i libucrtd:output.obj
 0001:00058d50       ??$extract_argument_from_va_list@GD@?$standard_base@DV?$stream_output_adapter@D@__crt_stdio_output@@@__crt_stdio_output@@IAE_NAAD@Z 00459d50 f i libucrtd:output.obj
 0001:00058d80       ??$extract_argument_from_va_list@GD@?$standard_base@DV?$string_output_adapter@D@__crt_stdio_output@@@__crt_stdio_output@@IAE_NAAD@Z 00459d80 f i libucrtd:output.obj
 0001:00058db0       ??$extract_argument_from_va_list@G_J@?$positional_parameter_base@DV?$stream_output_adapter@D@__crt_stdio_output@@@__crt_stdio_output@@IAE_NAA_J@Z 00459db0 f i libucrtd:output.obj
 0001:00058f30       ??$extract_argument_from_va_list@G_J@?$positional_parameter_base@DV?$string_output_adapter@D@__crt_stdio_output@@@__crt_stdio_output@@IAE_NAA_J@Z 00459f30 f i libucrtd:output.obj
 0001:000590b0       ??$extract_argument_from_va_list@G_J@?$positional_parameter_base@_WV?$stream_output_adapter@_W@__crt_stdio_output@@@__crt_stdio_output@@IAE_NAA_J@Z 0045a0b0 f i libucrtd:output.obj
 0001:00059230       ??$extract_argument_from_va_list@G_J@?$positional_parameter_base@_WV?$string_output_adapter@_W@__crt_stdio_output@@@__crt_stdio_output@@IAE_NAA_J@Z 0045a230 f i libucrtd:output.obj
 0001:000593b0       ??$extract_argument_from_va_list@G_J@?$standard_base@DV?$stream_output_adapter@D@__crt_stdio_output@@@__crt_stdio_output@@IAE_NAA_J@Z 0045a3b0 f i libucrtd:output.obj
 0001:000593f0       ??$extract_argument_from_va_list@G_J@?$standard_base@DV?$string_output_adapter@D@__crt_stdio_output@@@__crt_stdio_output@@IAE_NAA_J@Z 0045a3f0 f i libucrtd:output.obj
 0001:00059430       ??$extract_argument_from_va_list@G_J@?$standard_base@_WV?$stream_output_adapter@_W@__crt_stdio_output@@@__crt_stdio_output@@IAE_NAA_J@Z 0045a430 f i libucrtd:output.obj
 0001:00059470       ??$extract_argument_from_va_list@G_J@?$standard_base@_WV?$string_output_adapter@_W@__crt_stdio_output@@@__crt_stdio_output@@IAE_NAA_J@Z 0045a470 f i libucrtd:output.obj
 0001:000594b0       ??$extract_argument_from_va_list@H_J@?$positional_parameter_base@DV?$stream_output_adapter@D@__crt_stdio_output@@@__crt_stdio_output@@IAE_NAA_J@Z 0045a4b0 f i libucrtd:output.obj
 0001:00059630       ??$extract_argument_from_va_list@H_J@?$positional_parameter_base@DV?$string_output_adapter@D@__crt_stdio_output@@@__crt_stdio_output@@IAE_NAA_J@Z 0045a630 f i libucrtd:output.obj
 0001:000597b0       ??$extract_argument_from_va_list@H_J@?$positional_parameter_base@_WV?$stream_output_adapter@_W@__crt_stdio_output@@@__crt_stdio_output@@IAE_NAA_J@Z 0045a7b0 f i libucrtd:output.obj
 0001:00059930       ??$extract_argument_from_va_list@H_J@?$positional_parameter_base@_WV?$string_output_adapter@_W@__crt_stdio_output@@@__crt_stdio_output@@IAE_NAA_J@Z 0045a930 f i libucrtd:output.obj
 0001:00059ab0       ??$extract_argument_from_va_list@H_J@?$standard_base@DV?$stream_output_adapter@D@__crt_stdio_output@@@__crt_stdio_output@@IAE_NAA_J@Z 0045aab0 f i libucrtd:output.obj
 0001:00059af0       ??$extract_argument_from_va_list@H_J@?$standard_base@DV?$string_output_adapter@D@__crt_stdio_output@@@__crt_stdio_output@@IAE_NAA_J@Z 0045aaf0 f i libucrtd:output.obj
 0001:00059b30       ??$extract_argument_from_va_list@H_J@?$standard_base@_WV?$stream_output_adapter@_W@__crt_stdio_output@@@__crt_stdio_output@@IAE_NAA_J@Z 0045ab30 f i libucrtd:output.obj
 0001:00059b70       ??$extract_argument_from_va_list@H_J@?$standard_base@_WV?$string_output_adapter@_W@__crt_stdio_output@@@__crt_stdio_output@@IAE_NAA_J@Z 0045ab70 f i libucrtd:output.obj
 0001:00059bb0       ??$extract_argument_from_va_list@I_J@?$positional_parameter_base@DV?$stream_output_adapter@D@__crt_stdio_output@@@__crt_stdio_output@@IAE_NAA_J@Z 0045abb0 f i libucrtd:output.obj
 0001:00059d30       ??$extract_argument_from_va_list@I_J@?$positional_parameter_base@DV?$string_output_adapter@D@__crt_stdio_output@@@__crt_stdio_output@@IAE_NAA_J@Z 0045ad30 f i libucrtd:output.obj
 0001:00059eb0       ??$extract_argument_from_va_list@I_J@?$positional_parameter_base@_WV?$stream_output_adapter@_W@__crt_stdio_output@@@__crt_stdio_output@@IAE_NAA_J@Z 0045aeb0 f i libucrtd:output.obj
 0001:0005a030       ??$extract_argument_from_va_list@I_J@?$positional_parameter_base@_WV?$string_output_adapter@_W@__crt_stdio_output@@@__crt_stdio_output@@IAE_NAA_J@Z 0045b030 f i libucrtd:output.obj
 0001:0005a1b0       ??$extract_argument_from_va_list@I_J@?$standard_base@DV?$stream_output_adapter@D@__crt_stdio_output@@@__crt_stdio_output@@IAE_NAA_J@Z 0045b1b0 f i libucrtd:output.obj
 0001:0005a1f0       ??$extract_argument_from_va_list@I_J@?$standard_base@DV?$string_output_adapter@D@__crt_stdio_output@@@__crt_stdio_output@@IAE_NAA_J@Z 0045b1f0 f i libucrtd:output.obj
 0001:0005a230       ??$extract_argument_from_va_list@I_J@?$standard_base@_WV?$stream_output_adapter@_W@__crt_stdio_output@@@__crt_stdio_output@@IAE_NAA_J@Z 0045b230 f i libucrtd:output.obj
 0001:0005a270       ??$extract_argument_from_va_list@I_J@?$standard_base@_WV?$string_output_adapter@_W@__crt_stdio_output@@@__crt_stdio_output@@IAE_NAA_J@Z 0045b270 f i libucrtd:output.obj
 0001:0005a2b0       ??$extract_argument_from_va_list@PADPAD@?$positional_parameter_base@DV?$stream_output_adapter@D@__crt_stdio_output@@@__crt_stdio_output@@IAE_NAAPAD@Z 0045b2b0 f i libucrtd:output.obj
 0001:0005a430       ??$extract_argument_from_va_list@PADPAD@?$positional_parameter_base@DV?$string_output_adapter@D@__crt_stdio_output@@@__crt_stdio_output@@IAE_NAAPAD@Z 0045b430 f i libucrtd:output.obj
 0001:0005a5b0       ??$extract_argument_from_va_list@PADPAD@?$positional_parameter_base@_WV?$stream_output_adapter@_W@__crt_stdio_output@@@__crt_stdio_output@@IAE_NAAPAD@Z 0045b5b0 f i libucrtd:output.obj
 0001:0005a730       ??$extract_argument_from_va_list@PADPAD@?$positional_parameter_base@_WV?$string_output_adapter@_W@__crt_stdio_output@@@__crt_stdio_output@@IAE_NAAPAD@Z 0045b730 f i libucrtd:output.obj
 0001:0005a8b0       ??$extract_argument_from_va_list@PADPAD@?$standard_base@DV?$stream_output_adapter@D@__crt_stdio_output@@@__crt_stdio_output@@IAE_NAAPAD@Z 0045b8b0 f i libucrtd:output.obj
 0001:0005a8e0       ??$extract_argument_from_va_list@PADPAD@?$standard_base@DV?$string_output_adapter@D@__crt_stdio_output@@@__crt_stdio_output@@IAE_NAAPAD@Z 0045b8e0 f i libucrtd:output.obj
 0001:0005a910       ??$extract_argument_from_va_list@PADPAD@?$standard_base@_WV?$stream_output_adapter@_W@__crt_stdio_output@@@__crt_stdio_output@@IAE_NAAPAD@Z 0045b910 f i libucrtd:output.obj
 0001:0005a940       ??$extract_argument_from_va_list@PADPAD@?$standard_base@_WV?$string_output_adapter@_W@__crt_stdio_output@@@__crt_stdio_output@@IAE_NAAPAD@Z 0045b940 f i libucrtd:output.obj
 0001:0005b1b0       ??$extract_argument_from_va_list@PAXPAX@?$positional_parameter_base@DV?$stream_output_adapter@D@__crt_stdio_output@@@__crt_stdio_output@@IAE_NAAPAX@Z 0045c1b0 f i libucrtd:output.obj
 0001:0005b330       ??$extract_argument_from_va_list@PAXPAX@?$positional_parameter_base@DV?$string_output_adapter@D@__crt_stdio_output@@@__crt_stdio_output@@IAE_NAAPAX@Z 0045c330 f i libucrtd:output.obj
 0001:0005b4b0       ??$extract_argument_from_va_list@PAXPAX@?$positional_parameter_base@_WV?$stream_output_adapter@_W@__crt_stdio_output@@@__crt_stdio_output@@IAE_NAAPAX@Z 0045c4b0 f i libucrtd:output.obj
 0001:0005b630       ??$extract_argument_from_va_list@PAXPAX@?$positional_parameter_base@_WV?$string_output_adapter@_W@__crt_stdio_output@@@__crt_stdio_output@@IAE_NAAPAX@Z 0045c630 f i libucrtd:output.obj
 0001:0005b7b0       ??$extract_argument_from_va_list@PAXPAX@?$standard_base@DV?$stream_output_adapter@D@__crt_stdio_output@@@__crt_stdio_output@@IAE_NAAPAX@Z 0045c7b0 f i libucrtd:output.obj
 0001:0005b7e0       ??$extract_argument_from_va_list@PAXPAX@?$standard_base@DV?$string_output_adapter@D@__crt_stdio_output@@@__crt_stdio_output@@IAE_NAAPAX@Z 0045c7e0 f i libucrtd:output.obj
 0001:0005b810       ??$extract_argument_from_va_list@PAXPAX@?$standard_base@_WV?$stream_output_adapter@_W@__crt_stdio_output@@@__crt_stdio_output@@IAE_NAAPAX@Z 0045c810 f i libucrtd:output.obj
 0001:0005b840       ??$extract_argument_from_va_list@PAXPAX@?$standard_base@_WV?$string_output_adapter@_W@__crt_stdio_output@@@__crt_stdio_output@@IAE_NAAPAX@Z 0045c840 f i libucrtd:output.obj
 0001:0005b870       ??$extract_argument_from_va_list@U_CRT_DOUBLE@@U1@@?$positional_parameter_base@DV?$stream_output_adapter@D@__crt_stdio_output@@@__crt_stdio_output@@IAE_NAAU_CRT_DOUBLE@@@Z 0045c870 f i libucrtd:output.obj
 0001:0005ba20       ??$extract_argument_from_va_list@U_CRT_DOUBLE@@U1@@?$positional_parameter_base@DV?$string_output_adapter@D@__crt_stdio_output@@@__crt_stdio_output@@IAE_NAAU_CRT_DOUBLE@@@Z 0045ca20 f i libucrtd:output.obj
 0001:0005bbd0       ??$extract_argument_from_va_list@U_CRT_DOUBLE@@U1@@?$positional_parameter_base@_WV?$stream_output_adapter@_W@__crt_stdio_output@@@__crt_stdio_output@@IAE_NAAU_CRT_DOUBLE@@@Z 0045cbd0 f i libucrtd:output.obj
 0001:0005bd80       ??$extract_argument_from_va_list@U_CRT_DOUBLE@@U1@@?$positional_parameter_base@_WV?$string_output_adapter@_W@__crt_stdio_output@@@__crt_stdio_output@@IAE_NAAU_CRT_DOUBLE@@@Z 0045cd80 f i libucrtd:output.obj
 0001:0005bf30       ??$extract_argument_from_va_list@U_CRT_DOUBLE@@U1@@?$standard_base@DV?$stream_output_adapter@D@__crt_stdio_output@@@__crt_stdio_output@@IAE_NAAU_CRT_DOUBLE@@@Z 0045cf30 f i libucrtd:output.obj
 0001:0005bf90       ??$extract_argument_from_va_list@U_CRT_DOUBLE@@U1@@?$standard_base@DV?$string_output_adapter@D@__crt_stdio_output@@@__crt_stdio_output@@IAE_NAAU_CRT_DOUBLE@@@Z 0045cf90 f i libucrtd:output.obj
 0001:0005bff0       ??$extract_argument_from_va_list@U_CRT_DOUBLE@@U1@@?$standard_base@_WV?$stream_output_adapter@_W@__crt_stdio_output@@@__crt_stdio_output@@IAE_NAAU_CRT_DOUBLE@@@Z 0045cff0 f i libucrtd:output.obj
 0001:0005c050       ??$extract_argument_from_va_list@U_CRT_DOUBLE@@U1@@?$standard_base@_WV?$string_output_adapter@_W@__crt_stdio_output@@@__crt_stdio_output@@IAE_NAAU_CRT_DOUBLE@@@Z 0045d050 f i libucrtd:output.obj
 0001:0005c0b0       ??$extract_argument_from_va_list@_J_J@?$positional_parameter_base@DV?$stream_output_adapter@D@__crt_stdio_output@@@__crt_stdio_output@@IAE_NAA_J@Z 0045d0b0 f i libucrtd:output.obj
 0001:0005c230       ??$extract_argument_from_va_list@_J_J@?$positional_parameter_base@DV?$string_output_adapter@D@__crt_stdio_output@@@__crt_stdio_output@@IAE_NAA_J@Z 0045d230 f i libucrtd:output.obj
 0001:0005c3b0       ??$extract_argument_from_va_list@_J_J@?$positional_parameter_base@_WV?$stream_output_adapter@_W@__crt_stdio_output@@@__crt_stdio_output@@IAE_NAA_J@Z 0045d3b0 f i libucrtd:output.obj
 0001:0005c530       ??$extract_argument_from_va_list@_J_J@?$positional_parameter_base@_WV?$string_output_adapter@_W@__crt_stdio_output@@@__crt_stdio_output@@IAE_NAA_J@Z 0045d530 f i libucrtd:output.obj
 0001:0005c6b0       ??$extract_argument_from_va_list@_J_J@?$standard_base@DV?$stream_output_adapter@D@__crt_stdio_output@@@__crt_stdio_output@@IAE_NAA_J@Z 0045d6b0 f i libucrtd:output.obj
 0001:0005c6f0       ??$extract_argument_from_va_list@_J_J@?$standard_base@DV?$string_output_adapter@D@__crt_stdio_output@@@__crt_stdio_output@@IAE_NAA_J@Z 0045d6f0 f i libucrtd:output.obj
 0001:0005c730       ??$extract_argument_from_va_list@_J_J@?$standard_base@_WV?$stream_output_adapter@_W@__crt_stdio_output@@@__crt_stdio_output@@IAE_NAA_J@Z 0045d730 f i libucrtd:output.obj
 0001:0005c770       ??$extract_argument_from_va_list@_J_J@?$standard_base@_WV?$string_output_adapter@_W@__crt_stdio_output@@@__crt_stdio_output@@IAE_NAA_J@Z 0045d770 f i libucrtd:output.obj
 0001:0005c7b0       ??$extract_argument_from_va_list@_K_J@?$positional_parameter_base@DV?$stream_output_adapter@D@__crt_stdio_output@@@__crt_stdio_output@@IAE_NAA_J@Z 0045d7b0 f i libucrtd:output.obj
 0001:0005c930       ??$extract_argument_from_va_list@_K_J@?$positional_parameter_base@DV?$string_output_adapter@D@__crt_stdio_output@@@__crt_stdio_output@@IAE_NAA_J@Z 0045d930 f i libucrtd:output.obj
 0001:0005cab0       ??$extract_argument_from_va_list@_K_J@?$positional_parameter_base@_WV?$stream_output_adapter@_W@__crt_stdio_output@@@__crt_stdio_output@@IAE_NAA_J@Z 0045dab0 f i libucrtd:output.obj
 0001:0005cc30       ??$extract_argument_from_va_list@_K_J@?$positional_parameter_base@_WV?$string_output_adapter@_W@__crt_stdio_output@@@__crt_stdio_output@@IAE_NAA_J@Z 0045dc30 f i libucrtd:output.obj
 0001:0005cdb0       ??$extract_argument_from_va_list@_K_J@?$standard_base@DV?$stream_output_adapter@D@__crt_stdio_output@@@__crt_stdio_output@@IAE_NAA_J@Z 0045ddb0 f i libucrtd:output.obj
 0001:0005cdf0       ??$extract_argument_from_va_list@_K_J@?$standard_base@DV?$string_output_adapter@D@__crt_stdio_output@@@__crt_stdio_output@@IAE_NAA_J@Z 0045ddf0 f i libucrtd:output.obj
 0001:0005ce30       ??$extract_argument_from_va_list@_K_J@?$standard_base@_WV?$stream_output_adapter@_W@__crt_stdio_output@@@__crt_stdio_output@@IAE_NAA_J@Z 0045de30 f i libucrtd:output.obj
 0001:0005ce70       ??$extract_argument_from_va_list@_K_J@?$standard_base@_WV?$string_output_adapter@_W@__crt_stdio_output@@@__crt_stdio_output@@IAE_NAA_J@Z 0045de70 f i libucrtd:output.obj
 0001:0005ceb0       ??$extract_argument_from_va_list@_W_W@?$positional_parameter_base@DV?$stream_output_adapter@D@__crt_stdio_output@@@__crt_stdio_output@@IAE_NAA_W@Z 0045deb0 f i libucrtd:output.obj
 0001:0005d030       ??$extract_argument_from_va_list@_W_W@?$positional_parameter_base@DV?$string_output_adapter@D@__crt_stdio_output@@@__crt_stdio_output@@IAE_NAA_W@Z 0045e030 f i libucrtd:output.obj
 0001:0005d1b0       ??$extract_argument_from_va_list@_W_W@?$positional_parameter_base@_WV?$stream_output_adapter@_W@__crt_stdio_output@@@__crt_stdio_output@@IAE_NAA_W@Z 0045e1b0 f i libucrtd:output.obj
 0001:0005d330       ??$extract_argument_from_va_list@_W_W@?$positional_parameter_base@_WV?$string_output_adapter@_W@__crt_stdio_output@@@__crt_stdio_output@@IAE_NAA_W@Z 0045e330 f i libucrtd:output.obj
 0001:0005d4b0       ??$extract_argument_from_va_list@_W_W@?$standard_base@DV?$stream_output_adapter@D@__crt_stdio_output@@@__crt_stdio_output@@IAE_NAA_W@Z 0045e4b0 f i libucrtd:output.obj
 0001:0005d4e0       ??$extract_argument_from_va_list@_W_W@?$standard_base@DV?$string_output_adapter@D@__crt_stdio_output@@@__crt_stdio_output@@IAE_NAA_W@Z 0045e4e0 f i libucrtd:output.obj
 0001:0005d510       ??$extract_argument_from_va_list@_W_W@?$standard_base@_WV?$stream_output_adapter@_W@__crt_stdio_output@@@__crt_stdio_output@@IAE_NAA_W@Z 0045e510 f i libucrtd:output.obj
 0001:0005d540       ??$extract_argument_from_va_list@_W_W@?$standard_base@_WV?$string_output_adapter@_W@__crt_stdio_output@@@__crt_stdio_output@@IAE_NAA_W@Z 0045e540 f i libucrtd:output.obj
 0001:0005d570       ??$get_parameter_type@D@?$positional_parameter_base@DV?$stream_output_adapter@D@__crt_stdio_output@@@__crt_stdio_output@@CA?AW4parameter_type@01@PAD@Z 0045e570 f i libucrtd:output.obj
 0001:0005d580       ??$get_parameter_type@D@?$positional_parameter_base@DV?$string_output_adapter@D@__crt_stdio_output@@@__crt_stdio_output@@CA?AW4parameter_type@01@PAD@Z 0045e580 f i libucrtd:output.obj
 0001:0005d590       ??$get_parameter_type@D@?$positional_parameter_base@_WV?$stream_output_adapter@_W@__crt_stdio_output@@@__crt_stdio_output@@CA?AW4parameter_type@01@PAD@Z 0045e590 f i libucrtd:output.obj
 0001:0005d5a0       ??$get_parameter_type@D@?$positional_parameter_base@_WV?$string_output_adapter@_W@__crt_stdio_output@@@__crt_stdio_output@@CA?AW4parameter_type@01@PAD@Z 0045e5a0 f i libucrtd:output.obj
 0001:0005d5f0       ??$get_parameter_type@X@?$positional_parameter_base@DV?$stream_output_adapter@D@__crt_stdio_output@@@__crt_stdio_output@@CA?AW4parameter_type@01@PAX@Z 0045e5f0 f i libucrtd:output.obj
 0001:0005d600       ??$get_parameter_type@X@?$positional_parameter_base@DV?$string_output_adapter@D@__crt_stdio_output@@@__crt_stdio_output@@CA?AW4parameter_type@01@PAX@Z 0045e600 f i libucrtd:output.obj
 0001:0005d610       ??$get_parameter_type@X@?$positional_parameter_base@_WV?$stream_output_adapter@_W@__crt_stdio_output@@@__crt_stdio_output@@CA?AW4parameter_type@01@PAX@Z 0045e610 f i libucrtd:output.obj
 0001:0005d620       ??$get_parameter_type@X@?$positional_parameter_base@_WV?$string_output_adapter@_W@__crt_stdio_output@@@__crt_stdio_output@@CA?AW4parameter_type@01@PAX@Z 0045e620 f i libucrtd:output.obj
 0001:0005d630       ??$is_character_specifier@D@?$positional_parameter_base@DV?$stream_output_adapter@D@__crt_stdio_output@@@__crt_stdio_output@@CA_ND@Z 0045e630 f i libucrtd:output.obj
 0001:0005d670       ??$is_character_specifier@D@?$positional_parameter_base@DV?$string_output_adapter@D@__crt_stdio_output@@@__crt_stdio_output@@CA_ND@Z 0045e670 f i libucrtd:output.obj
 0001:0005d6b0       ??$is_character_specifier@_W@?$positional_parameter_base@_WV?$stream_output_adapter@_W@__crt_stdio_output@@@__crt_stdio_output@@CA_N_W@Z 0045e6b0 f i libucrtd:output.obj
 0001:0005d6f0       ??$is_character_specifier@_W@?$positional_parameter_base@_WV?$string_output_adapter@_W@__crt_stdio_output@@@__crt_stdio_output@@CA_N_W@Z 0045e6f0 f i libucrtd:output.obj
 0001:0005d730       ??$is_integral_specifier@D@?$positional_parameter_base@DV?$stream_output_adapter@D@__crt_stdio_output@@@__crt_stdio_output@@CA_ND@Z 0045e730 f i libucrtd:output.obj
 0001:0005d7b0       ??$is_integral_specifier@D@?$positional_parameter_base@DV?$string_output_adapter@D@__crt_stdio_output@@@__crt_stdio_output@@CA_ND@Z 0045e7b0 f i libucrtd:output.obj
 0001:0005d830       ??$is_integral_specifier@_W@?$positional_parameter_base@_WV?$stream_output_adapter@_W@__crt_stdio_output@@@__crt_stdio_output@@CA_N_W@Z 0045e830 f i libucrtd:output.obj
 0001:0005d8b0       ??$is_integral_specifier@_W@?$positional_parameter_base@_WV?$string_output_adapter@_W@__crt_stdio_output@@@__crt_stdio_output@@CA_N_W@Z 0045e8b0 f i libucrtd:output.obj
 0001:0005d930       ??$is_pointer_specifier@D@?$positional_parameter_base@DV?$stream_output_adapter@D@__crt_stdio_output@@@__crt_stdio_output@@CA_ND@Z 0045e930 f i libucrtd:output.obj
 0001:0005d960       ??$is_pointer_specifier@D@?$positional_parameter_base@DV?$string_output_adapter@D@__crt_stdio_output@@@__crt_stdio_output@@CA_ND@Z 0045e960 f i libucrtd:output.obj
 0001:0005d990       ??$is_pointer_specifier@_W@?$positional_parameter_base@_WV?$stream_output_adapter@_W@__crt_stdio_output@@@__crt_stdio_output@@CA_N_W@Z 0045e990 f i libucrtd:output.obj
 0001:0005d9c0       ??$is_pointer_specifier@_W@?$positional_parameter_base@_WV?$string_output_adapter@_W@__crt_stdio_output@@@__crt_stdio_output@@CA_N_W@Z 0045e9c0 f i libucrtd:output.obj
 0001:0005d9f0       ??$is_string_specifier@D@?$positional_parameter_base@DV?$stream_output_adapter@D@__crt_stdio_output@@@__crt_stdio_output@@CA_ND@Z 0045e9f0 f i libucrtd:output.obj
 0001:0005da30       ??$is_string_specifier@D@?$positional_parameter_base@DV?$string_output_adapter@D@__crt_stdio_output@@@__crt_stdio_output@@CA_ND@Z 0045ea30 f i libucrtd:output.obj
 0001:0005da70       ??$is_string_specifier@_W@?$positional_parameter_base@_WV?$stream_output_adapter@_W@__crt_stdio_output@@@__crt_stdio_output@@CA_N_W@Z 0045ea70 f i libucrtd:output.obj
 0001:0005dab0       ??$is_string_specifier@_W@?$positional_parameter_base@_WV?$string_output_adapter@_W@__crt_stdio_output@@@__crt_stdio_output@@CA_N_W@Z 0045eab0 f i libucrtd:output.obj
 0001:0005daf0       ??$is_wide_character_specifier@D@__crt_stdio_output@@YA_N_KDW4length_modifier@0@@Z 0045eaf0 f i libucrtd:output.obj
 0001:0005db90       ??$is_wide_character_specifier@_W@__crt_stdio_output@@YA_N_K_WW4length_modifier@0@@Z 0045eb90 f i libucrtd:output.obj
 0001:0005dc80       ??$peek_va_arg@C@__crt_stdio_output@@YACPAD@Z 0045ec80 f i libucrtd:output.obj
 0001:0005dca0       ??$peek_va_arg@E@__crt_stdio_output@@YAEPAD@Z 0045eca0 f i libucrtd:output.obj
 0001:0005dcc0       ??$peek_va_arg@F@__crt_stdio_output@@YAFPAD@Z 0045ecc0 f i libucrtd:output.obj
 0001:0005dce0       ??$peek_va_arg@G@__crt_stdio_output@@YAGPAD@Z 0045ece0 f i libucrtd:output.obj
 0001:0005dd00       ??$peek_va_arg@H@__crt_stdio_output@@YAHPAD@Z 0045ed00 f i libucrtd:output.obj
 0001:0005dd20       ??$peek_va_arg@I@__crt_stdio_output@@YAIPAD@Z 0045ed20 f i libucrtd:output.obj
 0001:0005dd40       ??$peek_va_arg@PAD@__crt_stdio_output@@YAPADPAD@Z 0045ed40 f i libucrtd:output.obj
 0001:0005dde0       ??$peek_va_arg@PAX@__crt_stdio_output@@YAPAXPAD@Z 0045ede0 f i libucrtd:output.obj
 0001:0005de00       ??$peek_va_arg@U_CRT_DOUBLE@@@__crt_stdio_output@@YA?AU_CRT_DOUBLE@@PAD@Z 0045ee00 f i libucrtd:output.obj
 0001:0005de20       ??$peek_va_arg@_J@__crt_stdio_output@@YA_JPAD@Z 0045ee20 f i libucrtd:output.obj
 0001:0005de40       ??$peek_va_arg@_K@__crt_stdio_output@@YA_KPAD@Z 0045ee40 f i libucrtd:output.obj
 0001:0005de60       ??$peek_va_arg@_W@__crt_stdio_output@@YA_WPAD@Z 0045ee60 f i libucrtd:output.obj
 0001:0005de80       ??$puttc_nolock@ABDPAU_iobuf@@@?$__crt_char_traits@D@@SAHABD$$QAPAU_iobuf@@@Z 0045ee80 f i libucrtd:output.obj
 0001:0005deb0       ??$puttc_nolock@AB_WPAU_iobuf@@@?$__crt_char_traits@_W@@SAGAB_W$$QAPAU_iobuf@@@Z 0045eeb0 f i libucrtd:output.obj
 0001:0005dee0       ??$read_va_arg@C@__crt_stdio_output@@YACAAPAD@Z 0045eee0 f i libucrtd:output.obj
 0001:0005df10       ??$read_va_arg@E@__crt_stdio_output@@YAEAAPAD@Z 0045ef10 f i libucrtd:output.obj
 0001:0005df40       ??$read_va_arg@F@__crt_stdio_output@@YAFAAPAD@Z 0045ef40 f i libucrtd:output.obj
 0001:0005df70       ??$read_va_arg@G@__crt_stdio_output@@YAGAAPAD@Z 0045ef70 f i libucrtd:output.obj
 0001:0005dfa0       ??$read_va_arg@H@__crt_stdio_output@@YAHAAPAD@Z 0045efa0 f i libucrtd:output.obj
 0001:0005dfd0       ??$read_va_arg@I@__crt_stdio_output@@YAIAAPAD@Z 0045efd0 f i libucrtd:output.obj
 0001:0005e000       ??$read_va_arg@PAD@__crt_stdio_output@@YAPADAAPAD@Z 0045f000 f i libucrtd:output.obj
 0001:0005e270       ??$read_va_arg@PAX@__crt_stdio_output@@YAPAXAAPAD@Z 0045f270 f i libucrtd:output.obj
 0001:0005e2a0       ??$read_va_arg@U_CRT_DOUBLE@@@__crt_stdio_output@@YA?AU_CRT_DOUBLE@@AAPAD@Z 0045f2a0 f i libucrtd:output.obj
 0001:0005e2d0       ??$read_va_arg@_J@__crt_stdio_output@@YA_JAAPAD@Z 0045f2d0 f i libucrtd:output.obj
 0001:0005e300       ??$read_va_arg@_K@__crt_stdio_output@@YA_KAAPAD@Z 0045f300 f i libucrtd:output.obj
 0001:0005e330       ??$read_va_arg@_W@__crt_stdio_output@@YA_WAAPAD@Z 0045f330 f i libucrtd:output.obj
 0001:0005e360       ??$scratch_count@D@formatting_buffer@__crt_stdio_output@@QBEIXZ 0045f360 f i libucrtd:output.obj
 0001:0005e380       ??$scratch_data@D@formatting_buffer@__crt_stdio_output@@QAEPADXZ 0045f380 f i libucrtd:output.obj
 0001:0005e3e0       ??$tcstol@AAPBDPAPADH@?$__crt_char_traits@D@@SAJAAPBD$$QAPAPAD$$QAH@Z 0045f3e0 f i libucrtd:output.obj
 0001:0005e410       ??$tcstol@AAPB_WPAPA_WH@?$__crt_char_traits@_W@@SAJAAPB_W$$QAPAPA_W$$QAH@Z 0045f410 f i libucrtd:output.obj
 0001:0005e440       ??$tcstol@PBDPAPADH@?$__crt_char_traits@D@@SAJ$$QAPBD$$QAPAPAD$$QAH@Z 0045f440 f i libucrtd:output.obj
 0001:0005e470       ??$tcstol@PB_WPAPA_WH@?$__crt_char_traits@_W@@SAJ$$QAPB_W$$QAPAPA_W$$QAH@Z 0045f470 f i libucrtd:output.obj
 0001:0005e4a0       ??$type_case_integer_parse_into_buffer@I@?$output_processor@DV?$stream_output_adapter@D@__crt_stdio_output@@V?$format_validation_base@DV?$stream_output_adapter@D@__crt_stdio_output@@@2@@__crt_stdio_output@@AAEXII_N@Z 0045f4a0 f i libucrtd:output.obj
 0001:0005e5b0       ??$type_case_integer_parse_into_buffer@I@?$output_processor@DV?$stream_output_adapter@D@__crt_stdio_output@@V?$positional_parameter_base@DV?$stream_output_adapter@D@__crt_stdio_output@@@2@@__crt_stdio_output@@AAEXII_N@Z 0045f5b0 f i libucrtd:output.obj
 0001:0005e6c0       ??$type_case_integer_parse_into_buffer@I@?$output_processor@DV?$stream_output_adapter@D@__crt_stdio_output@@V?$standard_base@DV?$stream_output_adapter@D@__crt_stdio_output@@@2@@__crt_stdio_output@@AAEXII_N@Z 0045f6c0 f i libucrtd:output.obj
 0001:0005e7d0       ??$type_case_integer_parse_into_buffer@I@?$output_processor@DV?$string_output_adapter@D@__crt_stdio_output@@V?$format_validation_base@DV?$string_output_adapter@D@__crt_stdio_output@@@2@@__crt_stdio_output@@AAEXII_N@Z 0045f7d0 f i libucrtd:output.obj
 0001:0005e8e0       ??$type_case_integer_parse_into_buffer@I@?$output_processor@DV?$string_output_adapter@D@__crt_stdio_output@@V?$positional_parameter_base@DV?$string_output_adapter@D@__crt_stdio_output@@@2@@__crt_stdio_output@@AAEXII_N@Z 0045f8e0 f i libucrtd:output.obj
 0001:0005e9f0       ??$type_case_integer_parse_into_buffer@I@?$output_processor@DV?$string_output_adapter@D@__crt_stdio_output@@V?$standard_base@DV?$string_output_adapter@D@__crt_stdio_output@@@2@@__crt_stdio_output@@AAEXII_N@Z 0045f9f0 f i libucrtd:output.obj
 0001:0005eb00       ??$type_case_integer_parse_into_buffer@I@?$output_processor@_WV?$stream_output_adapter@_W@__crt_stdio_output@@V?$format_validation_base@_WV?$stream_output_adapter@_W@__crt_stdio_output@@@2@@__crt_stdio_output@@AAEXII_N@Z 0045fb00 f i libucrtd:output.obj
 0001:0005ec10       ??$type_case_integer_parse_into_buffer@I@?$output_processor@_WV?$stream_output_adapter@_W@__crt_stdio_output@@V?$positional_parameter_base@_WV?$stream_output_adapter@_W@__crt_stdio_output@@@2@@__crt_stdio_output@@AAEXII_N@Z 0045fc10 f i libucrtd:output.obj
 0001:0005ed20       ??$type_case_integer_parse_into_buffer@I@?$output_processor@_WV?$stream_output_adapter@_W@__crt_stdio_output@@V?$standard_base@_WV?$stream_output_adapter@_W@__crt_stdio_output@@@2@@__crt_stdio_output@@AAEXII_N@Z 0045fd20 f i libucrtd:output.obj
 0001:0005ee30       ??$type_case_integer_parse_into_buffer@I@?$output_processor@_WV?$string_output_adapter@_W@__crt_stdio_output@@V?$format_validation_base@_WV?$string_output_adapter@_W@__crt_stdio_output@@@2@@__crt_stdio_output@@AAEXII_N@Z 0045fe30 f i libucrtd:output.obj
 0001:0005ef40       ??$type_case_integer_parse_into_buffer@I@?$output_processor@_WV?$string_output_adapter@_W@__crt_stdio_output@@V?$positional_parameter_base@_WV?$string_output_adapter@_W@__crt_stdio_output@@@2@@__crt_stdio_output@@AAEXII_N@Z 0045ff40 f i libucrtd:output.obj
 0001:0005f050       ??$type_case_integer_parse_into_buffer@I@?$output_processor@_WV?$string_output_adapter@_W@__crt_stdio_output@@V?$standard_base@_WV?$string_output_adapter@_W@__crt_stdio_output@@@2@@__crt_stdio_output@@AAEXII_N@Z 00460050 f i libucrtd:output.obj
 0001:0005f160       ??$type_case_integer_parse_into_buffer@_K@?$output_processor@DV?$stream_output_adapter@D@__crt_stdio_output@@V?$format_validation_base@DV?$stream_output_adapter@D@__crt_stdio_output@@@2@@__crt_stdio_output@@AAEX_KI_N@Z 00460160 f i libucrtd:output.obj
 0001:0005f2a0       ??$type_case_integer_parse_into_buffer@_K@?$output_processor@DV?$stream_output_adapter@D@__crt_stdio_output@@V?$positional_parameter_base@DV?$stream_output_adapter@D@__crt_stdio_output@@@2@@__crt_stdio_output@@AAEX_KI_N@Z 004602a0 f i libucrtd:output.obj
 0001:0005f3e0       ??$type_case_integer_parse_into_buffer@_K@?$output_processor@DV?$stream_output_adapter@D@__crt_stdio_output@@V?$standard_base@DV?$stream_output_adapter@D@__crt_stdio_output@@@2@@__crt_stdio_output@@AAEX_KI_N@Z 004603e0 f i libucrtd:output.obj
 0001:0005f520       ??$type_case_integer_parse_into_buffer@_K@?$output_processor@DV?$string_output_adapter@D@__crt_stdio_output@@V?$format_validation_base@DV?$string_output_adapter@D@__crt_stdio_output@@@2@@__crt_stdio_output@@AAEX_KI_N@Z 00460520 f i libucrtd:output.obj
 0001:0005f660       ??$type_case_integer_parse_into_buffer@_K@?$output_processor@DV?$string_output_adapter@D@__crt_stdio_output@@V?$positional_parameter_base@DV?$string_output_adapter@D@__crt_stdio_output@@@2@@__crt_stdio_output@@AAEX_KI_N@Z 00460660 f i libucrtd:output.obj
 0001:0005f7a0       ??$type_case_integer_parse_into_buffer@_K@?$output_processor@DV?$string_output_adapter@D@__crt_stdio_output@@V?$standard_base@DV?$string_output_adapter@D@__crt_stdio_output@@@2@@__crt_stdio_output@@AAEX_KI_N@Z 004607a0 f i libucrtd:output.obj
 0001:0005f8e0       ??$type_case_integer_parse_into_buffer@_K@?$output_processor@_WV?$stream_output_adapter@_W@__crt_stdio_output@@V?$format_validation_base@_WV?$stream_output_adapter@_W@__crt_stdio_output@@@2@@__crt_stdio_output@@AAEX_KI_N@Z 004608e0 f i libucrtd:output.obj
 0001:0005fa20       ??$type_case_integer_parse_into_buffer@_K@?$output_processor@_WV?$stream_output_adapter@_W@__crt_stdio_output@@V?$positional_parameter_base@_WV?$stream_output_adapter@_W@__crt_stdio_output@@@2@@__crt_stdio_output@@AAEX_KI_N@Z 00460a20 f i libucrtd:output.obj
 0001:0005fb60       ??$type_case_integer_parse_into_buffer@_K@?$output_processor@_WV?$stream_output_adapter@_W@__crt_stdio_output@@V?$standard_base@_WV?$stream_output_adapter@_W@__crt_stdio_output@@@2@@__crt_stdio_output@@AAEX_KI_N@Z 00460b60 f i libucrtd:output.obj
 0001:0005fca0       ??$type_case_integer_parse_into_buffer@_K@?$output_processor@_WV?$string_output_adapter@_W@__crt_stdio_output@@V?$format_validation_base@_WV?$string_output_adapter@_W@__crt_stdio_output@@@2@@__crt_stdio_output@@AAEX_KI_N@Z 00460ca0 f i libucrtd:output.obj
 0001:0005fde0       ??$type_case_integer_parse_into_buffer@_K@?$output_processor@_WV?$string_output_adapter@_W@__crt_stdio_output@@V?$positional_parameter_base@_WV?$string_output_adapter@_W@__crt_stdio_output@@@2@@__crt_stdio_output@@AAEX_KI_N@Z 00460de0 f i libucrtd:output.obj
 0001:0005ff20       ??$type_case_integer_parse_into_buffer@_K@?$output_processor@_WV?$string_output_adapter@_W@__crt_stdio_output@@V?$standard_base@_WV?$string_output_adapter@_W@__crt_stdio_output@@@2@@__crt_stdio_output@@AAEX_KI_N@Z 00460f20 f i libucrtd:output.obj
 0001:00060060       ??$write_multiple_characters@V?$stream_output_adapter@D@__crt_stdio_output@@D@__crt_stdio_output@@YAXABV?$stream_output_adapter@D@0@DHQAH@Z 00461060 f i libucrtd:output.obj
 0001:000600c0       ??$write_multiple_characters@V?$stream_output_adapter@_W@__crt_stdio_output@@D@__crt_stdio_output@@YAXABV?$stream_output_adapter@_W@0@DHQAH@Z 004610c0 f i libucrtd:output.obj
 0001:00060120       ??$write_multiple_characters@V?$string_output_adapter@D@__crt_stdio_output@@D@__crt_stdio_output@@YAXABV?$string_output_adapter@D@0@DHQAH@Z 00461120 f i libucrtd:output.obj
 0001:00060180       ??$write_multiple_characters@V?$string_output_adapter@_W@__crt_stdio_output@@D@__crt_stdio_output@@YAXABV?$string_output_adapter@_W@0@DHQAH@Z 00461180 f i libucrtd:output.obj
 0001:00060600       ??0?$common_data@D@__crt_stdio_output@@IAE@XZ 00461600 f i libucrtd:output.obj
 0001:000606d0       ??0?$common_data@_W@__crt_stdio_output@@IAE@XZ 004616d0 f i libucrtd:output.obj
 0001:000607a0       ??0?$output_adapter_data@DV?$stream_output_adapter@D@__crt_stdio_output@@@__crt_stdio_output@@IAE@ABV?$stream_output_adapter@D@1@_KQBDQAU__crt_locale_pointers@@QAD@Z 004617a0 f i libucrtd:output.obj
 0001:00060810       ??0?$output_adapter_data@DV?$string_output_adapter@D@__crt_stdio_output@@@__crt_stdio_output@@IAE@ABV?$string_output_adapter@D@1@_KQBDQAU__crt_locale_pointers@@QAD@Z 00461810 f i libucrtd:output.obj
 0001:00060880       ??0?$output_adapter_data@_WV?$stream_output_adapter@_W@__crt_stdio_output@@@__crt_stdio_output@@IAE@ABV?$stream_output_adapter@_W@1@_KQB_WQAU__crt_locale_pointers@@QAD@Z 00461880 f i libucrtd:output.obj
 0001:000608f0       ??0?$output_adapter_data@_WV?$string_output_adapter@_W@__crt_stdio_output@@@__crt_stdio_output@@IAE@ABV?$string_output_adapter@_W@1@_KQB_WQAU__crt_locale_pointers@@QAD@Z 004618f0 f i libucrtd:output.obj
 0001:00060960       ??0?$output_processor@DV?$stream_output_adapter@D@__crt_stdio_output@@V?$format_validation_base@DV?$stream_output_adapter@D@__crt_stdio_output@@@2@@__crt_stdio_output@@QAE@ABV?$stream_output_adapter@D@1@_KQBDQAU__crt_locale_pointers@@QAD@Z 00461960 f i libucrtd:output.obj
 0001:000609a0       ??0?$output_processor@DV?$stream_output_adapter@D@__crt_stdio_output@@V?$positional_parameter_base@DV?$stream_output_adapter@D@__crt_stdio_output@@@2@@__crt_stdio_output@@QAE@ABV?$stream_output_adapter@D@1@_KQBDQAU__crt_locale_pointers@@QAD@Z 004619a0 f i libucrtd:output.obj
 0001:000609e0       ??0?$output_processor@DV?$stream_output_adapter@D@__crt_stdio_output@@V?$standard_base@DV?$stream_output_adapter@D@__crt_stdio_output@@@2@@__crt_stdio_output@@QAE@ABV?$stream_output_adapter@D@1@_KQBDQAU__crt_locale_pointers@@QAD@Z 004619e0 f i libucrtd:output.obj
 0001:00060a20       ??0?$output_processor@DV?$string_output_adapter@D@__crt_stdio_output@@V?$format_validation_base@DV?$string_output_adapter@D@__crt_stdio_output@@@2@@__crt_stdio_output@@QAE@ABV?$string_output_adapter@D@1@_KQBDQAU__crt_locale_pointers@@QAD@Z 00461a20 f i libucrtd:output.obj
 0001:00060a60       ??0?$output_processor@DV?$string_output_adapter@D@__crt_stdio_output@@V?$positional_parameter_base@DV?$string_output_adapter@D@__crt_stdio_output@@@2@@__crt_stdio_output@@QAE@ABV?$string_output_adapter@D@1@_KQBDQAU__crt_locale_pointers@@QAD@Z 00461a60 f i libucrtd:output.obj
 0001:00060aa0       ??0?$output_processor@DV?$string_output_adapter@D@__crt_stdio_output@@V?$standard_base@DV?$string_output_adapter@D@__crt_stdio_output@@@2@@__crt_stdio_output@@QAE@ABV?$string_output_adapter@D@1@_KQBDQAU__crt_locale_pointers@@QAD@Z 00461aa0 f i libucrtd:output.obj
 0001:00060ae0       ??0?$output_processor@_WV?$stream_output_adapter@_W@__crt_stdio_output@@V?$format_validation_base@_WV?$stream_output_adapter@_W@__crt_stdio_output@@@2@@__crt_stdio_output@@QAE@ABV?$stream_output_adapter@_W@1@_KQB_WQAU__crt_locale_pointers@@QAD@Z 00461ae0 f i libucrtd:output.obj
 0001:00060b20       ??0?$output_processor@_WV?$stream_output_adapter@_W@__crt_stdio_output@@V?$positional_parameter_base@_WV?$stream_output_adapter@_W@__crt_stdio_output@@@2@@__crt_stdio_output@@QAE@ABV?$stream_output_adapter@_W@1@_KQB_WQAU__crt_locale_pointers@@QAD@Z 00461b20 f i libucrtd:output.obj
 0001:00060b60       ??0?$output_processor@_WV?$stream_output_adapter@_W@__crt_stdio_output@@V?$standard_base@_WV?$stream_output_adapter@_W@__crt_stdio_output@@@2@@__crt_stdio_output@@QAE@ABV?$stream_output_adapter@_W@1@_KQB_WQAU__crt_locale_pointers@@QAD@Z 00461b60 f i libucrtd:output.obj
 0001:00060ba0       ??0?$output_processor@_WV?$string_output_adapter@_W@__crt_stdio_output@@V?$format_validation_base@_WV?$string_output_adapter@_W@__crt_stdio_output@@@2@@__crt_stdio_output@@QAE@ABV?$string_output_adapter@_W@1@_KQB_WQAU__crt_locale_pointers@@QAD@Z 00461ba0 f i libucrtd:output.obj
 0001:00060be0       ??0?$output_processor@_WV?$string_output_adapter@_W@__crt_stdio_output@@V?$positional_parameter_base@_WV?$string_output_adapter@_W@__crt_stdio_output@@@2@@__crt_stdio_output@@QAE@ABV?$string_output_adapter@_W@1@_KQB_WQAU__crt_locale_pointers@@QAD@Z 00461be0 f i libucrtd:output.obj
 0001:00060c20       ??0?$output_processor@_WV?$string_output_adapter@_W@__crt_stdio_output@@V?$standard_base@_WV?$string_output_adapter@_W@__crt_stdio_output@@@2@@__crt_stdio_output@@QAE@ABV?$string_output_adapter@_W@1@_KQB_WQAU__crt_locale_pointers@@QAD@Z 00461c20 f i libucrtd:output.obj
 0001:00060c60       ??0?$stream_output_adapter@D@__crt_stdio_output@@QAE@QAU_iobuf@@@Z 00461c60 f i libucrtd:output.obj
 0001:00060c90       ??0?$stream_output_adapter@_W@__crt_stdio_output@@QAE@QAU_iobuf@@@Z 00461c90 f i libucrtd:output.obj
 0001:00060cc0       ??0?$string_output_adapter@D@__crt_stdio_output@@QAE@QAU?$string_output_adapter_context@D@1@@Z 00461cc0 f i libucrtd:output.obj
 0001:00060ce0       ??0?$string_output_adapter@_W@__crt_stdio_output@@QAE@QAU?$string_output_adapter_context@_W@1@@Z 00461ce0 f i libucrtd:output.obj
 0001:00060d00       ??0_LocaleUpdate@@QAE@QAU__crt_locale_pointers@@@Z 00461d00 f i libucrtd:output.obj
 0001:00060e20       ??0__acrt_stdio_temporary_buffering_guard@@QAE@QAU_iobuf@@@Z 00461e20 f i libucrtd:output.obj
 0001:00060e60       ??0__crt_deferred_errno_cache@@QAE@XZ 00461e60 f i libucrtd:output.obj
 0001:00060e80       ??0__crt_errno_guard@@QAE@QAH@Z 00461e80 f i libucrtd:output.obj
 0001:00060ec0       ??0__crt_stdio_stream@@QAE@QAU_iobuf@@@Z 00461ec0 f i libucrtd:output.obj
 0001:00060ee0       ??0formatting_buffer@__crt_stdio_output@@QAE@XZ 00461ee0 f i libucrtd:output.obj
 0001:00060f20       ??1?$common_data@D@__crt_stdio_output@@QAE@XZ 00461f20 f i libucrtd:output.obj
 0001:00060f40       ??1?$common_data@_W@__crt_stdio_output@@QAE@XZ 00461f40 f i libucrtd:output.obj
 0001:00060f60       ??1?$format_validation_base@DV?$stream_output_adapter@D@__crt_stdio_output@@@__crt_stdio_output@@QAE@XZ 00461f60 f i libucrtd:output.obj
 0001:00060f80       ??1?$format_validation_base@DV?$string_output_adapter@D@__crt_stdio_output@@@__crt_stdio_output@@QAE@XZ 00461f80 f i libucrtd:output.obj
 0001:00060fa0       ??1?$format_validation_base@_WV?$stream_output_adapter@_W@__crt_stdio_output@@@__crt_stdio_output@@QAE@XZ 00461fa0 f i libucrtd:output.obj
 0001:00060fc0       ??1?$format_validation_base@_WV?$string_output_adapter@_W@__crt_stdio_output@@@__crt_stdio_output@@QAE@XZ 00461fc0 f i libucrtd:output.obj
 0001:00060fe0       ??1?$output_adapter_data@DV?$stream_output_adapter@D@__crt_stdio_output@@@__crt_stdio_output@@QAE@XZ 00461fe0 f i libucrtd:output.obj
 0001:00061000       ??1?$output_adapter_data@DV?$string_output_adapter@D@__crt_stdio_output@@@__crt_stdio_output@@QAE@XZ 00462000 f i libucrtd:output.obj
 0001:00061020       ??1?$output_adapter_data@_WV?$stream_output_adapter@_W@__crt_stdio_output@@@__crt_stdio_output@@QAE@XZ 00462020 f i libucrtd:output.obj
 0001:00061040       ??1?$output_adapter_data@_WV?$string_output_adapter@_W@__crt_stdio_output@@@__crt_stdio_output@@QAE@XZ 00462040 f i libucrtd:output.obj
 0001:00061060       ??1?$output_processor@DV?$stream_output_adapter@D@__crt_stdio_output@@V?$format_validation_base@DV?$stream_output_adapter@D@__crt_stdio_output@@@2@@__crt_stdio_output@@QAE@XZ 00462060 f i libucrtd:output.obj
 0001:00061080       ??1?$output_processor@DV?$stream_output_adapter@D@__crt_stdio_output@@V?$positional_parameter_base@DV?$stream_output_adapter@D@__crt_stdio_output@@@2@@__crt_stdio_output@@QAE@XZ 00462080 f i libucrtd:output.obj
 0001:000610a0       ??1?$output_processor@DV?$stream_output_adapter@D@__crt_stdio_output@@V?$standard_base@DV?$stream_output_adapter@D@__crt_stdio_output@@@2@@__crt_stdio_output@@QAE@XZ 004620a0 f i libucrtd:output.obj
 0001:000610c0       ??1?$output_processor@DV?$string_output_adapter@D@__crt_stdio_output@@V?$format_validation_base@DV?$string_output_adapter@D@__crt_stdio_output@@@2@@__crt_stdio_output@@QAE@XZ 004620c0 f i libucrtd:output.obj
 0001:000610e0       ??1?$output_processor@DV?$string_output_adapter@D@__crt_stdio_output@@V?$positional_parameter_base@DV?$string_output_adapter@D@__crt_stdio_output@@@2@@__crt_stdio_output@@QAE@XZ 004620e0 f i libucrtd:output.obj
 0001:00061100       ??1?$output_processor@DV?$string_output_adapter@D@__crt_stdio_output@@V?$standard_base@DV?$string_output_adapter@D@__crt_stdio_output@@@2@@__crt_stdio_output@@QAE@XZ 00462100 f i libucrtd:output.obj
 0001:00061120       ??1?$output_processor@_WV?$stream_output_adapter@_W@__crt_stdio_output@@V?$format_validation_base@_WV?$stream_output_adapter@_W@__crt_stdio_output@@@2@@__crt_stdio_output@@QAE@XZ 00462120 f i libucrtd:output.obj
 0001:00061140       ??1?$output_processor@_WV?$stream_output_adapter@_W@__crt_stdio_output@@V?$positional_parameter_base@_WV?$stream_output_adapter@_W@__crt_stdio_output@@@2@@__crt_stdio_output@@QAE@XZ 00462140 f i libucrtd:output.obj
 0001:00061160       ??1?$output_processor@_WV?$stream_output_adapter@_W@__crt_stdio_output@@V?$standard_base@_WV?$stream_output_adapter@_W@__crt_stdio_output@@@2@@__crt_stdio_output@@QAE@XZ 00462160 f i libucrtd:output.obj
 0001:00061180       ??1?$output_processor@_WV?$string_output_adapter@_W@__crt_stdio_output@@V?$format_validation_base@_WV?$string_output_adapter@_W@__crt_stdio_output@@@2@@__crt_stdio_output@@QAE@XZ 00462180 f i libucrtd:output.obj
 0001:000611a0       ??1?$output_processor@_WV?$string_output_adapter@_W@__crt_stdio_output@@V?$positional_parameter_base@_WV?$string_output_adapter@_W@__crt_stdio_output@@@2@@__crt_stdio_output@@QAE@XZ 004621a0 f i libucrtd:output.obj
 0001:000611c0       ??1?$output_processor@_WV?$string_output_adapter@_W@__crt_stdio_output@@V?$standard_base@_WV?$string_output_adapter@_W@__crt_stdio_output@@@2@@__crt_stdio_output@@QAE@XZ 004621c0 f i libucrtd:output.obj
 0001:000611e0       ??1?$positional_parameter_base@DV?$stream_output_adapter@D@__crt_stdio_output@@@__crt_stdio_output@@QAE@XZ 004621e0 f i libucrtd:output.obj
 0001:00061200       ??1?$positional_parameter_base@DV?$string_output_adapter@D@__crt_stdio_output@@@__crt_stdio_output@@QAE@XZ 00462200 f i libucrtd:output.obj
 0001:00061220       ??1?$positional_parameter_base@_WV?$stream_output_adapter@_W@__crt_stdio_output@@@__crt_stdio_output@@QAE@XZ 00462220 f i libucrtd:output.obj
 0001:00061240       ??1?$positional_parameter_base@_WV?$string_output_adapter@_W@__crt_stdio_output@@@__crt_stdio_output@@QAE@XZ 00462240 f i libucrtd:output.obj
 0001:00061260       ??1?$standard_base@DV?$stream_output_adapter@D@__crt_stdio_output@@@__crt_stdio_output@@QAE@XZ 00462260 f i libucrtd:output.obj
 0001:00061280       ??1?$standard_base@DV?$string_output_adapter@D@__crt_stdio_output@@@__crt_stdio_output@@QAE@XZ 00462280 f i libucrtd:output.obj
 0001:000612a0       ??1?$standard_base@_WV?$stream_output_adapter@_W@__crt_stdio_output@@@__crt_stdio_output@@QAE@XZ 004622a0 f i libucrtd:output.obj
 0001:000612c0       ??1?$standard_base@_WV?$string_output_adapter@_W@__crt_stdio_output@@@__crt_stdio_output@@QAE@XZ 004622c0 f i libucrtd:output.obj
 0001:000612e0       ??1_LocaleUpdate@@QAE@XZ   004622e0 f i libucrtd:output.obj
 0001:00061320       ??1__acrt_stdio_temporary_buffering_guard@@QAE@XZ 00462320 f i libucrtd:output.obj
 0001:00061350       ??1__crt_errno_guard@@QAE@XZ 00462350 f i libucrtd:output.obj
 0001:00061390       ??1formatting_buffer@__crt_stdio_output@@QAE@XZ 00462390 f i libucrtd:output.obj
 0001:000613c0       ??4?$__crt_unique_heap_ptr@DU__crt_internal_free_policy@@@@QAEAAV0@$$QAV0@@Z 004623c0 f i libucrtd:output.obj
 0001:00061400       ??C__crt_stdio_stream@@QBEPAU__crt_stdio_stream_data@@XZ 00462400 f i libucrtd:output.obj
 0001:00061d20       ?GetLocaleT@_LocaleUpdate@@QAEPAU__crt_locale_pointers@@XZ 00462d20 f i libucrtd:output.obj
 0001:00061d40       ?adjust_hexit@?$output_processor@DV?$stream_output_adapter@D@__crt_stdio_output@@V?$format_validation_base@DV?$stream_output_adapter@D@__crt_stdio_output@@@2@@__crt_stdio_output@@CADH_N@Z 00462d40 f i libucrtd:output.obj
 0001:00061d90       ?adjust_hexit@?$output_processor@DV?$stream_output_adapter@D@__crt_stdio_output@@V?$positional_parameter_base@DV?$stream_output_adapter@D@__crt_stdio_output@@@2@@__crt_stdio_output@@CADH_N@Z 00462d90 f i libucrtd:output.obj
 0001:00061de0       ?adjust_hexit@?$output_processor@DV?$stream_output_adapter@D@__crt_stdio_output@@V?$standard_base@DV?$stream_output_adapter@D@__crt_stdio_output@@@2@@__crt_stdio_output@@CADH_N@Z 00462de0 f i libucrtd:output.obj
 0001:00061e30       ?adjust_hexit@?$output_processor@DV?$string_output_adapter@D@__crt_stdio_output@@V?$format_validation_base@DV?$string_output_adapter@D@__crt_stdio_output@@@2@@__crt_stdio_output@@CADH_N@Z 00462e30 f i libucrtd:output.obj
 0001:00061e80       ?adjust_hexit@?$output_processor@DV?$string_output_adapter@D@__crt_stdio_output@@V?$positional_parameter_base@DV?$string_output_adapter@D@__crt_stdio_output@@@2@@__crt_stdio_output@@CADH_N@Z 00462e80 f i libucrtd:output.obj
 0001:00061ed0       ?adjust_hexit@?$output_processor@DV?$string_output_adapter@D@__crt_stdio_output@@V?$standard_base@DV?$string_output_adapter@D@__crt_stdio_output@@@2@@__crt_stdio_output@@CADH_N@Z 00462ed0 f i libucrtd:output.obj
 0001:00061f20       ?adjust_hexit@?$output_processor@_WV?$stream_output_adapter@_W@__crt_stdio_output@@V?$format_validation_base@_WV?$stream_output_adapter@_W@__crt_stdio_output@@@2@@__crt_stdio_output@@CADH_N@Z 00462f20 f i libucrtd:output.obj
 0001:00061f70       ?adjust_hexit@?$output_processor@_WV?$stream_output_adapter@_W@__crt_stdio_output@@V?$positional_parameter_base@_WV?$stream_output_adapter@_W@__crt_stdio_output@@@2@@__crt_stdio_output@@CADH_N@Z 00462f70 f i libucrtd:output.obj
 0001:00061fc0       ?adjust_hexit@?$output_processor@_WV?$stream_output_adapter@_W@__crt_stdio_output@@V?$standard_base@_WV?$stream_output_adapter@_W@__crt_stdio_output@@@2@@__crt_stdio_output@@CADH_N@Z 00462fc0 f i libucrtd:output.obj
 0001:00062010       ?adjust_hexit@?$output_processor@_WV?$string_output_adapter@_W@__crt_stdio_output@@V?$format_validation_base@_WV?$string_output_adapter@_W@__crt_stdio_output@@@2@@__crt_stdio_output@@CADH_N@Z 00463010 f i libucrtd:output.obj
 0001:00062060       ?adjust_hexit@?$output_processor@_WV?$string_output_adapter@_W@__crt_stdio_output@@V?$positional_parameter_base@_WV?$string_output_adapter@_W@__crt_stdio_output@@@2@@__crt_stdio_output@@CADH_N@Z 00463060 f i libucrtd:output.obj
 0001:000620b0       ?adjust_hexit@?$output_processor@_WV?$string_output_adapter@_W@__crt_stdio_output@@V?$standard_base@_WV?$string_output_adapter@_W@__crt_stdio_output@@@2@@__crt_stdio_output@@CADH_N@Z 004630b0 f i libucrtd:output.obj
 0001:00062100       ?advance_to_next_pass@?$positional_parameter_base@DV?$stream_output_adapter@D@__crt_stdio_output@@@__crt_stdio_output@@IAE_NXZ 00463100 f i libucrtd:output.obj
 0001:000621c0       ?advance_to_next_pass@?$positional_parameter_base@DV?$string_output_adapter@D@__crt_stdio_output@@@__crt_stdio_output@@IAE_NXZ 004631c0 f i libucrtd:output.obj
 0001:00062280       ?advance_to_next_pass@?$positional_parameter_base@_WV?$stream_output_adapter@_W@__crt_stdio_output@@@__crt_stdio_output@@IAE_NXZ 00463280 f i libucrtd:output.obj
 0001:00062340       ?advance_to_next_pass@?$positional_parameter_base@_WV?$string_output_adapter@_W@__crt_stdio_output@@@__crt_stdio_output@@IAE_NXZ 00463340 f i libucrtd:output.obj
 0001:00062400       ?advance_to_next_pass@?$standard_base@DV?$stream_output_adapter@D@__crt_stdio_output@@@__crt_stdio_output@@IAE_NXZ 00463400 f i libucrtd:output.obj
 0001:00062460       ?advance_to_next_pass@?$standard_base@DV?$string_output_adapter@D@__crt_stdio_output@@@__crt_stdio_output@@IAE_NXZ 00463460 f i libucrtd:output.obj
 0001:000624c0       ?advance_to_next_pass@?$standard_base@_WV?$stream_output_adapter@_W@__crt_stdio_output@@@__crt_stdio_output@@IAE_NXZ 004634c0 f i libucrtd:output.obj
 0001:00062520       ?advance_to_next_pass@?$standard_base@_WV?$string_output_adapter@_W@__crt_stdio_output@@@__crt_stdio_output@@IAE_NXZ 00463520 f i libucrtd:output.obj
 0001:00062580       ?crop_zeroes@__crt_stdio_output@@YAXPADQAU__crt_locale_pointers@@@Z 00463580 f i libucrtd:output.obj
 0001:000626b0       ?find_next_state@?$output_processor@DV?$stream_output_adapter@D@__crt_stdio_output@@V?$format_validation_base@DV?$stream_output_adapter@D@__crt_stdio_output@@@2@@__crt_stdio_output@@ABE?AW4state@2@DW432@@Z 004636b0 f i libucrtd:output.obj
 0001:00062740       ?find_next_state@?$output_processor@DV?$stream_output_adapter@D@__crt_stdio_output@@V?$positional_parameter_base@DV?$stream_output_adapter@D@__crt_stdio_output@@@2@@__crt_stdio_output@@ABE?AW4state@2@DW432@@Z 00463740 f i libucrtd:output.obj
 0001:000627d0       ?find_next_state@?$output_processor@DV?$stream_output_adapter@D@__crt_stdio_output@@V?$standard_base@DV?$stream_output_adapter@D@__crt_stdio_output@@@2@@__crt_stdio_output@@ABE?AW4state@2@DW432@@Z 004637d0 f i libucrtd:output.obj
 0001:00062860       ?find_next_state@?$output_processor@DV?$string_output_adapter@D@__crt_stdio_output@@V?$format_validation_base@DV?$string_output_adapter@D@__crt_stdio_output@@@2@@__crt_stdio_output@@ABE?AW4state@2@DW432@@Z 00463860 f i libucrtd:output.obj
 0001:000628f0       ?find_next_state@?$output_processor@DV?$string_output_adapter@D@__crt_stdio_output@@V?$positional_parameter_base@DV?$string_output_adapter@D@__crt_stdio_output@@@2@@__crt_stdio_output@@ABE?AW4state@2@DW432@@Z 004638f0 f i libucrtd:output.obj
 0001:00062980       ?find_next_state@?$output_processor@DV?$string_output_adapter@D@__crt_stdio_output@@V?$standard_base@DV?$string_output_adapter@D@__crt_stdio_output@@@2@@__crt_stdio_output@@ABE?AW4state@2@DW432@@Z 00463980 f i libucrtd:output.obj
 0001:00062a10       ?find_next_state@?$output_processor@_WV?$stream_output_adapter@_W@__crt_stdio_output@@V?$format_validation_base@_WV?$stream_output_adapter@_W@__crt_stdio_output@@@2@@__crt_stdio_output@@ABE?AW4state@2@_WW432@@Z 00463a10 f i libucrtd:output.obj
 0001:00062aa0       ?find_next_state@?$output_processor@_WV?$stream_output_adapter@_W@__crt_stdio_output@@V?$positional_parameter_base@_WV?$stream_output_adapter@_W@__crt_stdio_output@@@2@@__crt_stdio_output@@ABE?AW4state@2@_WW432@@Z 00463aa0 f i libucrtd:output.obj
 0001:00062b30       ?find_next_state@?$output_processor@_WV?$stream_output_adapter@_W@__crt_stdio_output@@V?$standard_base@_WV?$stream_output_adapter@_W@__crt_stdio_output@@@2@@__crt_stdio_output@@ABE?AW4state@2@_WW432@@Z 00463b30 f i libucrtd:output.obj
 0001:00062bc0       ?find_next_state@?$output_processor@_WV?$string_output_adapter@_W@__crt_stdio_output@@V?$format_validation_base@_WV?$string_output_adapter@_W@__crt_stdio_output@@@2@@__crt_stdio_output@@ABE?AW4state@2@_WW432@@Z 00463bc0 f i libucrtd:output.obj
 0001:00062c50       ?find_next_state@?$output_processor@_WV?$string_output_adapter@_W@__crt_stdio_output@@V?$positional_parameter_base@_WV?$string_output_adapter@_W@__crt_stdio_output@@@2@@__crt_stdio_output@@ABE?AW4state@2@_WW432@@Z 00463c50 f i libucrtd:output.obj
 0001:00062ce0       ?find_next_state@?$output_processor@_WV?$string_output_adapter@_W@__crt_stdio_output@@V?$standard_base@_WV?$string_output_adapter@_W@__crt_stdio_output@@@2@@__crt_stdio_output@@ABE?AW4state@2@_WW432@@Z 00463ce0 f i libucrtd:output.obj
 0001:00062d70       ?force_decimal_point@__crt_stdio_output@@YAXPADQAU__crt_locale_pointers@@@Z 00463d70 f i libucrtd:output.obj
 0001:00062e50       ?get@__crt_deferred_errno_cache@@QAEAAHXZ 00463e50 f i libucrtd:output.obj
 0001:00062e80       ?get_flags@__crt_stdio_stream@@QBEJXZ 00463e80 f i libucrtd:output.obj
 0001:00062eb0       ?get_parameter_type@?$positional_parameter_base@DV?$stream_output_adapter@D@__crt_stdio_output@@@__crt_stdio_output@@CA?AW4parameter_type@12@F@Z 00463eb0 f i libucrtd:output.obj
 0001:00062ec0       ?get_parameter_type@?$positional_parameter_base@DV?$stream_output_adapter@D@__crt_stdio_output@@@__crt_stdio_output@@CA?AW4parameter_type@12@G@Z 00463ec0 f i libucrtd:output.obj
 0001:00062ed0       ?get_parameter_type@?$positional_parameter_base@DV?$stream_output_adapter@D@__crt_stdio_output@@@__crt_stdio_output@@CA?AW4parameter_type@12@H@Z 00463ed0 f i libucrtd:output.obj
 0001:00062ee0       ?get_parameter_type@?$positional_parameter_base@DV?$stream_output_adapter@D@__crt_stdio_output@@@__crt_stdio_output@@CA?AW4parameter_type@12@I@Z 00463ee0 f i libucrtd:output.obj
 0001:00062ef0       ?get_parameter_type@?$positional_parameter_base@DV?$stream_output_adapter@D@__crt_stdio_output@@@__crt_stdio_output@@CA?AW4parameter_type@12@U_CRT_DOUBLE@@@Z 00463ef0 f i libucrtd:output.obj
 0001:00062f00       ?get_parameter_type@?$positional_parameter_base@DV?$stream_output_adapter@D@__crt_stdio_output@@@__crt_stdio_output@@CA?AW4parameter_type@12@_J@Z 00463f00 f i libucrtd:output.obj
 0001:00062f10       ?get_parameter_type@?$positional_parameter_base@DV?$stream_output_adapter@D@__crt_stdio_output@@@__crt_stdio_output@@CA?AW4parameter_type@12@_K@Z 00463f10 f i libucrtd:output.obj
 0001:00062f20       ?get_parameter_type@?$positional_parameter_base@DV?$stream_output_adapter@D@__crt_stdio_output@@@__crt_stdio_output@@CA?AW4parameter_type@12@_W@Z 00463f20 f i libucrtd:output.obj
 0001:00062f30       ?get_parameter_type@?$positional_parameter_base@DV?$string_output_adapter@D@__crt_stdio_output@@@__crt_stdio_output@@CA?AW4parameter_type@12@F@Z 00463f30 f i libucrtd:output.obj
 0001:00062f40       ?get_parameter_type@?$positional_parameter_base@DV?$string_output_adapter@D@__crt_stdio_output@@@__crt_stdio_output@@CA?AW4parameter_type@12@G@Z 00463f40 f i libucrtd:output.obj
 0001:00062f50       ?get_parameter_type@?$positional_parameter_base@DV?$string_output_adapter@D@__crt_stdio_output@@@__crt_stdio_output@@CA?AW4parameter_type@12@H@Z 00463f50 f i libucrtd:output.obj
 0001:00062f60       ?get_parameter_type@?$positional_parameter_base@DV?$string_output_adapter@D@__crt_stdio_output@@@__crt_stdio_output@@CA?AW4parameter_type@12@I@Z 00463f60 f i libucrtd:output.obj
 0001:00062f70       ?get_parameter_type@?$positional_parameter_base@DV?$string_output_adapter@D@__crt_stdio_output@@@__crt_stdio_output@@CA?AW4parameter_type@12@U_CRT_DOUBLE@@@Z 00463f70 f i libucrtd:output.obj
 0001:00062f80       ?get_parameter_type@?$positional_parameter_base@DV?$string_output_adapter@D@__crt_stdio_output@@@__crt_stdio_output@@CA?AW4parameter_type@12@_J@Z 00463f80 f i libucrtd:output.obj
 0001:00062f90       ?get_parameter_type@?$positional_parameter_base@DV?$string_output_adapter@D@__crt_stdio_output@@@__crt_stdio_output@@CA?AW4parameter_type@12@_K@Z 00463f90 f i libucrtd:output.obj
 0001:00062fa0       ?get_parameter_type@?$positional_parameter_base@DV?$string_output_adapter@D@__crt_stdio_output@@@__crt_stdio_output@@CA?AW4parameter_type@12@_W@Z 00463fa0 f i libucrtd:output.obj
 0001:00062fb0       ?get_parameter_type@?$positional_parameter_base@_WV?$stream_output_adapter@_W@__crt_stdio_output@@@__crt_stdio_output@@CA?AW4parameter_type@12@F@Z 00463fb0 f i libucrtd:output.obj
 0001:00062fc0       ?get_parameter_type@?$positional_parameter_base@_WV?$stream_output_adapter@_W@__crt_stdio_output@@@__crt_stdio_output@@CA?AW4parameter_type@12@G@Z 00463fc0 f i libucrtd:output.obj
 0001:00062fd0       ?get_parameter_type@?$positional_parameter_base@_WV?$stream_output_adapter@_W@__crt_stdio_output@@@__crt_stdio_output@@CA?AW4parameter_type@12@H@Z 00463fd0 f i libucrtd:output.obj
 0001:00062fe0       ?get_parameter_type@?$positional_parameter_base@_WV?$stream_output_adapter@_W@__crt_stdio_output@@@__crt_stdio_output@@CA?AW4parameter_type@12@I@Z 00463fe0 f i libucrtd:output.obj
 0001:00062ff0       ?get_parameter_type@?$positional_parameter_base@_WV?$stream_output_adapter@_W@__crt_stdio_output@@@__crt_stdio_output@@CA?AW4parameter_type@12@U_CRT_DOUBLE@@@Z 00463ff0 f i libucrtd:output.obj
 0001:00063000       ?get_parameter_type@?$positional_parameter_base@_WV?$stream_output_adapter@_W@__crt_stdio_output@@@__crt_stdio_output@@CA?AW4parameter_type@12@_J@Z 00464000 f i libucrtd:output.obj
 0001:00063010       ?get_parameter_type@?$positional_parameter_base@_WV?$stream_output_adapter@_W@__crt_stdio_output@@@__crt_stdio_output@@CA?AW4parameter_type@12@_K@Z 00464010 f i libucrtd:output.obj
 0001:00063020       ?get_parameter_type@?$positional_parameter_base@_WV?$stream_output_adapter@_W@__crt_stdio_output@@@__crt_stdio_output@@CA?AW4parameter_type@12@_W@Z 00464020 f i libucrtd:output.obj
 0001:00063030       ?get_parameter_type@?$positional_parameter_base@_WV?$string_output_adapter@_W@__crt_stdio_output@@@__crt_stdio_output@@CA?AW4parameter_type@12@F@Z 00464030 f i libucrtd:output.obj
 0001:00063040       ?get_parameter_type@?$positional_parameter_base@_WV?$string_output_adapter@_W@__crt_stdio_output@@@__crt_stdio_output@@CA?AW4parameter_type@12@G@Z 00464040 f i libucrtd:output.obj
 0001:00063050       ?get_parameter_type@?$positional_parameter_base@_WV?$string_output_adapter@_W@__crt_stdio_output@@@__crt_stdio_output@@CA?AW4parameter_type@12@H@Z 00464050 f i libucrtd:output.obj
 0001:00063060       ?get_parameter_type@?$positional_parameter_base@_WV?$string_output_adapter@_W@__crt_stdio_output@@@__crt_stdio_output@@CA?AW4parameter_type@12@I@Z 00464060 f i libucrtd:output.obj
 0001:00063070       ?get_parameter_type@?$positional_parameter_base@_WV?$string_output_adapter@_W@__crt_stdio_output@@@__crt_stdio_output@@CA?AW4parameter_type@12@U_CRT_DOUBLE@@@Z 00464070 f i libucrtd:output.obj
 0001:00063080       ?get_parameter_type@?$positional_parameter_base@_WV?$string_output_adapter@_W@__crt_stdio_output@@@__crt_stdio_output@@CA?AW4parameter_type@12@_J@Z 00464080 f i libucrtd:output.obj
 0001:00063090       ?get_parameter_type@?$positional_parameter_base@_WV?$string_output_adapter@_W@__crt_stdio_output@@@__crt_stdio_output@@CA?AW4parameter_type@12@_K@Z 00464090 f i libucrtd:output.obj
 0001:000630a0       ?get_parameter_type@?$positional_parameter_base@_WV?$string_output_adapter@_W@__crt_stdio_output@@@__crt_stdio_output@@CA?AW4parameter_type@12@_W@Z 004640a0 f i libucrtd:output.obj
 0001:000630b0       ?has_flag@?$output_processor@DV?$stream_output_adapter@D@__crt_stdio_output@@V?$format_validation_base@DV?$stream_output_adapter@D@__crt_stdio_output@@@2@@__crt_stdio_output@@ABE_NI@Z 004640b0 f i libucrtd:output.obj
 0001:000630f0       ?has_flag@?$output_processor@DV?$stream_output_adapter@D@__crt_stdio_output@@V?$positional_parameter_base@DV?$stream_output_adapter@D@__crt_stdio_output@@@2@@__crt_stdio_output@@ABE_NI@Z 004640f0 f i libucrtd:output.obj
 0001:00063130       ?has_flag@?$output_processor@DV?$stream_output_adapter@D@__crt_stdio_output@@V?$standard_base@DV?$stream_output_adapter@D@__crt_stdio_output@@@2@@__crt_stdio_output@@ABE_NI@Z 00464130 f i libucrtd:output.obj
 0001:00063170       ?has_flag@?$output_processor@DV?$string_output_adapter@D@__crt_stdio_output@@V?$format_validation_base@DV?$string_output_adapter@D@__crt_stdio_output@@@2@@__crt_stdio_output@@ABE_NI@Z 00464170 f i libucrtd:output.obj
 0001:000631b0       ?has_flag@?$output_processor@DV?$string_output_adapter@D@__crt_stdio_output@@V?$positional_parameter_base@DV?$string_output_adapter@D@__crt_stdio_output@@@2@@__crt_stdio_output@@ABE_NI@Z 004641b0 f i libucrtd:output.obj
 0001:000631f0       ?has_flag@?$output_processor@DV?$string_output_adapter@D@__crt_stdio_output@@V?$standard_base@DV?$string_output_adapter@D@__crt_stdio_output@@@2@@__crt_stdio_output@@ABE_NI@Z 004641f0 f i libucrtd:output.obj
 0001:00063230       ?has_flag@?$output_processor@_WV?$stream_output_adapter@_W@__crt_stdio_output@@V?$format_validation_base@_WV?$stream_output_adapter@_W@__crt_stdio_output@@@2@@__crt_stdio_output@@ABE_NI@Z 00464230 f i libucrtd:output.obj
 0001:00063270       ?has_flag@?$output_processor@_WV?$stream_output_adapter@_W@__crt_stdio_output@@V?$positional_parameter_base@_WV?$stream_output_adapter@_W@__crt_stdio_output@@@2@@__crt_stdio_output@@ABE_NI@Z 00464270 f i libucrtd:output.obj
 0001:000632b0       ?has_flag@?$output_processor@_WV?$stream_output_adapter@_W@__crt_stdio_output@@V?$standard_base@_WV?$stream_output_adapter@_W@__crt_stdio_output@@@2@@__crt_stdio_output@@ABE_NI@Z 004642b0 f i libucrtd:output.obj
 0001:000632f0       ?has_flag@?$output_processor@_WV?$string_output_adapter@_W@__crt_stdio_output@@V?$format_validation_base@_WV?$string_output_adapter@_W@__crt_stdio_output@@@2@@__crt_stdio_output@@ABE_NI@Z 004642f0 f i libucrtd:output.obj
 0001:00063330       ?has_flag@?$output_processor@_WV?$string_output_adapter@_W@__crt_stdio_output@@V?$positional_parameter_base@_WV?$string_output_adapter@_W@__crt_stdio_output@@@2@@__crt_stdio_output@@ABE_NI@Z 00464330 f i libucrtd:output.obj
 0001:00063370       ?has_flag@?$output_processor@_WV?$string_output_adapter@_W@__crt_stdio_output@@V?$standard_base@_WV?$string_output_adapter@_W@__crt_stdio_output@@@2@@__crt_stdio_output@@ABE_NI@Z 00464370 f i libucrtd:output.obj
 0001:000633b0       ?is_positional_parameter_reappearance_consistent@?$positional_parameter_base@DV?$stream_output_adapter@D@__crt_stdio_output@@@__crt_stdio_output@@AAE_NABUparameter_data@12@W4parameter_type@12@DW4length_modifier@2@@Z 004643b0 f i libucrtd:output.obj
 0001:00063660       ?is_positional_parameter_reappearance_consistent@?$positional_parameter_base@DV?$string_output_adapter@D@__crt_stdio_output@@@__crt_stdio_output@@AAE_NABUparameter_data@12@W4parameter_type@12@DW4length_modifier@2@@Z 00464660 f i libucrtd:output.obj
 0001:00063910       ?is_positional_parameter_reappearance_consistent@?$positional_parameter_base@_WV?$stream_output_adapter@_W@__crt_stdio_output@@@__crt_stdio_output@@AAE_NABUparameter_data@12@W4parameter_type@12@_WW4length_modifier@2@@Z 00464910 f i libucrtd:output.obj
 0001:00063bc0       ?is_positional_parameter_reappearance_consistent@?$positional_parameter_base@_WV?$string_output_adapter@_W@__crt_stdio_output@@@__crt_stdio_output@@AAE_NABUparameter_data@12@W4parameter_type@12@_WW4length_modifier@2@@Z 00464bc0 f i libucrtd:output.obj
 0001:00063e70       ?is_string_backed@__crt_stdio_stream@@QBE_NXZ 00464e70 f i libucrtd:output.obj
 0001:00063eb0       ?narrow_null_string@?$output_processor@DV?$stream_output_adapter@D@__crt_stdio_output@@V?$format_validation_base@DV?$stream_output_adapter@D@__crt_stdio_output@@@2@@__crt_stdio_output@@CAPADXZ 00464eb0 f i libucrtd:output.obj
 0001:00063ec0       ?narrow_null_string@?$output_processor@DV?$stream_output_adapter@D@__crt_stdio_output@@V?$positional_parameter_base@DV?$stream_output_adapter@D@__crt_stdio_output@@@2@@__crt_stdio_output@@CAPADXZ 00464ec0 f i libucrtd:output.obj
 0001:00063ed0       ?narrow_null_string@?$output_processor@DV?$stream_output_adapter@D@__crt_stdio_output@@V?$standard_base@DV?$stream_output_adapter@D@__crt_stdio_output@@@2@@__crt_stdio_output@@CAPADXZ 00464ed0 f i libucrtd:output.obj
 0001:00063ee0       ?narrow_null_string@?$output_processor@DV?$string_output_adapter@D@__crt_stdio_output@@V?$format_validation_base@DV?$string_output_adapter@D@__crt_stdio_output@@@2@@__crt_stdio_output@@CAPADXZ 00464ee0 f i libucrtd:output.obj
 0001:00063ef0       ?narrow_null_string@?$output_processor@DV?$string_output_adapter@D@__crt_stdio_output@@V?$positional_parameter_base@DV?$string_output_adapter@D@__crt_stdio_output@@@2@@__crt_stdio_output@@CAPADXZ 00464ef0 f i libucrtd:output.obj
 0001:00063f00       ?narrow_null_string@?$output_processor@DV?$string_output_adapter@D@__crt_stdio_output@@V?$standard_base@DV?$string_output_adapter@D@__crt_stdio_output@@@2@@__crt_stdio_output@@CAPADXZ 00464f00 f i libucrtd:output.obj
 0001:00063f10       ?narrow_null_string@?$output_processor@_WV?$stream_output_adapter@_W@__crt_stdio_output@@V?$format_validation_base@_WV?$stream_output_adapter@_W@__crt_stdio_output@@@2@@__crt_stdio_output@@CAPADXZ 00464f10 f i libucrtd:output.obj
 0001:00063f20       ?narrow_null_string@?$output_processor@_WV?$stream_output_adapter@_W@__crt_stdio_output@@V?$positional_parameter_base@_WV?$stream_output_adapter@_W@__crt_stdio_output@@@2@@__crt_stdio_output@@CAPADXZ 00464f20 f i libucrtd:output.obj
 0001:00063f30       ?narrow_null_string@?$output_processor@_WV?$stream_output_adapter@_W@__crt_stdio_output@@V?$standard_base@_WV?$stream_output_adapter@_W@__crt_stdio_output@@@2@@__crt_stdio_output@@CAPADXZ 00464f30 f i libucrtd:output.obj
 0001:00063f40       ?narrow_null_string@?$output_processor@_WV?$string_output_adapter@_W@__crt_stdio_output@@V?$format_validation_base@_WV?$string_output_adapter@_W@__crt_stdio_output@@@2@@__crt_stdio_output@@CAPADXZ 00464f40 f i libucrtd:output.obj
 0001:00063f50       ?narrow_null_string@?$output_processor@_WV?$string_output_adapter@_W@__crt_stdio_output@@V?$positional_parameter_base@_WV?$string_output_adapter@_W@__crt_stdio_output@@@2@@__crt_stdio_output@@CAPADXZ 00464f50 f i libucrtd:output.obj
 0001:00063f60       ?narrow_null_string@?$output_processor@_WV?$string_output_adapter@_W@__crt_stdio_output@@V?$standard_base@_WV?$string_output_adapter@_W@__crt_stdio_output@@@2@@__crt_stdio_output@@CAPADXZ 00464f60 f i libucrtd:output.obj
 0001:00063f70       ?parse_int_from_format_string@?$output_processor@DV?$stream_output_adapter@D@__crt_stdio_output@@V?$format_validation_base@DV?$stream_output_adapter@D@__crt_stdio_output@@@2@@__crt_stdio_output@@AAE_NQAH@Z 00464f70 f i libucrtd:output.obj
 0001:00064050       ?parse_int_from_format_string@?$output_processor@DV?$stream_output_adapter@D@__crt_stdio_output@@V?$positional_parameter_base@DV?$stream_output_adapter@D@__crt_stdio_output@@@2@@__crt_stdio_output@@AAE_NQAH@Z 00465050 f i libucrtd:output.obj
 0001:00064130       ?parse_int_from_format_string@?$output_processor@DV?$stream_output_adapter@D@__crt_stdio_output@@V?$standard_base@DV?$stream_output_adapter@D@__crt_stdio_output@@@2@@__crt_stdio_output@@AAE_NQAH@Z 00465130 f i libucrtd:output.obj
 0001:00064210       ?parse_int_from_format_string@?$output_processor@DV?$string_output_adapter@D@__crt_stdio_output@@V?$format_validation_base@DV?$string_output_adapter@D@__crt_stdio_output@@@2@@__crt_stdio_output@@AAE_NQAH@Z 00465210 f i libucrtd:output.obj
 0001:000642f0       ?parse_int_from_format_string@?$output_processor@DV?$string_output_adapter@D@__crt_stdio_output@@V?$positional_parameter_base@DV?$string_output_adapter@D@__crt_stdio_output@@@2@@__crt_stdio_output@@AAE_NQAH@Z 004652f0 f i libucrtd:output.obj
 0001:000643d0       ?parse_int_from_format_string@?$output_processor@DV?$string_output_adapter@D@__crt_stdio_output@@V?$standard_base@DV?$string_output_adapter@D@__crt_stdio_output@@@2@@__crt_stdio_output@@AAE_NQAH@Z 004653d0 f i libucrtd:output.obj
 0001:000644b0       ?parse_int_from_format_string@?$output_processor@_WV?$stream_output_adapter@_W@__crt_stdio_output@@V?$format_validation_base@_WV?$stream_output_adapter@_W@__crt_stdio_output@@@2@@__crt_stdio_output@@AAE_NQAH@Z 004654b0 f i libucrtd:output.obj
 0001:00064590       ?parse_int_from_format_string@?$output_processor@_WV?$stream_output_adapter@_W@__crt_stdio_output@@V?$positional_parameter_base@_WV?$stream_output_adapter@_W@__crt_stdio_output@@@2@@__crt_stdio_output@@AAE_NQAH@Z 00465590 f i libucrtd:output.obj
 0001:00064670       ?parse_int_from_format_string@?$output_processor@_WV?$stream_output_adapter@_W@__crt_stdio_output@@V?$standard_base@_WV?$stream_output_adapter@_W@__crt_stdio_output@@@2@@__crt_stdio_output@@AAE_NQAH@Z 00465670 f i libucrtd:output.obj
 0001:00064750       ?parse_int_from_format_string@?$output_processor@_WV?$string_output_adapter@_W@__crt_stdio_output@@V?$format_validation_base@_WV?$string_output_adapter@_W@__crt_stdio_output@@@2@@__crt_stdio_output@@AAE_NQAH@Z 00465750 f i libucrtd:output.obj
 0001:00064830       ?parse_int_from_format_string@?$output_processor@_WV?$string_output_adapter@_W@__crt_stdio_output@@V?$positional_parameter_base@_WV?$string_output_adapter@_W@__crt_stdio_output@@@2@@__crt_stdio_output@@AAE_NQAH@Z 00465830 f i libucrtd:output.obj
 0001:00064910       ?parse_int_from_format_string@?$output_processor@_WV?$string_output_adapter@_W@__crt_stdio_output@@V?$standard_base@_WV?$string_output_adapter@_W@__crt_stdio_output@@@2@@__crt_stdio_output@@AAE_NQAH@Z 00465910 f i libucrtd:output.obj
 0001:000649f0       ?process@?$output_processor@DV?$stream_output_adapter@D@__crt_stdio_output@@V?$format_validation_base@DV?$stream_output_adapter@D@__crt_stdio_output@@@2@@__crt_stdio_output@@QAEHXZ 004659f0 f i libucrtd:output.obj
 0001:00064d40       ?process@?$output_processor@DV?$stream_output_adapter@D@__crt_stdio_output@@V?$positional_parameter_base@DV?$stream_output_adapter@D@__crt_stdio_output@@@2@@__crt_stdio_output@@QAEHXZ 00465d40 f i libucrtd:output.obj
 0001:00065090       ?process@?$output_processor@DV?$stream_output_adapter@D@__crt_stdio_output@@V?$standard_base@DV?$stream_output_adapter@D@__crt_stdio_output@@@2@@__crt_stdio_output@@QAEHXZ 00466090 f i libucrtd:output.obj
 0001:000653e0       ?process@?$output_processor@DV?$string_output_adapter@D@__crt_stdio_output@@V?$format_validation_base@DV?$string_output_adapter@D@__crt_stdio_output@@@2@@__crt_stdio_output@@QAEHXZ 004663e0 f i libucrtd:output.obj
 0001:00065730       ?process@?$output_processor@DV?$string_output_adapter@D@__crt_stdio_output@@V?$positional_parameter_base@DV?$string_output_adapter@D@__crt_stdio_output@@@2@@__crt_stdio_output@@QAEHXZ 00466730 f i libucrtd:output.obj
 0001:00065a80       ?process@?$output_processor@DV?$string_output_adapter@D@__crt_stdio_output@@V?$standard_base@DV?$string_output_adapter@D@__crt_stdio_output@@@2@@__crt_stdio_output@@QAEHXZ 00466a80 f i libucrtd:output.obj
 0001:00065dd0       ?process@?$output_processor@_WV?$stream_output_adapter@_W@__crt_stdio_output@@V?$format_validation_base@_WV?$stream_output_adapter@_W@__crt_stdio_output@@@2@@__crt_stdio_output@@QAEHXZ 00466dd0 f i libucrtd:output.obj
 0001:00066120       ?process@?$output_processor@_WV?$stream_output_adapter@_W@__crt_stdio_output@@V?$positional_parameter_base@_WV?$stream_output_adapter@_W@__crt_stdio_output@@@2@@__crt_stdio_output@@QAEHXZ 00467120 f i libucrtd:output.obj
 0001:00066470       ?process@?$output_processor@_WV?$stream_output_adapter@_W@__crt_stdio_output@@V?$standard_base@_WV?$stream_output_adapter@_W@__crt_stdio_output@@@2@@__crt_stdio_output@@QAEHXZ 00467470 f i libucrtd:output.obj
 0001:000667c0       ?process@?$output_processor@_WV?$string_output_adapter@_W@__crt_stdio_output@@V?$format_validation_base@_WV?$string_output_adapter@_W@__crt_stdio_output@@@2@@__crt_stdio_output@@QAEHXZ 004677c0 f i libucrtd:output.obj
 0001:00066b10       ?process@?$output_processor@_WV?$string_output_adapter@_W@__crt_stdio_output@@V?$positional_parameter_base@_WV?$string_output_adapter@_W@__crt_stdio_output@@@2@@__crt_stdio_output@@QAEHXZ 00467b10 f i libucrtd:output.obj
 0001:00066e60       ?process@?$output_processor@_WV?$string_output_adapter@_W@__crt_stdio_output@@V?$standard_base@_WV?$string_output_adapter@_W@__crt_stdio_output@@@2@@__crt_stdio_output@@QAEHXZ 00467e60 f i libucrtd:output.obj
 0001:000671b0       ?public_stream@__crt_stdio_stream@@QBEPAU_iobuf@@XZ 004681b0 f i libucrtd:output.obj
 0001:000671d0       ?set_flag@?$output_processor@DV?$stream_output_adapter@D@__crt_stdio_output@@V?$format_validation_base@DV?$stream_output_adapter@D@__crt_stdio_output@@@2@@__crt_stdio_output@@AAEXI@Z 004681d0 f i libucrtd:output.obj
 0001:00067200       ?set_flag@?$output_processor@DV?$stream_output_adapter@D@__crt_stdio_output@@V?$positional_parameter_base@DV?$stream_output_adapter@D@__crt_stdio_output@@@2@@__crt_stdio_output@@AAEXI@Z 00468200 f i libucrtd:output.obj
 0001:00067230       ?set_flag@?$output_processor@DV?$stream_output_adapter@D@__crt_stdio_output@@V?$standard_base@DV?$stream_output_adapter@D@__crt_stdio_output@@@2@@__crt_stdio_output@@AAEXI@Z 00468230 f i libucrtd:output.obj
 0001:00067260       ?set_flag@?$output_processor@DV?$string_output_adapter@D@__crt_stdio_output@@V?$format_validation_base@DV?$string_output_adapter@D@__crt_stdio_output@@@2@@__crt_stdio_output@@AAEXI@Z 00468260 f i libucrtd:output.obj
 0001:00067290       ?set_flag@?$output_processor@DV?$string_output_adapter@D@__crt_stdio_output@@V?$positional_parameter_base@DV?$string_output_adapter@D@__crt_stdio_output@@@2@@__crt_stdio_output@@AAEXI@Z 00468290 f i libucrtd:output.obj
 0001:000672c0       ?set_flag@?$output_processor@DV?$string_output_adapter@D@__crt_stdio_output@@V?$standard_base@DV?$string_output_adapter@D@__crt_stdio_output@@@2@@__crt_stdio_output@@AAEXI@Z 004682c0 f i libucrtd:output.obj
 0001:000672f0       ?set_flag@?$output_processor@_WV?$stream_output_adapter@_W@__crt_stdio_output@@V?$format_validation_base@_WV?$stream_output_adapter@_W@__crt_stdio_output@@@2@@__crt_stdio_output@@AAEXI@Z 004682f0 f i libucrtd:output.obj
 0001:00067320       ?set_flag@?$output_processor@_WV?$stream_output_adapter@_W@__crt_stdio_output@@V?$positional_parameter_base@_WV?$stream_output_adapter@_W@__crt_stdio_output@@@2@@__crt_stdio_output@@AAEXI@Z 00468320 f i libucrtd:output.obj
 0001:00067350       ?set_flag@?$output_processor@_WV?$stream_output_adapter@_W@__crt_stdio_output@@V?$standard_base@_WV?$stream_output_adapter@_W@__crt_stdio_output@@@2@@__crt_stdio_output@@AAEXI@Z 00468350 f i libucrtd:output.obj
 0001:00067380       ?set_flag@?$output_processor@_WV?$string_output_adapter@_W@__crt_stdio_output@@V?$format_validation_base@_WV?$string_output_adapter@_W@__crt_stdio_output@@@2@@__crt_stdio_output@@AAEXI@Z 00468380 f i libucrtd:output.obj
 0001:000673b0       ?set_flag@?$output_processor@_WV?$string_output_adapter@_W@__crt_stdio_output@@V?$positional_parameter_base@_WV?$string_output_adapter@_W@__crt_stdio_output@@@2@@__crt_stdio_output@@AAEXI@Z 004683b0 f i libucrtd:output.obj
 0001:000673e0       ?set_flag@?$output_processor@_WV?$string_output_adapter@_W@__crt_stdio_output@@V?$standard_base@_WV?$string_output_adapter@_W@__crt_stdio_output@@@2@@__crt_stdio_output@@AAEXI@Z 004683e0 f i libucrtd:output.obj
 0001:00067410       ?should_format@?$positional_parameter_base@DV?$stream_output_adapter@D@__crt_stdio_output@@@__crt_stdio_output@@IAE_NXZ 00468410 f i libucrtd:output.obj
 0001:00067460       ?should_format@?$positional_parameter_base@DV?$string_output_adapter@D@__crt_stdio_output@@@__crt_stdio_output@@IAE_NXZ 00468460 f i libucrtd:output.obj
 0001:000674b0       ?should_format@?$positional_parameter_base@_WV?$stream_output_adapter@_W@__crt_stdio_output@@@__crt_stdio_output@@IAE_NXZ 004684b0 f i libucrtd:output.obj
 0001:00067500       ?should_format@?$positional_parameter_base@_WV?$string_output_adapter@_W@__crt_stdio_output@@@__crt_stdio_output@@IAE_NXZ 00468500 f i libucrtd:output.obj
 0001:00067550       ?should_format@?$standard_base@DV?$stream_output_adapter@D@__crt_stdio_output@@@__crt_stdio_output@@IAE_NXZ 00468550 f i libucrtd:output.obj
 0001:00067570       ?should_format@?$standard_base@DV?$string_output_adapter@D@__crt_stdio_output@@@__crt_stdio_output@@IAE_NXZ 00468570 f i libucrtd:output.obj
 0001:00067590       ?should_format@?$standard_base@_WV?$stream_output_adapter@_W@__crt_stdio_output@@@__crt_stdio_output@@IAE_NXZ 00468590 f i libucrtd:output.obj
 0001:000675b0       ?should_format@?$standard_base@_WV?$string_output_adapter@_W@__crt_stdio_output@@@__crt_stdio_output@@IAE_NXZ 004685b0 f i libucrtd:output.obj
 0001:000675d0       ?should_skip_normal_state_processing@?$positional_parameter_base@DV?$stream_output_adapter@D@__crt_stdio_output@@@__crt_stdio_output@@IAE_NXZ 004685d0 f i libucrtd:output.obj
 0001:00067630       ?should_skip_normal_state_processing@?$positional_parameter_base@DV?$string_output_adapter@D@__crt_stdio_output@@@__crt_stdio_output@@IAE_NXZ 00468630 f i libucrtd:output.obj
 0001:00067690       ?should_skip_normal_state_processing@?$positional_parameter_base@_WV?$stream_output_adapter@_W@__crt_stdio_output@@@__crt_stdio_output@@IAE_NXZ 00468690 f i libucrtd:output.obj
 0001:000676f0       ?should_skip_normal_state_processing@?$positional_parameter_base@_WV?$string_output_adapter@_W@__crt_stdio_output@@@__crt_stdio_output@@IAE_NXZ 004686f0 f i libucrtd:output.obj
 0001:00067750       ?should_skip_normal_state_processing@?$standard_base@DV?$stream_output_adapter@D@__crt_stdio_output@@@__crt_stdio_output@@IAE_NXZ 00468750 f i libucrtd:output.obj
 0001:00067770       ?should_skip_normal_state_processing@?$standard_base@DV?$string_output_adapter@D@__crt_stdio_output@@@__crt_stdio_output@@IAE_NXZ 00468770 f i libucrtd:output.obj
 0001:00067790       ?should_skip_normal_state_processing@?$standard_base@_WV?$stream_output_adapter@_W@__crt_stdio_output@@@__crt_stdio_output@@IAE_NXZ 00468790 f i libucrtd:output.obj
 0001:000677b0       ?should_skip_normal_state_processing@?$standard_base@_WV?$string_output_adapter@_W@__crt_stdio_output@@@__crt_stdio_output@@IAE_NXZ 004687b0 f i libucrtd:output.obj
 0001:000677d0       ?should_skip_type_state_output@?$positional_parameter_base@DV?$stream_output_adapter@D@__crt_stdio_output@@@__crt_stdio_output@@IBE_NXZ 004687d0 f i libucrtd:output.obj
 0001:00067820       ?should_skip_type_state_output@?$positional_parameter_base@DV?$string_output_adapter@D@__crt_stdio_output@@@__crt_stdio_output@@IBE_NXZ 00468820 f i libucrtd:output.obj
 0001:00067870       ?should_skip_type_state_output@?$positional_parameter_base@_WV?$stream_output_adapter@_W@__crt_stdio_output@@@__crt_stdio_output@@IBE_NXZ 00468870 f i libucrtd:output.obj
 0001:000678c0       ?should_skip_type_state_output@?$positional_parameter_base@_WV?$string_output_adapter@_W@__crt_stdio_output@@@__crt_stdio_output@@IBE_NXZ 004688c0 f i libucrtd:output.obj
 0001:00067910       ?should_skip_type_state_output@?$standard_base@DV?$stream_output_adapter@D@__crt_stdio_output@@@__crt_stdio_output@@IBE_NXZ 00468910 f i libucrtd:output.obj
 0001:00067930       ?should_skip_type_state_output@?$standard_base@DV?$string_output_adapter@D@__crt_stdio_output@@@__crt_stdio_output@@IBE_NXZ 00468930 f i libucrtd:output.obj
 0001:00067950       ?should_skip_type_state_output@?$standard_base@_WV?$stream_output_adapter@_W@__crt_stdio_output@@@__crt_stdio_output@@IBE_NXZ 00468950 f i libucrtd:output.obj
 0001:00067970       ?should_skip_type_state_output@?$standard_base@_WV?$string_output_adapter@_W@__crt_stdio_output@@@__crt_stdio_output@@IBE_NXZ 00468970 f i libucrtd:output.obj
 0001:00067990       ?state_case_dot@?$output_processor@DV?$stream_output_adapter@D@__crt_stdio_output@@V?$format_validation_base@DV?$stream_output_adapter@D@__crt_stdio_output@@@2@@__crt_stdio_output@@AAE_NXZ 00468990 f i libucrtd:output.obj
 0001:000679b0       ?state_case_dot@?$output_processor@DV?$stream_output_adapter@D@__crt_stdio_output@@V?$positional_parameter_base@DV?$stream_output_adapter@D@__crt_stdio_output@@@2@@__crt_stdio_output@@AAE_NXZ 004689b0 f i libucrtd:output.obj
 0001:000679d0       ?state_case_dot@?$output_processor@DV?$stream_output_adapter@D@__crt_stdio_output@@V?$standard_base@DV?$stream_output_adapter@D@__crt_stdio_output@@@2@@__crt_stdio_output@@AAE_NXZ 004689d0 f i libucrtd:output.obj
 0001:000679f0       ?state_case_dot@?$output_processor@DV?$string_output_adapter@D@__crt_stdio_output@@V?$format_validation_base@DV?$string_output_adapter@D@__crt_stdio_output@@@2@@__crt_stdio_output@@AAE_NXZ 004689f0 f i libucrtd:output.obj
 0001:00067a10       ?state_case_dot@?$output_processor@DV?$string_output_adapter@D@__crt_stdio_output@@V?$positional_parameter_base@DV?$string_output_adapter@D@__crt_stdio_output@@@2@@__crt_stdio_output@@AAE_NXZ 00468a10 f i libucrtd:output.obj
 0001:00067a30       ?state_case_dot@?$output_processor@DV?$string_output_adapter@D@__crt_stdio_output@@V?$standard_base@DV?$string_output_adapter@D@__crt_stdio_output@@@2@@__crt_stdio_output@@AAE_NXZ 00468a30 f i libucrtd:output.obj
 0001:00067a50       ?state_case_dot@?$output_processor@_WV?$stream_output_adapter@_W@__crt_stdio_output@@V?$format_validation_base@_WV?$stream_output_adapter@_W@__crt_stdio_output@@@2@@__crt_stdio_output@@AAE_NXZ 00468a50 f i libucrtd:output.obj
 0001:00067a70       ?state_case_dot@?$output_processor@_WV?$stream_output_adapter@_W@__crt_stdio_output@@V?$positional_parameter_base@_WV?$stream_output_adapter@_W@__crt_stdio_output@@@2@@__crt_stdio_output@@AAE_NXZ 00468a70 f i libucrtd:output.obj
 0001:00067a90       ?state_case_dot@?$output_processor@_WV?$stream_output_adapter@_W@__crt_stdio_output@@V?$standard_base@_WV?$stream_output_adapter@_W@__crt_stdio_output@@@2@@__crt_stdio_output@@AAE_NXZ 00468a90 f i libucrtd:output.obj
 0001:00067ab0       ?state_case_dot@?$output_processor@_WV?$string_output_adapter@_W@__crt_stdio_output@@V?$format_validation_base@_WV?$string_output_adapter@_W@__crt_stdio_output@@@2@@__crt_stdio_output@@AAE_NXZ 00468ab0 f i libucrtd:output.obj
 0001:00067ad0       ?state_case_dot@?$output_processor@_WV?$string_output_adapter@_W@__crt_stdio_output@@V?$positional_parameter_base@_WV?$string_output_adapter@_W@__crt_stdio_output@@@2@@__crt_stdio_output@@AAE_NXZ 00468ad0 f i libucrtd:output.obj
 0001:00067af0       ?state_case_dot@?$output_processor@_WV?$string_output_adapter@_W@__crt_stdio_output@@V?$standard_base@_WV?$string_output_adapter@_W@__crt_stdio_output@@@2@@__crt_stdio_output@@AAE_NXZ 00468af0 f i libucrtd:output.obj
 0001:00067b10       ?state_case_flag@?$output_processor@DV?$stream_output_adapter@D@__crt_stdio_output@@V?$format_validation_base@DV?$stream_output_adapter@D@__crt_stdio_output@@@2@@__crt_stdio_output@@AAE_NXZ 00468b10 f i libucrtd:output.obj
 0001:00067be0       ?state_case_flag@?$output_processor@DV?$stream_output_adapter@D@__crt_stdio_output@@V?$positional_parameter_base@DV?$stream_output_adapter@D@__crt_stdio_output@@@2@@__crt_stdio_output@@AAE_NXZ 00468be0 f i libucrtd:output.obj
 0001:00067cb0       ?state_case_flag@?$output_processor@DV?$stream_output_adapter@D@__crt_stdio_output@@V?$standard_base@DV?$stream_output_adapter@D@__crt_stdio_output@@@2@@__crt_stdio_output@@AAE_NXZ 00468cb0 f i libucrtd:output.obj
 0001:00067d80       ?state_case_flag@?$output_processor@DV?$string_output_adapter@D@__crt_stdio_output@@V?$format_validation_base@DV?$string_output_adapter@D@__crt_stdio_output@@@2@@__crt_stdio_output@@AAE_NXZ 00468d80 f i libucrtd:output.obj
 0001:00067e50       ?state_case_flag@?$output_processor@DV?$string_output_adapter@D@__crt_stdio_output@@V?$positional_parameter_base@DV?$string_output_adapter@D@__crt_stdio_output@@@2@@__crt_stdio_output@@AAE_NXZ 00468e50 f i libucrtd:output.obj
 0001:00067f20       ?state_case_flag@?$output_processor@DV?$string_output_adapter@D@__crt_stdio_output@@V?$standard_base@DV?$string_output_adapter@D@__crt_stdio_output@@@2@@__crt_stdio_output@@AAE_NXZ 00468f20 f i libucrtd:output.obj
 0001:00067ff0       ?state_case_flag@?$output_processor@_WV?$stream_output_adapter@_W@__crt_stdio_output@@V?$format_validation_base@_WV?$stream_output_adapter@_W@__crt_stdio_output@@@2@@__crt_stdio_output@@AAE_NXZ 00468ff0 f i libucrtd:output.obj
 0001:000680c0       ?state_case_flag@?$output_processor@_WV?$stream_output_adapter@_W@__crt_stdio_output@@V?$positional_parameter_base@_WV?$stream_output_adapter@_W@__crt_stdio_output@@@2@@__crt_stdio_output@@AAE_NXZ 004690c0 f i libucrtd:output.obj
 0001:00068190       ?state_case_flag@?$output_processor@_WV?$stream_output_adapter@_W@__crt_stdio_output@@V?$standard_base@_WV?$stream_output_adapter@_W@__crt_stdio_output@@@2@@__crt_stdio_output@@AAE_NXZ 00469190 f i libucrtd:output.obj
 0001:00068260       ?state_case_flag@?$output_processor@_WV?$string_output_adapter@_W@__crt_stdio_output@@V?$format_validation_base@_WV?$string_output_adapter@_W@__crt_stdio_output@@@2@@__crt_stdio_output@@AAE_NXZ 00469260 f i libucrtd:output.obj
 0001:00068330       ?state_case_flag@?$output_processor@_WV?$string_output_adapter@_W@__crt_stdio_output@@V?$positional_parameter_base@_WV?$string_output_adapter@_W@__crt_stdio_output@@@2@@__crt_stdio_output@@AAE_NXZ 00469330 f i libucrtd:output.obj
 0001:00068400       ?state_case_flag@?$output_processor@_WV?$string_output_adapter@_W@__crt_stdio_output@@V?$standard_base@_WV?$string_output_adapter@_W@__crt_stdio_output@@@2@@__crt_stdio_output@@AAE_NXZ 00469400 f i libucrtd:output.obj
 0001:000684d0       ?state_case_normal@?$output_processor@DV?$stream_output_adapter@D@__crt_stdio_output@@V?$format_validation_base@DV?$stream_output_adapter@D@__crt_stdio_output@@@2@@__crt_stdio_output@@AAE_NXZ 004694d0 f i libucrtd:output.obj
 0001:000685b0       ?state_case_normal@?$output_processor@DV?$stream_output_adapter@D@__crt_stdio_output@@V?$positional_parameter_base@DV?$stream_output_adapter@D@__crt_stdio_output@@@2@@__crt_stdio_output@@AAE_NXZ 004695b0 f i libucrtd:output.obj
 0001:00068690       ?state_case_normal@?$output_processor@DV?$stream_output_adapter@D@__crt_stdio_output@@V?$standard_base@DV?$stream_output_adapter@D@__crt_stdio_output@@@2@@__crt_stdio_output@@AAE_NXZ 00469690 f i libucrtd:output.obj
 0001:00068770       ?state_case_normal@?$output_processor@DV?$string_output_adapter@D@__crt_stdio_output@@V?$format_validation_base@DV?$string_output_adapter@D@__crt_stdio_output@@@2@@__crt_stdio_output@@AAE_NXZ 00469770 f i libucrtd:output.obj
 0001:00068850       ?state_case_normal@?$output_processor@DV?$string_output_adapter@D@__crt_stdio_output@@V?$positional_parameter_base@DV?$string_output_adapter@D@__crt_stdio_output@@@2@@__crt_stdio_output@@AAE_NXZ 00469850 f i libucrtd:output.obj
 0001:00068930       ?state_case_normal@?$output_processor@DV?$string_output_adapter@D@__crt_stdio_output@@V?$standard_base@DV?$string_output_adapter@D@__crt_stdio_output@@@2@@__crt_stdio_output@@AAE_NXZ 00469930 f i libucrtd:output.obj
 0001:00068a10       ?state_case_normal@?$output_processor@_WV?$stream_output_adapter@_W@__crt_stdio_output@@V?$format_validation_base@_WV?$stream_output_adapter@_W@__crt_stdio_output@@@2@@__crt_stdio_output@@AAE_NXZ 00469a10 f i libucrtd:output.obj
 0001:00068af0       ?state_case_normal@?$output_processor@_WV?$stream_output_adapter@_W@__crt_stdio_output@@V?$positional_parameter_base@_WV?$stream_output_adapter@_W@__crt_stdio_output@@@2@@__crt_stdio_output@@AAE_NXZ 00469af0 f i libucrtd:output.obj
 0001:00068bd0       ?state_case_normal@?$output_processor@_WV?$stream_output_adapter@_W@__crt_stdio_output@@V?$standard_base@_WV?$stream_output_adapter@_W@__crt_stdio_output@@@2@@__crt_stdio_output@@AAE_NXZ 00469bd0 f i libucrtd:output.obj
 0001:00068cb0       ?state_case_normal@?$output_processor@_WV?$string_output_adapter@_W@__crt_stdio_output@@V?$format_validation_base@_WV?$string_output_adapter@_W@__crt_stdio_output@@@2@@__crt_stdio_output@@AAE_NXZ 00469cb0 f i libucrtd:output.obj
 0001:00068d90       ?state_case_normal@?$output_processor@_WV?$string_output_adapter@_W@__crt_stdio_output@@V?$positional_parameter_base@_WV?$string_output_adapter@_W@__crt_stdio_output@@@2@@__crt_stdio_output@@AAE_NXZ 00469d90 f i libucrtd:output.obj
 0001:00068e70       ?state_case_normal@?$output_processor@_WV?$string_output_adapter@_W@__crt_stdio_output@@V?$standard_base@_WV?$string_output_adapter@_W@__crt_stdio_output@@@2@@__crt_stdio_output@@AAE_NXZ 00469e70 f i libucrtd:output.obj
 0001:00068f50       ?state_case_normal_common@?$output_processor@DV?$stream_output_adapter@D@__crt_stdio_output@@V?$format_validation_base@DV?$stream_output_adapter@D@__crt_stdio_output@@@2@@__crt_stdio_output@@AAE_NXZ 00469f50 f i libucrtd:output.obj
 0001:00068fb0       ?state_case_normal_common@?$output_processor@DV?$stream_output_adapter@D@__crt_stdio_output@@V?$positional_parameter_base@DV?$stream_output_adapter@D@__crt_stdio_output@@@2@@__crt_stdio_output@@AAE_NXZ 00469fb0 f i libucrtd:output.obj
 0001:00069010       ?state_case_normal_common@?$output_processor@DV?$stream_output_adapter@D@__crt_stdio_output@@V?$standard_base@DV?$stream_output_adapter@D@__crt_stdio_output@@@2@@__crt_stdio_output@@AAE_NXZ 0046a010 f i libucrtd:output.obj
 0001:00069070       ?state_case_normal_common@?$output_processor@DV?$string_output_adapter@D@__crt_stdio_output@@V?$format_validation_base@DV?$string_output_adapter@D@__crt_stdio_output@@@2@@__crt_stdio_output@@AAE_NXZ 0046a070 f i libucrtd:output.obj
 0001:000690d0       ?state_case_normal_common@?$output_processor@DV?$string_output_adapter@D@__crt_stdio_output@@V?$positional_parameter_base@DV?$string_output_adapter@D@__crt_stdio_output@@@2@@__crt_stdio_output@@AAE_NXZ 0046a0d0 f i libucrtd:output.obj
 0001:00069130       ?state_case_normal_common@?$output_processor@DV?$string_output_adapter@D@__crt_stdio_output@@V?$standard_base@DV?$string_output_adapter@D@__crt_stdio_output@@@2@@__crt_stdio_output@@AAE_NXZ 0046a130 f i libucrtd:output.obj
 0001:00069190       ?state_case_normal_common@?$output_processor@_WV?$stream_output_adapter@_W@__crt_stdio_output@@V?$format_validation_base@_WV?$stream_output_adapter@_W@__crt_stdio_output@@@2@@__crt_stdio_output@@AAE_NXZ 0046a190 f i libucrtd:output.obj
 0001:000691f0       ?state_case_normal_common@?$output_processor@_WV?$stream_output_adapter@_W@__crt_stdio_output@@V?$positional_parameter_base@_WV?$stream_output_adapter@_W@__crt_stdio_output@@@2@@__crt_stdio_output@@AAE_NXZ 0046a1f0 f i libucrtd:output.obj
 0001:00069250       ?state_case_normal_common@?$output_processor@_WV?$stream_output_adapter@_W@__crt_stdio_output@@V?$standard_base@_WV?$stream_output_adapter@_W@__crt_stdio_output@@@2@@__crt_stdio_output@@AAE_NXZ 0046a250 f i libucrtd:output.obj
 0001:000692b0       ?state_case_normal_common@?$output_processor@_WV?$string_output_adapter@_W@__crt_stdio_output@@V?$format_validation_base@_WV?$string_output_adapter@_W@__crt_stdio_output@@@2@@__crt_stdio_output@@AAE_NXZ 0046a2b0 f i libucrtd:output.obj
 0001:00069310       ?state_case_normal_common@?$output_processor@_WV?$string_output_adapter@_W@__crt_stdio_output@@V?$positional_parameter_base@_WV?$string_output_adapter@_W@__crt_stdio_output@@@2@@__crt_stdio_output@@AAE_NXZ 0046a310 f i libucrtd:output.obj
 0001:00069370       ?state_case_normal_common@?$output_processor@_WV?$string_output_adapter@_W@__crt_stdio_output@@V?$standard_base@_WV?$string_output_adapter@_W@__crt_stdio_output@@@2@@__crt_stdio_output@@AAE_NXZ 0046a370 f i libucrtd:output.obj
 0001:000693d0       ?state_case_normal_tchar@?$output_processor@DV?$stream_output_adapter@D@__crt_stdio_output@@V?$format_validation_base@DV?$stream_output_adapter@D@__crt_stdio_output@@@2@@__crt_stdio_output@@AAE_ND@Z 0046a3d0 f i libucrtd:output.obj
 0001:00069500       ?state_case_normal_tchar@?$output_processor@DV?$stream_output_adapter@D@__crt_stdio_output@@V?$positional_parameter_base@DV?$stream_output_adapter@D@__crt_stdio_output@@@2@@__crt_stdio_output@@AAE_ND@Z 0046a500 f i libucrtd:output.obj
 0001:00069630       ?state_case_normal_tchar@?$output_processor@DV?$stream_output_adapter@D@__crt_stdio_output@@V?$standard_base@DV?$stream_output_adapter@D@__crt_stdio_output@@@2@@__crt_stdio_output@@AAE_ND@Z 0046a630 f i libucrtd:output.obj
 0001:00069760       ?state_case_normal_tchar@?$output_processor@DV?$string_output_adapter@D@__crt_stdio_output@@V?$format_validation_base@DV?$string_output_adapter@D@__crt_stdio_output@@@2@@__crt_stdio_output@@AAE_ND@Z 0046a760 f i libucrtd:output.obj
 0001:00069890       ?state_case_normal_tchar@?$output_processor@DV?$string_output_adapter@D@__crt_stdio_output@@V?$positional_parameter_base@DV?$string_output_adapter@D@__crt_stdio_output@@@2@@__crt_stdio_output@@AAE_ND@Z 0046a890 f i libucrtd:output.obj
 0001:000699c0       ?state_case_normal_tchar@?$output_processor@DV?$string_output_adapter@D@__crt_stdio_output@@V?$standard_base@DV?$string_output_adapter@D@__crt_stdio_output@@@2@@__crt_stdio_output@@AAE_ND@Z 0046a9c0 f i libucrtd:output.obj
 0001:00069af0       ?state_case_normal_tchar@?$output_processor@_WV?$stream_output_adapter@_W@__crt_stdio_output@@V?$format_validation_base@_WV?$stream_output_adapter@_W@__crt_stdio_output@@@2@@__crt_stdio_output@@AAE_N_W@Z 0046aaf0 f i libucrtd:output.obj
 0001:00069b10       ?state_case_normal_tchar@?$output_processor@_WV?$stream_output_adapter@_W@__crt_stdio_output@@V?$positional_parameter_base@_WV?$stream_output_adapter@_W@__crt_stdio_output@@@2@@__crt_stdio_output@@AAE_N_W@Z 0046ab10 f i libucrtd:output.obj
 0001:00069b30       ?state_case_normal_tchar@?$output_processor@_WV?$stream_output_adapter@_W@__crt_stdio_output@@V?$standard_base@_WV?$stream_output_adapter@_W@__crt_stdio_output@@@2@@__crt_stdio_output@@AAE_N_W@Z 0046ab30 f i libucrtd:output.obj
 0001:00069b50       ?state_case_normal_tchar@?$output_processor@_WV?$string_output_adapter@_W@__crt_stdio_output@@V?$format_validation_base@_WV?$string_output_adapter@_W@__crt_stdio_output@@@2@@__crt_stdio_output@@AAE_N_W@Z 0046ab50 f i libucrtd:output.obj
 0001:00069b70       ?state_case_normal_tchar@?$output_processor@_WV?$string_output_adapter@_W@__crt_stdio_output@@V?$positional_parameter_base@_WV?$string_output_adapter@_W@__crt_stdio_output@@@2@@__crt_stdio_output@@AAE_N_W@Z 0046ab70 f i libucrtd:output.obj
 0001:00069b90       ?state_case_normal_tchar@?$output_processor@_WV?$string_output_adapter@_W@__crt_stdio_output@@V?$standard_base@_WV?$string_output_adapter@_W@__crt_stdio_output@@@2@@__crt_stdio_output@@AAE_N_W@Z 0046ab90 f i libucrtd:output.obj
 0001:00069bb0       ?state_case_percent@?$output_processor@DV?$stream_output_adapter@D@__crt_stdio_output@@V?$format_validation_base@DV?$stream_output_adapter@D@__crt_stdio_output@@@2@@__crt_stdio_output@@AAE_NXZ 0046abb0 f i libucrtd:output.obj
 0001:00069c10       ?state_case_percent@?$output_processor@DV?$stream_output_adapter@D@__crt_stdio_output@@V?$positional_parameter_base@DV?$stream_output_adapter@D@__crt_stdio_output@@@2@@__crt_stdio_output@@AAE_NXZ 0046ac10 f i libucrtd:output.obj
 0001:00069c70       ?state_case_percent@?$output_processor@DV?$stream_output_adapter@D@__crt_stdio_output@@V?$standard_base@DV?$stream_output_adapter@D@__crt_stdio_output@@@2@@__crt_stdio_output@@AAE_NXZ 0046ac70 f i libucrtd:output.obj
 0001:00069cd0       ?state_case_percent@?$output_processor@DV?$string_output_adapter@D@__crt_stdio_output@@V?$format_validation_base@DV?$string_output_adapter@D@__crt_stdio_output@@@2@@__crt_stdio_output@@AAE_NXZ 0046acd0 f i libucrtd:output.obj
 0001:00069d30       ?state_case_percent@?$output_processor@DV?$string_output_adapter@D@__crt_stdio_output@@V?$positional_parameter_base@DV?$string_output_adapter@D@__crt_stdio_output@@@2@@__crt_stdio_output@@AAE_NXZ 0046ad30 f i libucrtd:output.obj
 0001:00069d90       ?state_case_percent@?$output_processor@DV?$string_output_adapter@D@__crt_stdio_output@@V?$standard_base@DV?$string_output_adapter@D@__crt_stdio_output@@@2@@__crt_stdio_output@@AAE_NXZ 0046ad90 f i libucrtd:output.obj
 0001:00069df0       ?state_case_percent@?$output_processor@_WV?$stream_output_adapter@_W@__crt_stdio_output@@V?$format_validation_base@_WV?$stream_output_adapter@_W@__crt_stdio_output@@@2@@__crt_stdio_output@@AAE_NXZ 0046adf0 f i libucrtd:output.obj
 0001:00069e50       ?state_case_percent@?$output_processor@_WV?$stream_output_adapter@_W@__crt_stdio_output@@V?$positional_parameter_base@_WV?$stream_output_adapter@_W@__crt_stdio_output@@@2@@__crt_stdio_output@@AAE_NXZ 0046ae50 f i libucrtd:output.obj
 0001:00069eb0       ?state_case_percent@?$output_processor@_WV?$stream_output_adapter@_W@__crt_stdio_output@@V?$standard_base@_WV?$stream_output_adapter@_W@__crt_stdio_output@@@2@@__crt_stdio_output@@AAE_NXZ 0046aeb0 f i libucrtd:output.obj
 0001:00069f10       ?state_case_percent@?$output_processor@_WV?$string_output_adapter@_W@__crt_stdio_output@@V?$format_validation_base@_WV?$string_output_adapter@_W@__crt_stdio_output@@@2@@__crt_stdio_output@@AAE_NXZ 0046af10 f i libucrtd:output.obj
 0001:00069f70       ?state_case_percent@?$output_processor@_WV?$string_output_adapter@_W@__crt_stdio_output@@V?$positional_parameter_base@_WV?$string_output_adapter@_W@__crt_stdio_output@@@2@@__crt_stdio_output@@AAE_NXZ 0046af70 f i libucrtd:output.obj
 0001:00069fd0       ?state_case_percent@?$output_processor@_WV?$string_output_adapter@_W@__crt_stdio_output@@V?$standard_base@_WV?$string_output_adapter@_W@__crt_stdio_output@@@2@@__crt_stdio_output@@AAE_NXZ 0046afd0 f i libucrtd:output.obj
 0001:0006a030       ?state_case_precision@?$output_processor@DV?$stream_output_adapter@D@__crt_stdio_output@@V?$format_validation_base@DV?$stream_output_adapter@D@__crt_stdio_output@@@2@@__crt_stdio_output@@AAE_NXZ 0046b030 f i libucrtd:output.obj
 0001:0006a0b0       ?state_case_precision@?$output_processor@DV?$stream_output_adapter@D@__crt_stdio_output@@V?$positional_parameter_base@DV?$stream_output_adapter@D@__crt_stdio_output@@@2@@__crt_stdio_output@@AAE_NXZ 0046b0b0 f i libucrtd:output.obj
 0001:0006a130       ?state_case_precision@?$output_processor@DV?$stream_output_adapter@D@__crt_stdio_output@@V?$standard_base@DV?$stream_output_adapter@D@__crt_stdio_output@@@2@@__crt_stdio_output@@AAE_NXZ 0046b130 f i libucrtd:output.obj
 0001:0006a1b0       ?state_case_precision@?$output_processor@DV?$string_output_adapter@D@__crt_stdio_output@@V?$format_validation_base@DV?$string_output_adapter@D@__crt_stdio_output@@@2@@__crt_stdio_output@@AAE_NXZ 0046b1b0 f i libucrtd:output.obj
 0001:0006a230       ?state_case_precision@?$output_processor@DV?$string_output_adapter@D@__crt_stdio_output@@V?$positional_parameter_base@DV?$string_output_adapter@D@__crt_stdio_output@@@2@@__crt_stdio_output@@AAE_NXZ 0046b230 f i libucrtd:output.obj
 0001:0006a2b0       ?state_case_precision@?$output_processor@DV?$string_output_adapter@D@__crt_stdio_output@@V?$standard_base@DV?$string_output_adapter@D@__crt_stdio_output@@@2@@__crt_stdio_output@@AAE_NXZ 0046b2b0 f i libucrtd:output.obj
 0001:0006a330       ?state_case_precision@?$output_processor@_WV?$stream_output_adapter@_W@__crt_stdio_output@@V?$format_validation_base@_WV?$stream_output_adapter@_W@__crt_stdio_output@@@2@@__crt_stdio_output@@AAE_NXZ 0046b330 f i libucrtd:output.obj
 0001:0006a3b0       ?state_case_precision@?$output_processor@_WV?$stream_output_adapter@_W@__crt_stdio_output@@V?$positional_parameter_base@_WV?$stream_output_adapter@_W@__crt_stdio_output@@@2@@__crt_stdio_output@@AAE_NXZ 0046b3b0 f i libucrtd:output.obj
 0001:0006a430       ?state_case_precision@?$output_processor@_WV?$stream_output_adapter@_W@__crt_stdio_output@@V?$standard_base@_WV?$stream_output_adapter@_W@__crt_stdio_output@@@2@@__crt_stdio_output@@AAE_NXZ 0046b430 f i libucrtd:output.obj
 0001:0006a4b0       ?state_case_precision@?$output_processor@_WV?$string_output_adapter@_W@__crt_stdio_output@@V?$format_validation_base@_WV?$string_output_adapter@_W@__crt_stdio_output@@@2@@__crt_stdio_output@@AAE_NXZ 0046b4b0 f i libucrtd:output.obj
 0001:0006a530       ?state_case_precision@?$output_processor@_WV?$string_output_adapter@_W@__crt_stdio_output@@V?$positional_parameter_base@_WV?$string_output_adapter@_W@__crt_stdio_output@@@2@@__crt_stdio_output@@AAE_NXZ 0046b530 f i libucrtd:output.obj
 0001:0006a5b0       ?state_case_precision@?$output_processor@_WV?$string_output_adapter@_W@__crt_stdio_output@@V?$standard_base@_WV?$string_output_adapter@_W@__crt_stdio_output@@@2@@__crt_stdio_output@@AAE_NXZ 0046b5b0 f i libucrtd:output.obj
 0001:0006a630       ?state_case_size@?$output_processor@DV?$stream_output_adapter@D@__crt_stdio_output@@V?$format_validation_base@DV?$stream_output_adapter@D@__crt_stdio_output@@@2@@__crt_stdio_output@@AAE_NXZ 0046b630 f i libucrtd:output.obj
 0001:0006aaf0       ?state_case_size@?$output_processor@DV?$stream_output_adapter@D@__crt_stdio_output@@V?$positional_parameter_base@DV?$stream_output_adapter@D@__crt_stdio_output@@@2@@__crt_stdio_output@@AAE_NXZ 0046baf0 f i libucrtd:output.obj
 0001:0006afb0       ?state_case_size@?$output_processor@DV?$stream_output_adapter@D@__crt_stdio_output@@V?$standard_base@DV?$stream_output_adapter@D@__crt_stdio_output@@@2@@__crt_stdio_output@@AAE_NXZ 0046bfb0 f i libucrtd:output.obj
 0001:0006b470       ?state_case_size@?$output_processor@DV?$string_output_adapter@D@__crt_stdio_output@@V?$format_validation_base@DV?$string_output_adapter@D@__crt_stdio_output@@@2@@__crt_stdio_output@@AAE_NXZ 0046c470 f i libucrtd:output.obj
 0001:0006b930       ?state_case_size@?$output_processor@DV?$string_output_adapter@D@__crt_stdio_output@@V?$positional_parameter_base@DV?$string_output_adapter@D@__crt_stdio_output@@@2@@__crt_stdio_output@@AAE_NXZ 0046c930 f i libucrtd:output.obj
 0001:0006bdf0       ?state_case_size@?$output_processor@DV?$string_output_adapter@D@__crt_stdio_output@@V?$standard_base@DV?$string_output_adapter@D@__crt_stdio_output@@@2@@__crt_stdio_output@@AAE_NXZ 0046cdf0 f i libucrtd:output.obj
 0001:0006c2b0       ?state_case_size@?$output_processor@_WV?$stream_output_adapter@_W@__crt_stdio_output@@V?$format_validation_base@_WV?$stream_output_adapter@_W@__crt_stdio_output@@@2@@__crt_stdio_output@@AAE_NXZ 0046d2b0 f i libucrtd:output.obj
 0001:0006c770       ?state_case_size@?$output_processor@_WV?$stream_output_adapter@_W@__crt_stdio_output@@V?$positional_parameter_base@_WV?$stream_output_adapter@_W@__crt_stdio_output@@@2@@__crt_stdio_output@@AAE_NXZ 0046d770 f i libucrtd:output.obj
 0001:0006cc30       ?state_case_size@?$output_processor@_WV?$stream_output_adapter@_W@__crt_stdio_output@@V?$standard_base@_WV?$stream_output_adapter@_W@__crt_stdio_output@@@2@@__crt_stdio_output@@AAE_NXZ 0046dc30 f i libucrtd:output.obj
 0001:0006d0f0       ?state_case_size@?$output_processor@_WV?$string_output_adapter@_W@__crt_stdio_output@@V?$format_validation_base@_WV?$string_output_adapter@_W@__crt_stdio_output@@@2@@__crt_stdio_output@@AAE_NXZ 0046e0f0 f i libucrtd:output.obj
 0001:0006d5b0       ?state_case_size@?$output_processor@_WV?$string_output_adapter@_W@__crt_stdio_output@@V?$positional_parameter_base@_WV?$string_output_adapter@_W@__crt_stdio_output@@@2@@__crt_stdio_output@@AAE_NXZ 0046e5b0 f i libucrtd:output.obj
 0001:0006da70       ?state_case_size@?$output_processor@_WV?$string_output_adapter@_W@__crt_stdio_output@@V?$standard_base@_WV?$string_output_adapter@_W@__crt_stdio_output@@@2@@__crt_stdio_output@@AAE_NXZ 0046ea70 f i libucrtd:output.obj
 0001:0006df30       ?state_case_type@?$output_processor@DV?$stream_output_adapter@D@__crt_stdio_output@@V?$format_validation_base@DV?$stream_output_adapter@D@__crt_stdio_output@@@2@@__crt_stdio_output@@AAE_NXZ 0046ef30 f i libucrtd:output.obj
 0001:0006e3d0       ?state_case_type@?$output_processor@DV?$stream_output_adapter@D@__crt_stdio_output@@V?$positional_parameter_base@DV?$stream_output_adapter@D@__crt_stdio_output@@@2@@__crt_stdio_output@@AAE_NXZ 0046f3d0 f i libucrtd:output.obj
 0001:0006e870       ?state_case_type@?$output_processor@DV?$stream_output_adapter@D@__crt_stdio_output@@V?$standard_base@DV?$stream_output_adapter@D@__crt_stdio_output@@@2@@__crt_stdio_output@@AAE_NXZ 0046f870 f i libucrtd:output.obj
 0001:0006ed10       ?state_case_type@?$output_processor@DV?$string_output_adapter@D@__crt_stdio_output@@V?$format_validation_base@DV?$string_output_adapter@D@__crt_stdio_output@@@2@@__crt_stdio_output@@AAE_NXZ 0046fd10 f i libucrtd:output.obj
 0001:0006f1b0       ?state_case_type@?$output_processor@DV?$string_output_adapter@D@__crt_stdio_output@@V?$positional_parameter_base@DV?$string_output_adapter@D@__crt_stdio_output@@@2@@__crt_stdio_output@@AAE_NXZ 004701b0 f i libucrtd:output.obj
 0001:0006f650       ?state_case_type@?$output_processor@DV?$string_output_adapter@D@__crt_stdio_output@@V?$standard_base@DV?$string_output_adapter@D@__crt_stdio_output@@@2@@__crt_stdio_output@@AAE_NXZ 00470650 f i libucrtd:output.obj
 0001:0006faf0       ?state_case_type@?$output_processor@_WV?$stream_output_adapter@_W@__crt_stdio_output@@V?$format_validation_base@_WV?$stream_output_adapter@_W@__crt_stdio_output@@@2@@__crt_stdio_output@@AAE_NXZ 00470af0 f i libucrtd:output.obj
 0001:0006ffc0       ?state_case_type@?$output_processor@_WV?$stream_output_adapter@_W@__crt_stdio_output@@V?$positional_parameter_base@_WV?$stream_output_adapter@_W@__crt_stdio_output@@@2@@__crt_stdio_output@@AAE_NXZ 00470fc0 f i libucrtd:output.obj
 0001:00070490       ?state_case_type@?$output_processor@_WV?$stream_output_adapter@_W@__crt_stdio_output@@V?$standard_base@_WV?$stream_output_adapter@_W@__crt_stdio_output@@@2@@__crt_stdio_output@@AAE_NXZ 00471490 f i libucrtd:output.obj
 0001:00070960       ?state_case_type@?$output_processor@_WV?$string_output_adapter@_W@__crt_stdio_output@@V?$format_validation_base@_WV?$string_output_adapter@_W@__crt_stdio_output@@@2@@__crt_stdio_output@@AAE_NXZ 00471960 f i libucrtd:output.obj
 0001:00070e30       ?state_case_type@?$output_processor@_WV?$string_output_adapter@_W@__crt_stdio_output@@V?$positional_parameter_base@_WV?$string_output_adapter@_W@__crt_stdio_output@@@2@@__crt_stdio_output@@AAE_NXZ 00471e30 f i libucrtd:output.obj
 0001:00071300       ?state_case_type@?$output_processor@_WV?$string_output_adapter@_W@__crt_stdio_output@@V?$standard_base@_WV?$string_output_adapter@_W@__crt_stdio_output@@@2@@__crt_stdio_output@@AAE_NXZ 00472300 f i libucrtd:output.obj
 0001:000717d0       ?state_case_width@?$output_processor@DV?$stream_output_adapter@D@__crt_stdio_output@@V?$format_validation_base@DV?$stream_output_adapter@D@__crt_stdio_output@@@2@@__crt_stdio_output@@AAE_NXZ 004727d0 f i libucrtd:output.obj
 0001:00071860       ?state_case_width@?$output_processor@DV?$stream_output_adapter@D@__crt_stdio_output@@V?$positional_parameter_base@DV?$stream_output_adapter@D@__crt_stdio_output@@@2@@__crt_stdio_output@@AAE_NXZ 00472860 f i libucrtd:output.obj
 0001:000718f0       ?state_case_width@?$output_processor@DV?$stream_output_adapter@D@__crt_stdio_output@@V?$standard_base@DV?$stream_output_adapter@D@__crt_stdio_output@@@2@@__crt_stdio_output@@AAE_NXZ 004728f0 f i libucrtd:output.obj
 0001:00071980       ?state_case_width@?$output_processor@DV?$string_output_adapter@D@__crt_stdio_output@@V?$format_validation_base@DV?$string_output_adapter@D@__crt_stdio_output@@@2@@__crt_stdio_output@@AAE_NXZ 00472980 f i libucrtd:output.obj
 0001:00071a10       ?state_case_width@?$output_processor@DV?$string_output_adapter@D@__crt_stdio_output@@V?$positional_parameter_base@DV?$string_output_adapter@D@__crt_stdio_output@@@2@@__crt_stdio_output@@AAE_NXZ 00472a10 f i libucrtd:output.obj
 0001:00071aa0       ?state_case_width@?$output_processor@DV?$string_output_adapter@D@__crt_stdio_output@@V?$standard_base@DV?$string_output_adapter@D@__crt_stdio_output@@@2@@__crt_stdio_output@@AAE_NXZ 00472aa0 f i libucrtd:output.obj
 0001:00071b30       ?state_case_width@?$output_processor@_WV?$stream_output_adapter@_W@__crt_stdio_output@@V?$format_validation_base@_WV?$stream_output_adapter@_W@__crt_stdio_output@@@2@@__crt_stdio_output@@AAE_NXZ 00472b30 f i libucrtd:output.obj
 0001:00071bc0       ?state_case_width@?$output_processor@_WV?$stream_output_adapter@_W@__crt_stdio_output@@V?$positional_parameter_base@_WV?$stream_output_adapter@_W@__crt_stdio_output@@@2@@__crt_stdio_output@@AAE_NXZ 00472bc0 f i libucrtd:output.obj
 0001:00071c50       ?state_case_width@?$output_processor@_WV?$stream_output_adapter@_W@__crt_stdio_output@@V?$standard_base@_WV?$stream_output_adapter@_W@__crt_stdio_output@@@2@@__crt_stdio_output@@AAE_NXZ 00472c50 f i libucrtd:output.obj
 0001:00071ce0       ?state_case_width@?$output_processor@_WV?$string_output_adapter@_W@__crt_stdio_output@@V?$format_validation_base@_WV?$string_output_adapter@_W@__crt_stdio_output@@@2@@__crt_stdio_output@@AAE_NXZ 00472ce0 f i libucrtd:output.obj
 0001:00071d70       ?state_case_width@?$output_processor@_WV?$string_output_adapter@_W@__crt_stdio_output@@V?$positional_parameter_base@_WV?$string_output_adapter@_W@__crt_stdio_output@@@2@@__crt_stdio_output@@AAE_NXZ 00472d70 f i libucrtd:output.obj
 0001:00071e00       ?state_case_width@?$output_processor@_WV?$string_output_adapter@_W@__crt_stdio_output@@V?$standard_base@_WV?$string_output_adapter@_W@__crt_stdio_output@@@2@@__crt_stdio_output@@AAE_NXZ 00472e00 f i libucrtd:output.obj
 0001:00071e90       ?state_count@?$format_validation_base@DV?$stream_output_adapter@D@__crt_stdio_output@@@__crt_stdio_output@@KAIXZ 00472e90 f i libucrtd:output.obj
 0001:00071ea0       ?state_count@?$format_validation_base@DV?$string_output_adapter@D@__crt_stdio_output@@@__crt_stdio_output@@KAIXZ 00472ea0 f i libucrtd:output.obj
 0001:00071eb0       ?state_count@?$format_validation_base@_WV?$stream_output_adapter@_W@__crt_stdio_output@@@__crt_stdio_output@@KAIXZ 00472eb0 f i libucrtd:output.obj
 0001:00071ec0       ?state_count@?$format_validation_base@_WV?$string_output_adapter@_W@__crt_stdio_output@@@__crt_stdio_output@@KAIXZ 00472ec0 f i libucrtd:output.obj
 0001:00071ed0       ?state_count@?$standard_base@DV?$stream_output_adapter@D@__crt_stdio_output@@@__crt_stdio_output@@KAIXZ 00472ed0 f i libucrtd:output.obj
 0001:00071ee0       ?state_count@?$standard_base@DV?$string_output_adapter@D@__crt_stdio_output@@@__crt_stdio_output@@KAIXZ 00472ee0 f i libucrtd:output.obj
 0001:00071ef0       ?state_count@?$standard_base@_WV?$stream_output_adapter@_W@__crt_stdio_output@@@__crt_stdio_output@@KAIXZ 00472ef0 f i libucrtd:output.obj
 0001:00071f00       ?state_count@?$standard_base@_WV?$string_output_adapter@_W@__crt_stdio_output@@@__crt_stdio_output@@KAIXZ 00472f00 f i libucrtd:output.obj
 0001:00071f10       ?state_transition_table@?$format_validation_base@DV?$stream_output_adapter@D@__crt_stdio_output@@@__crt_stdio_output@@KAPBEXZ 00472f10 f i libucrtd:output.obj
 0001:00071f20       ?state_transition_table@?$format_validation_base@DV?$string_output_adapter@D@__crt_stdio_output@@@__crt_stdio_output@@KAPBEXZ 00472f20 f i libucrtd:output.obj
 0001:00071f30       ?state_transition_table@?$format_validation_base@_WV?$stream_output_adapter@_W@__crt_stdio_output@@@__crt_stdio_output@@KAPBEXZ 00472f30 f i libucrtd:output.obj
 0001:00071f40       ?state_transition_table@?$format_validation_base@_WV?$string_output_adapter@_W@__crt_stdio_output@@@__crt_stdio_output@@KAPBEXZ 00472f40 f i libucrtd:output.obj
 0001:00071f50       ?state_transition_table@?$standard_base@DV?$stream_output_adapter@D@__crt_stdio_output@@@__crt_stdio_output@@KAPBEXZ 00472f50 f i libucrtd:output.obj
 0001:00071f60       ?state_transition_table@?$standard_base@DV?$string_output_adapter@D@__crt_stdio_output@@@__crt_stdio_output@@KAPBEXZ 00472f60 f i libucrtd:output.obj
 0001:00071f70       ?state_transition_table@?$standard_base@_WV?$stream_output_adapter@_W@__crt_stdio_output@@@__crt_stdio_output@@KAPBEXZ 00472f70 f i libucrtd:output.obj
 0001:00071f80       ?state_transition_table@?$standard_base@_WV?$string_output_adapter@_W@__crt_stdio_output@@@__crt_stdio_output@@KAPBEXZ 00472f80 f i libucrtd:output.obj
 0001:00071f90       ?tchar_string@?$common_data@D@__crt_stdio_output@@IAEAAPADD@Z 00472f90 f i libucrtd:output.obj
 0001:00071fb0       ?tchar_string@?$common_data@D@__crt_stdio_output@@IAEAAPADXZ 00472fb0 f i libucrtd:output.obj
 0001:00071fd0       ?tchar_string@?$common_data@_W@__crt_stdio_output@@IAEAAPA_WXZ 00472fd0 f i libucrtd:output.obj
 0001:00071ff0       ?tchar_string@?$common_data@_W@__crt_stdio_output@@IAEAAPA_W_W@Z 00472ff0 f i libucrtd:output.obj
 0001:00072010       ?to_integer_size@__crt_stdio_output@@YAIW4length_modifier@1@@Z 00473010 f i libucrtd:output.obj
 0001:000720e0       ?type_case_X@?$output_processor@DV?$stream_output_adapter@D@__crt_stdio_output@@V?$format_validation_base@DV?$stream_output_adapter@D@__crt_stdio_output@@@2@@__crt_stdio_output@@AAE_NXZ 004730e0 f i libucrtd:output.obj
 0001:00072100       ?type_case_X@?$output_processor@DV?$stream_output_adapter@D@__crt_stdio_output@@V?$positional_parameter_base@DV?$stream_output_adapter@D@__crt_stdio_output@@@2@@__crt_stdio_output@@AAE_NXZ 00473100 f i libucrtd:output.obj
 0001:00072120       ?type_case_X@?$output_processor@DV?$stream_output_adapter@D@__crt_stdio_output@@V?$standard_base@DV?$stream_output_adapter@D@__crt_stdio_output@@@2@@__crt_stdio_output@@AAE_NXZ 00473120 f i libucrtd:output.obj
 0001:00072140       ?type_case_X@?$output_processor@DV?$string_output_adapter@D@__crt_stdio_output@@V?$format_validation_base@DV?$string_output_adapter@D@__crt_stdio_output@@@2@@__crt_stdio_output@@AAE_NXZ 00473140 f i libucrtd:output.obj
 0001:00072160       ?type_case_X@?$output_processor@DV?$string_output_adapter@D@__crt_stdio_output@@V?$positional_parameter_base@DV?$string_output_adapter@D@__crt_stdio_output@@@2@@__crt_stdio_output@@AAE_NXZ 00473160 f i libucrtd:output.obj
 0001:00072180       ?type_case_X@?$output_processor@DV?$string_output_adapter@D@__crt_stdio_output@@V?$standard_base@DV?$string_output_adapter@D@__crt_stdio_output@@@2@@__crt_stdio_output@@AAE_NXZ 00473180 f i libucrtd:output.obj
 0001:000721a0       ?type_case_X@?$output_processor@_WV?$stream_output_adapter@_W@__crt_stdio_output@@V?$format_validation_base@_WV?$stream_output_adapter@_W@__crt_stdio_output@@@2@@__crt_stdio_output@@AAE_NXZ 004731a0 f i libucrtd:output.obj
 0001:000721c0       ?type_case_X@?$output_processor@_WV?$stream_output_adapter@_W@__crt_stdio_output@@V?$positional_parameter_base@_WV?$stream_output_adapter@_W@__crt_stdio_output@@@2@@__crt_stdio_output@@AAE_NXZ 004731c0 f i libucrtd:output.obj
 0001:000721e0       ?type_case_X@?$output_processor@_WV?$stream_output_adapter@_W@__crt_stdio_output@@V?$standard_base@_WV?$stream_output_adapter@_W@__crt_stdio_output@@@2@@__crt_stdio_output@@AAE_NXZ 004731e0 f i libucrtd:output.obj
 0001:00072200       ?type_case_X@?$output_processor@_WV?$string_output_adapter@_W@__crt_stdio_output@@V?$format_validation_base@_WV?$string_output_adapter@_W@__crt_stdio_output@@@2@@__crt_stdio_output@@AAE_NXZ 00473200 f i libucrtd:output.obj
 0001:00072220       ?type_case_X@?$output_processor@_WV?$string_output_adapter@_W@__crt_stdio_output@@V?$positional_parameter_base@_WV?$string_output_adapter@_W@__crt_stdio_output@@@2@@__crt_stdio_output@@AAE_NXZ 00473220 f i libucrtd:output.obj
 0001:00072240       ?type_case_X@?$output_processor@_WV?$string_output_adapter@_W@__crt_stdio_output@@V?$standard_base@_WV?$string_output_adapter@_W@__crt_stdio_output@@@2@@__crt_stdio_output@@AAE_NXZ 00473240 f i libucrtd:output.obj
 0001:00072260       ?type_case_Z@?$output_processor@DV?$stream_output_adapter@D@__crt_stdio_output@@V?$format_validation_base@DV?$stream_output_adapter@D@__crt_stdio_output@@@2@@__crt_stdio_output@@AAE_NXZ 00473260 f i libucrtd:output.obj
 0001:00072390       ?type_case_Z@?$output_processor@DV?$stream_output_adapter@D@__crt_stdio_output@@V?$positional_parameter_base@DV?$stream_output_adapter@D@__crt_stdio_output@@@2@@__crt_stdio_output@@AAE_NXZ 00473390 f i libucrtd:output.obj
 0001:000724c0       ?type_case_Z@?$output_processor@DV?$stream_output_adapter@D@__crt_stdio_output@@V?$standard_base@DV?$stream_output_adapter@D@__crt_stdio_output@@@2@@__crt_stdio_output@@AAE_NXZ 004734c0 f i libucrtd:output.obj
 0001:000725f0       ?type_case_Z@?$output_processor@DV?$string_output_adapter@D@__crt_stdio_output@@V?$format_validation_base@DV?$string_output_adapter@D@__crt_stdio_output@@@2@@__crt_stdio_output@@AAE_NXZ 004735f0 f i libucrtd:output.obj
 0001:00072720       ?type_case_Z@?$output_processor@DV?$string_output_adapter@D@__crt_stdio_output@@V?$positional_parameter_base@DV?$string_output_adapter@D@__crt_stdio_output@@@2@@__crt_stdio_output@@AAE_NXZ 00473720 f i libucrtd:output.obj
 0001:00072850       ?type_case_Z@?$output_processor@DV?$string_output_adapter@D@__crt_stdio_output@@V?$standard_base@DV?$string_output_adapter@D@__crt_stdio_output@@@2@@__crt_stdio_output@@AAE_NXZ 00473850 f i libucrtd:output.obj
 0001:00072980       ?type_case_Z@?$output_processor@_WV?$stream_output_adapter@_W@__crt_stdio_output@@V?$format_validation_base@_WV?$stream_output_adapter@_W@__crt_stdio_output@@@2@@__crt_stdio_output@@AAE_NXZ 00473980 f i libucrtd:output.obj
 0001:00072ab0       ?type_case_Z@?$output_processor@_WV?$stream_output_adapter@_W@__crt_stdio_output@@V?$positional_parameter_base@_WV?$stream_output_adapter@_W@__crt_stdio_output@@@2@@__crt_stdio_output@@AAE_NXZ 00473ab0 f i libucrtd:output.obj
 0001:00072be0       ?type_case_Z@?$output_processor@_WV?$stream_output_adapter@_W@__crt_stdio_output@@V?$standard_base@_WV?$stream_output_adapter@_W@__crt_stdio_output@@@2@@__crt_stdio_output@@AAE_NXZ 00473be0 f i libucrtd:output.obj
 0001:00072d10       ?type_case_Z@?$output_processor@_WV?$string_output_adapter@_W@__crt_stdio_output@@V?$format_validation_base@_WV?$string_output_adapter@_W@__crt_stdio_output@@@2@@__crt_stdio_output@@AAE_NXZ 00473d10 f i libucrtd:output.obj
 0001:00072e40       ?type_case_Z@?$output_processor@_WV?$string_output_adapter@_W@__crt_stdio_output@@V?$positional_parameter_base@_WV?$string_output_adapter@_W@__crt_stdio_output@@@2@@__crt_stdio_output@@AAE_NXZ 00473e40 f i libucrtd:output.obj
 0001:00072f70       ?type_case_Z@?$output_processor@_WV?$string_output_adapter@_W@__crt_stdio_output@@V?$standard_base@_WV?$string_output_adapter@_W@__crt_stdio_output@@@2@@__crt_stdio_output@@AAE_NXZ 00473f70 f i libucrtd:output.obj
 0001:000730a0       ?type_case_a@?$output_processor@DV?$stream_output_adapter@D@__crt_stdio_output@@V?$format_validation_base@DV?$stream_output_adapter@D@__crt_stdio_output@@@2@@__crt_stdio_output@@AAE_NXZ 004740a0 f i libucrtd:output.obj
 0001:000733a0       ?type_case_a@?$output_processor@DV?$stream_output_adapter@D@__crt_stdio_output@@V?$positional_parameter_base@DV?$stream_output_adapter@D@__crt_stdio_output@@@2@@__crt_stdio_output@@AAE_NXZ 004743a0 f i libucrtd:output.obj
 0001:000736a0       ?type_case_a@?$output_processor@DV?$stream_output_adapter@D@__crt_stdio_output@@V?$standard_base@DV?$stream_output_adapter@D@__crt_stdio_output@@@2@@__crt_stdio_output@@AAE_NXZ 004746a0 f i libucrtd:output.obj
 0001:000739a0       ?type_case_a@?$output_processor@DV?$string_output_adapter@D@__crt_stdio_output@@V?$format_validation_base@DV?$string_output_adapter@D@__crt_stdio_output@@@2@@__crt_stdio_output@@AAE_NXZ 004749a0 f i libucrtd:output.obj
 0001:00073ca0       ?type_case_a@?$output_processor@DV?$string_output_adapter@D@__crt_stdio_output@@V?$positional_parameter_base@DV?$string_output_adapter@D@__crt_stdio_output@@@2@@__crt_stdio_output@@AAE_NXZ 00474ca0 f i libucrtd:output.obj
 0001:00073fa0       ?type_case_a@?$output_processor@DV?$string_output_adapter@D@__crt_stdio_output@@V?$standard_base@DV?$string_output_adapter@D@__crt_stdio_output@@@2@@__crt_stdio_output@@AAE_NXZ 00474fa0 f i libucrtd:output.obj
 0001:000742a0       ?type_case_a@?$output_processor@_WV?$stream_output_adapter@_W@__crt_stdio_output@@V?$format_validation_base@_WV?$stream_output_adapter@_W@__crt_stdio_output@@@2@@__crt_stdio_output@@AAE_NXZ 004752a0 f i libucrtd:output.obj
 0001:000745b0       ?type_case_a@?$output_processor@_WV?$stream_output_adapter@_W@__crt_stdio_output@@V?$positional_parameter_base@_WV?$stream_output_adapter@_W@__crt_stdio_output@@@2@@__crt_stdio_output@@AAE_NXZ 004755b0 f i libucrtd:output.obj
 0001:000748c0       ?type_case_a@?$output_processor@_WV?$stream_output_adapter@_W@__crt_stdio_output@@V?$standard_base@_WV?$stream_output_adapter@_W@__crt_stdio_output@@@2@@__crt_stdio_output@@AAE_NXZ 004758c0 f i libucrtd:output.obj
 0001:00074bd0       ?type_case_a@?$output_processor@_WV?$string_output_adapter@_W@__crt_stdio_output@@V?$format_validation_base@_WV?$string_output_adapter@_W@__crt_stdio_output@@@2@@__crt_stdio_output@@AAE_NXZ 00475bd0 f i libucrtd:output.obj
 0001:00074ee0       ?type_case_a@?$output_processor@_WV?$string_output_adapter@_W@__crt_stdio_output@@V?$positional_parameter_base@_WV?$string_output_adapter@_W@__crt_stdio_output@@@2@@__crt_stdio_output@@AAE_NXZ 00475ee0 f i libucrtd:output.obj
 0001:000751f0       ?type_case_a@?$output_processor@_WV?$string_output_adapter@_W@__crt_stdio_output@@V?$standard_base@_WV?$string_output_adapter@_W@__crt_stdio_output@@@2@@__crt_stdio_output@@AAE_NXZ 004761f0 f i libucrtd:output.obj
 0001:00075500       ?type_case_c@?$output_processor@DV?$stream_output_adapter@D@__crt_stdio_output@@V?$format_validation_base@DV?$stream_output_adapter@D@__crt_stdio_output@@@2@@__crt_stdio_output@@AAE_NXZ 00476500 f i libucrtd:output.obj
 0001:00075520       ?type_case_c@?$output_processor@DV?$stream_output_adapter@D@__crt_stdio_output@@V?$positional_parameter_base@DV?$stream_output_adapter@D@__crt_stdio_output@@@2@@__crt_stdio_output@@AAE_NXZ 00476520 f i libucrtd:output.obj
 0001:00075540       ?type_case_c@?$output_processor@DV?$stream_output_adapter@D@__crt_stdio_output@@V?$standard_base@DV?$stream_output_adapter@D@__crt_stdio_output@@@2@@__crt_stdio_output@@AAE_NXZ 00476540 f i libucrtd:output.obj
 0001:00075560       ?type_case_c@?$output_processor@DV?$string_output_adapter@D@__crt_stdio_output@@V?$format_validation_base@DV?$string_output_adapter@D@__crt_stdio_output@@@2@@__crt_stdio_output@@AAE_NXZ 00476560 f i libucrtd:output.obj
 0001:00075580       ?type_case_c@?$output_processor@DV?$string_output_adapter@D@__crt_stdio_output@@V?$positional_parameter_base@DV?$string_output_adapter@D@__crt_stdio_output@@@2@@__crt_stdio_output@@AAE_NXZ 00476580 f i libucrtd:output.obj
 0001:000755a0       ?type_case_c@?$output_processor@DV?$string_output_adapter@D@__crt_stdio_output@@V?$standard_base@DV?$string_output_adapter@D@__crt_stdio_output@@@2@@__crt_stdio_output@@AAE_NXZ 004765a0 f i libucrtd:output.obj
 0001:000755c0       ?type_case_c@?$output_processor@_WV?$stream_output_adapter@_W@__crt_stdio_output@@V?$format_validation_base@_WV?$stream_output_adapter@_W@__crt_stdio_output@@@2@@__crt_stdio_output@@AAE_NXZ 004765c0 f i libucrtd:output.obj
 0001:000755e0       ?type_case_c@?$output_processor@_WV?$stream_output_adapter@_W@__crt_stdio_output@@V?$positional_parameter_base@_WV?$stream_output_adapter@_W@__crt_stdio_output@@@2@@__crt_stdio_output@@AAE_NXZ 004765e0 f i libucrtd:output.obj
 0001:00075600       ?type_case_c@?$output_processor@_WV?$stream_output_adapter@_W@__crt_stdio_output@@V?$standard_base@_WV?$stream_output_adapter@_W@__crt_stdio_output@@@2@@__crt_stdio_output@@AAE_NXZ 00476600 f i libucrtd:output.obj
 0001:00075620       ?type_case_c@?$output_processor@_WV?$string_output_adapter@_W@__crt_stdio_output@@V?$format_validation_base@_WV?$string_output_adapter@_W@__crt_stdio_output@@@2@@__crt_stdio_output@@AAE_NXZ 00476620 f i libucrtd:output.obj
 0001:00075640       ?type_case_c@?$output_processor@_WV?$string_output_adapter@_W@__crt_stdio_output@@V?$positional_parameter_base@_WV?$string_output_adapter@_W@__crt_stdio_output@@@2@@__crt_stdio_output@@AAE_NXZ 00476640 f i libucrtd:output.obj
 0001:00075660       ?type_case_c@?$output_processor@_WV?$string_output_adapter@_W@__crt_stdio_output@@V?$standard_base@_WV?$string_output_adapter@_W@__crt_stdio_output@@@2@@__crt_stdio_output@@AAE_NXZ 00476660 f i libucrtd:output.obj
 0001:00075680       ?type_case_c_tchar@?$output_processor@DV?$stream_output_adapter@D@__crt_stdio_output@@V?$format_validation_base@DV?$stream_output_adapter@D@__crt_stdio_output@@@2@@__crt_stdio_output@@AAE_ND@Z 00476680 f i libucrtd:output.obj
 0001:000757d0       ?type_case_c_tchar@?$output_processor@DV?$stream_output_adapter@D@__crt_stdio_output@@V?$positional_parameter_base@DV?$stream_output_adapter@D@__crt_stdio_output@@@2@@__crt_stdio_output@@AAE_ND@Z 004767d0 f i libucrtd:output.obj
 0001:00075920       ?type_case_c_tchar@?$output_processor@DV?$stream_output_adapter@D@__crt_stdio_output@@V?$standard_base@DV?$stream_output_adapter@D@__crt_stdio_output@@@2@@__crt_stdio_output@@AAE_ND@Z 00476920 f i libucrtd:output.obj
 0001:00075a70       ?type_case_c_tchar@?$output_processor@DV?$string_output_adapter@D@__crt_stdio_output@@V?$format_validation_base@DV?$string_output_adapter@D@__crt_stdio_output@@@2@@__crt_stdio_output@@AAE_ND@Z 00476a70 f i libucrtd:output.obj
 0001:00075bc0       ?type_case_c_tchar@?$output_processor@DV?$string_output_adapter@D@__crt_stdio_output@@V?$positional_parameter_base@DV?$string_output_adapter@D@__crt_stdio_output@@@2@@__crt_stdio_output@@AAE_ND@Z 00476bc0 f i libucrtd:output.obj
 0001:00075d10       ?type_case_c_tchar@?$output_processor@DV?$string_output_adapter@D@__crt_stdio_output@@V?$standard_base@DV?$string_output_adapter@D@__crt_stdio_output@@@2@@__crt_stdio_output@@AAE_ND@Z 00476d10 f i libucrtd:output.obj
 0001:00075e60       ?type_case_c_tchar@?$output_processor@_WV?$stream_output_adapter@_W@__crt_stdio_output@@V?$format_validation_base@_WV?$stream_output_adapter@_W@__crt_stdio_output@@@2@@__crt_stdio_output@@AAE_N_W@Z 00476e60 f i libucrtd:output.obj
 0001:00075fa0       ?type_case_c_tchar@?$output_processor@_WV?$stream_output_adapter@_W@__crt_stdio_output@@V?$positional_parameter_base@_WV?$stream_output_adapter@_W@__crt_stdio_output@@@2@@__crt_stdio_output@@AAE_N_W@Z 00476fa0 f i libucrtd:output.obj
 0001:000760e0       ?type_case_c_tchar@?$output_processor@_WV?$stream_output_adapter@_W@__crt_stdio_output@@V?$standard_base@_WV?$stream_output_adapter@_W@__crt_stdio_output@@@2@@__crt_stdio_output@@AAE_N_W@Z 004770e0 f i libucrtd:output.obj
 0001:00076220       ?type_case_c_tchar@?$output_processor@_WV?$string_output_adapter@_W@__crt_stdio_output@@V?$format_validation_base@_WV?$string_output_adapter@_W@__crt_stdio_output@@@2@@__crt_stdio_output@@AAE_N_W@Z 00477220 f i libucrtd:output.obj
 0001:00076360       ?type_case_c_tchar@?$output_processor@_WV?$string_output_adapter@_W@__crt_stdio_output@@V?$positional_parameter_base@_WV?$string_output_adapter@_W@__crt_stdio_output@@@2@@__crt_stdio_output@@AAE_N_W@Z 00477360 f i libucrtd:output.obj
 0001:000764a0       ?type_case_c_tchar@?$output_processor@_WV?$string_output_adapter@_W@__crt_stdio_output@@V?$standard_base@_WV?$string_output_adapter@_W@__crt_stdio_output@@@2@@__crt_stdio_output@@AAE_N_W@Z 004774a0 f i libucrtd:output.obj
 0001:000765e0       ?type_case_d@?$output_processor@DV?$stream_output_adapter@D@__crt_stdio_output@@V?$format_validation_base@DV?$stream_output_adapter@D@__crt_stdio_output@@@2@@__crt_stdio_output@@AAE_NXZ 004775e0 f i libucrtd:output.obj
 0001:00076610       ?type_case_d@?$output_processor@DV?$stream_output_adapter@D@__crt_stdio_output@@V?$positional_parameter_base@DV?$stream_output_adapter@D@__crt_stdio_output@@@2@@__crt_stdio_output@@AAE_NXZ 00477610 f i libucrtd:output.obj
 0001:00076640       ?type_case_d@?$output_processor@DV?$stream_output_adapter@D@__crt_stdio_output@@V?$standard_base@DV?$stream_output_adapter@D@__crt_stdio_output@@@2@@__crt_stdio_output@@AAE_NXZ 00477640 f i libucrtd:output.obj
 0001:00076670       ?type_case_d@?$output_processor@DV?$string_output_adapter@D@__crt_stdio_output@@V?$format_validation_base@DV?$string_output_adapter@D@__crt_stdio_output@@@2@@__crt_stdio_output@@AAE_NXZ 00477670 f i libucrtd:output.obj
 0001:000766a0       ?type_case_d@?$output_processor@DV?$string_output_adapter@D@__crt_stdio_output@@V?$positional_parameter_base@DV?$string_output_adapter@D@__crt_stdio_output@@@2@@__crt_stdio_output@@AAE_NXZ 004776a0 f i libucrtd:output.obj
 0001:000766d0       ?type_case_d@?$output_processor@DV?$string_output_adapter@D@__crt_stdio_output@@V?$standard_base@DV?$string_output_adapter@D@__crt_stdio_output@@@2@@__crt_stdio_output@@AAE_NXZ 004776d0 f i libucrtd:output.obj
 0001:00076700       ?type_case_d@?$output_processor@_WV?$stream_output_adapter@_W@__crt_stdio_output@@V?$format_validation_base@_WV?$stream_output_adapter@_W@__crt_stdio_output@@@2@@__crt_stdio_output@@AAE_NXZ 00477700 f i libucrtd:output.obj
 0001:00076730       ?type_case_d@?$output_processor@_WV?$stream_output_adapter@_W@__crt_stdio_output@@V?$positional_parameter_base@_WV?$stream_output_adapter@_W@__crt_stdio_output@@@2@@__crt_stdio_output@@AAE_NXZ 00477730 f i libucrtd:output.obj
 0001:00076760       ?type_case_d@?$output_processor@_WV?$stream_output_adapter@_W@__crt_stdio_output@@V?$standard_base@_WV?$stream_output_adapter@_W@__crt_stdio_output@@@2@@__crt_stdio_output@@AAE_NXZ 00477760 f i libucrtd:output.obj
 0001:00076790       ?type_case_d@?$output_processor@_WV?$string_output_adapter@_W@__crt_stdio_output@@V?$format_validation_base@_WV?$string_output_adapter@_W@__crt_stdio_output@@@2@@__crt_stdio_output@@AAE_NXZ 00477790 f i libucrtd:output.obj
 0001:000767c0       ?type_case_d@?$output_processor@_WV?$string_output_adapter@_W@__crt_stdio_output@@V?$positional_parameter_base@_WV?$string_output_adapter@_W@__crt_stdio_output@@@2@@__crt_stdio_output@@AAE_NXZ 004777c0 f i libucrtd:output.obj
 0001:000767f0       ?type_case_d@?$output_processor@_WV?$string_output_adapter@_W@__crt_stdio_output@@V?$standard_base@_WV?$string_output_adapter@_W@__crt_stdio_output@@@2@@__crt_stdio_output@@AAE_NXZ 004777f0 f i libucrtd:output.obj
 0001:00076820       ?type_case_integer@?$output_processor@DV?$stream_output_adapter@D@__crt_stdio_output@@V?$format_validation_base@DV?$stream_output_adapter@D@__crt_stdio_output@@@2@@__crt_stdio_output@@AAE_NI_N@Z 00477820 f i libucrtd:output.obj
 0001:00076c40       ?type_case_integer@?$output_processor@DV?$stream_output_adapter@D@__crt_stdio_output@@V?$positional_parameter_base@DV?$stream_output_adapter@D@__crt_stdio_output@@@2@@__crt_stdio_output@@AAE_NI_N@Z 00477c40 f i libucrtd:output.obj
 0001:00077060       ?type_case_integer@?$output_processor@DV?$stream_output_adapter@D@__crt_stdio_output@@V?$standard_base@DV?$stream_output_adapter@D@__crt_stdio_output@@@2@@__crt_stdio_output@@AAE_NI_N@Z 00478060 f i libucrtd:output.obj
 0001:00077480       ?type_case_integer@?$output_processor@DV?$string_output_adapter@D@__crt_stdio_output@@V?$format_validation_base@DV?$string_output_adapter@D@__crt_stdio_output@@@2@@__crt_stdio_output@@AAE_NI_N@Z 00478480 f i libucrtd:output.obj
 0001:000778a0       ?type_case_integer@?$output_processor@DV?$string_output_adapter@D@__crt_stdio_output@@V?$positional_parameter_base@DV?$string_output_adapter@D@__crt_stdio_output@@@2@@__crt_stdio_output@@AAE_NI_N@Z 004788a0 f i libucrtd:output.obj
 0001:00077cc0       ?type_case_integer@?$output_processor@DV?$string_output_adapter@D@__crt_stdio_output@@V?$standard_base@DV?$string_output_adapter@D@__crt_stdio_output@@@2@@__crt_stdio_output@@AAE_NI_N@Z 00478cc0 f i libucrtd:output.obj
 0001:000780e0       ?type_case_integer@?$output_processor@_WV?$stream_output_adapter@_W@__crt_stdio_output@@V?$format_validation_base@_WV?$stream_output_adapter@_W@__crt_stdio_output@@@2@@__crt_stdio_output@@AAE_NI_N@Z 004790e0 f i libucrtd:output.obj
 0001:00078500       ?type_case_integer@?$output_processor@_WV?$stream_output_adapter@_W@__crt_stdio_output@@V?$positional_parameter_base@_WV?$stream_output_adapter@_W@__crt_stdio_output@@@2@@__crt_stdio_output@@AAE_NI_N@Z 00479500 f i libucrtd:output.obj
 0001:00078920       ?type_case_integer@?$output_processor@_WV?$stream_output_adapter@_W@__crt_stdio_output@@V?$standard_base@_WV?$stream_output_adapter@_W@__crt_stdio_output@@@2@@__crt_stdio_output@@AAE_NI_N@Z 00479920 f i libucrtd:output.obj
 0001:00078d40       ?type_case_integer@?$output_processor@_WV?$string_output_adapter@_W@__crt_stdio_output@@V?$format_validation_base@_WV?$string_output_adapter@_W@__crt_stdio_output@@@2@@__crt_stdio_output@@AAE_NI_N@Z 00479d40 f i libucrtd:output.obj
 0001:00079160       ?type_case_integer@?$output_processor@_WV?$string_output_adapter@_W@__crt_stdio_output@@V?$positional_parameter_base@_WV?$string_output_adapter@_W@__crt_stdio_output@@@2@@__crt_stdio_output@@AAE_NI_N@Z 0047a160 f i libucrtd:output.obj
 0001:00079580       ?type_case_integer@?$output_processor@_WV?$string_output_adapter@_W@__crt_stdio_output@@V?$standard_base@_WV?$string_output_adapter@_W@__crt_stdio_output@@@2@@__crt_stdio_output@@AAE_NI_N@Z 0047a580 f i libucrtd:output.obj
 0001:000799a0       ?type_case_n@?$output_processor@DV?$stream_output_adapter@D@__crt_stdio_output@@V?$format_validation_base@DV?$stream_output_adapter@D@__crt_stdio_output@@@2@@__crt_stdio_output@@AAE_NXZ 0047a9a0 f i libucrtd:output.obj
 0001:00079c10       ?type_case_n@?$output_processor@DV?$stream_output_adapter@D@__crt_stdio_output@@V?$positional_parameter_base@DV?$stream_output_adapter@D@__crt_stdio_output@@@2@@__crt_stdio_output@@AAE_NXZ 0047ac10 f i libucrtd:output.obj
 0001:00079e80       ?type_case_n@?$output_processor@DV?$stream_output_adapter@D@__crt_stdio_output@@V?$standard_base@DV?$stream_output_adapter@D@__crt_stdio_output@@@2@@__crt_stdio_output@@AAE_NXZ 0047ae80 f i libucrtd:output.obj
 0001:0007a0f0       ?type_case_n@?$output_processor@DV?$string_output_adapter@D@__crt_stdio_output@@V?$format_validation_base@DV?$string_output_adapter@D@__crt_stdio_output@@@2@@__crt_stdio_output@@AAE_NXZ 0047b0f0 f i libucrtd:output.obj
 0001:0007a360       ?type_case_n@?$output_processor@DV?$string_output_adapter@D@__crt_stdio_output@@V?$positional_parameter_base@DV?$string_output_adapter@D@__crt_stdio_output@@@2@@__crt_stdio_output@@AAE_NXZ 0047b360 f i libucrtd:output.obj
 0001:0007a5d0       ?type_case_n@?$output_processor@DV?$string_output_adapter@D@__crt_stdio_output@@V?$standard_base@DV?$string_output_adapter@D@__crt_stdio_output@@@2@@__crt_stdio_output@@AAE_NXZ 0047b5d0 f i libucrtd:output.obj
 0001:0007a840       ?type_case_n@?$output_processor@_WV?$stream_output_adapter@_W@__crt_stdio_output@@V?$format_validation_base@_WV?$stream_output_adapter@_W@__crt_stdio_output@@@2@@__crt_stdio_output@@AAE_NXZ 0047b840 f i libucrtd:output.obj
 0001:0007aab0       ?type_case_n@?$output_processor@_WV?$stream_output_adapter@_W@__crt_stdio_output@@V?$positional_parameter_base@_WV?$stream_output_adapter@_W@__crt_stdio_output@@@2@@__crt_stdio_output@@AAE_NXZ 0047bab0 f i libucrtd:output.obj
 0001:0007ad20       ?type_case_n@?$output_processor@_WV?$stream_output_adapter@_W@__crt_stdio_output@@V?$standard_base@_WV?$stream_output_adapter@_W@__crt_stdio_output@@@2@@__crt_stdio_output@@AAE_NXZ 0047bd20 f i libucrtd:output.obj
 0001:0007af90       ?type_case_n@?$output_processor@_WV?$string_output_adapter@_W@__crt_stdio_output@@V?$format_validation_base@_WV?$string_output_adapter@_W@__crt_stdio_output@@@2@@__crt_stdio_output@@AAE_NXZ 0047bf90 f i libucrtd:output.obj
 0001:0007b200       ?type_case_n@?$output_processor@_WV?$string_output_adapter@_W@__crt_stdio_output@@V?$positional_parameter_base@_WV?$string_output_adapter@_W@__crt_stdio_output@@@2@@__crt_stdio_output@@AAE_NXZ 0047c200 f i libucrtd:output.obj
 0001:0007b470       ?type_case_n@?$output_processor@_WV?$string_output_adapter@_W@__crt_stdio_output@@V?$standard_base@_WV?$string_output_adapter@_W@__crt_stdio_output@@@2@@__crt_stdio_output@@AAE_NXZ 0047c470 f i libucrtd:output.obj
 0001:0007b6e0       ?type_case_o@?$output_processor@DV?$stream_output_adapter@D@__crt_stdio_output@@V?$format_validation_base@DV?$stream_output_adapter@D@__crt_stdio_output@@@2@@__crt_stdio_output@@AAE_NXZ 0047c6e0 f i libucrtd:output.obj
 0001:0007b730       ?type_case_o@?$output_processor@DV?$stream_output_adapter@D@__crt_stdio_output@@V?$positional_parameter_base@DV?$stream_output_adapter@D@__crt_stdio_output@@@2@@__crt_stdio_output@@AAE_NXZ 0047c730 f i libucrtd:output.obj
 0001:0007b780       ?type_case_o@?$output_processor@DV?$stream_output_adapter@D@__crt_stdio_output@@V?$standard_base@DV?$stream_output_adapter@D@__crt_stdio_output@@@2@@__crt_stdio_output@@AAE_NXZ 0047c780 f i libucrtd:output.obj
 0001:0007b7d0       ?type_case_o@?$output_processor@DV?$string_output_adapter@D@__crt_stdio_output@@V?$format_validation_base@DV?$string_output_adapter@D@__crt_stdio_output@@@2@@__crt_stdio_output@@AAE_NXZ 0047c7d0 f i libucrtd:output.obj
 0001:0007b820       ?type_case_o@?$output_processor@DV?$string_output_adapter@D@__crt_stdio_output@@V?$positional_parameter_base@DV?$string_output_adapter@D@__crt_stdio_output@@@2@@__crt_stdio_output@@AAE_NXZ 0047c820 f i libucrtd:output.obj
 0001:0007b870       ?type_case_o@?$output_processor@DV?$string_output_adapter@D@__crt_stdio_output@@V?$standard_base@DV?$string_output_adapter@D@__crt_stdio_output@@@2@@__crt_stdio_output@@AAE_NXZ 0047c870 f i libucrtd:output.obj
 0001:0007b8c0       ?type_case_o@?$output_processor@_WV?$stream_output_adapter@_W@__crt_stdio_output@@V?$format_validation_base@_WV?$stream_output_adapter@_W@__crt_stdio_output@@@2@@__crt_stdio_output@@AAE_NXZ 0047c8c0 f i libucrtd:output.obj
 0001:0007b910       ?type_case_o@?$output_processor@_WV?$stream_output_adapter@_W@__crt_stdio_output@@V?$positional_parameter_base@_WV?$stream_output_adapter@_W@__crt_stdio_output@@@2@@__crt_stdio_output@@AAE_NXZ 0047c910 f i libucrtd:output.obj
 0001:0007b960       ?type_case_o@?$output_processor@_WV?$stream_output_adapter@_W@__crt_stdio_output@@V?$standard_base@_WV?$stream_output_adapter@_W@__crt_stdio_output@@@2@@__crt_stdio_output@@AAE_NXZ 0047c960 f i libucrtd:output.obj
 0001:0007b9b0       ?type_case_o@?$output_processor@_WV?$string_output_adapter@_W@__crt_stdio_output@@V?$format_validation_base@_WV?$string_output_adapter@_W@__crt_stdio_output@@@2@@__crt_stdio_output@@AAE_NXZ 0047c9b0 f i libucrtd:output.obj
 0001:0007ba00       ?type_case_o@?$output_processor@_WV?$string_output_adapter@_W@__crt_stdio_output@@V?$positional_parameter_base@_WV?$string_output_adapter@_W@__crt_stdio_output@@@2@@__crt_stdio_output@@AAE_NXZ 0047ca00 f i libucrtd:output.obj
 0001:0007ba50       ?type_case_o@?$output_processor@_WV?$string_output_adapter@_W@__crt_stdio_output@@V?$standard_base@_WV?$string_output_adapter@_W@__crt_stdio_output@@@2@@__crt_stdio_output@@AAE_NXZ 0047ca50 f i libucrtd:output.obj
 0001:0007baa0       ?type_case_p@?$output_processor@DV?$stream_output_adapter@D@__crt_stdio_output@@V?$format_validation_base@DV?$stream_output_adapter@D@__crt_stdio_output@@@2@@__crt_stdio_output@@AAE_NXZ 0047caa0 f i libucrtd:output.obj
 0001:0007bae0       ?type_case_p@?$output_processor@DV?$stream_output_adapter@D@__crt_stdio_output@@V?$positional_parameter_base@DV?$stream_output_adapter@D@__crt_stdio_output@@@2@@__crt_stdio_output@@AAE_NXZ 0047cae0 f i libucrtd:output.obj
 0001:0007bb20       ?type_case_p@?$output_processor@DV?$stream_output_adapter@D@__crt_stdio_output@@V?$standard_base@DV?$stream_output_adapter@D@__crt_stdio_output@@@2@@__crt_stdio_output@@AAE_NXZ 0047cb20 f i libucrtd:output.obj
 0001:0007bb60       ?type_case_p@?$output_processor@DV?$string_output_adapter@D@__crt_stdio_output@@V?$format_validation_base@DV?$string_output_adapter@D@__crt_stdio_output@@@2@@__crt_stdio_output@@AAE_NXZ 0047cb60 f i libucrtd:output.obj
 0001:0007bba0       ?type_case_p@?$output_processor@DV?$string_output_adapter@D@__crt_stdio_output@@V?$positional_parameter_base@DV?$string_output_adapter@D@__crt_stdio_output@@@2@@__crt_stdio_output@@AAE_NXZ 0047cba0 f i libucrtd:output.obj
 0001:0007bbe0       ?type_case_p@?$output_processor@DV?$string_output_adapter@D@__crt_stdio_output@@V?$standard_base@DV?$string_output_adapter@D@__crt_stdio_output@@@2@@__crt_stdio_output@@AAE_NXZ 0047cbe0 f i libucrtd:output.obj
 0001:0007bc20       ?type_case_p@?$output_processor@_WV?$stream_output_adapter@_W@__crt_stdio_output@@V?$format_validation_base@_WV?$stream_output_adapter@_W@__crt_stdio_output@@@2@@__crt_stdio_output@@AAE_NXZ 0047cc20 f i libucrtd:output.obj
 0001:0007bc60       ?type_case_p@?$output_processor@_WV?$stream_output_adapter@_W@__crt_stdio_output@@V?$positional_parameter_base@_WV?$stream_output_adapter@_W@__crt_stdio_output@@@2@@__crt_stdio_output@@AAE_NXZ 0047cc60 f i libucrtd:output.obj
 0001:0007bca0       ?type_case_p@?$output_processor@_WV?$stream_output_adapter@_W@__crt_stdio_output@@V?$standard_base@_WV?$stream_output_adapter@_W@__crt_stdio_output@@@2@@__crt_stdio_output@@AAE_NXZ 0047cca0 f i libucrtd:output.obj
 0001:0007bce0       ?type_case_p@?$output_processor@_WV?$string_output_adapter@_W@__crt_stdio_output@@V?$format_validation_base@_WV?$string_output_adapter@_W@__crt_stdio_output@@@2@@__crt_stdio_output@@AAE_NXZ 0047cce0 f i libucrtd:output.obj
 0001:0007bd20       ?type_case_p@?$output_processor@_WV?$string_output_adapter@_W@__crt_stdio_output@@V?$positional_parameter_base@_WV?$string_output_adapter@_W@__crt_stdio_output@@@2@@__crt_stdio_output@@AAE_NXZ 0047cd20 f i libucrtd:output.obj
 0001:0007bd60       ?type_case_p@?$output_processor@_WV?$string_output_adapter@_W@__crt_stdio_output@@V?$standard_base@_WV?$string_output_adapter@_W@__crt_stdio_output@@@2@@__crt_stdio_output@@AAE_NXZ 0047cd60 f i libucrtd:output.obj
 0001:0007bda0       ?type_case_s@?$output_processor@DV?$stream_output_adapter@D@__crt_stdio_output@@V?$format_validation_base@DV?$stream_output_adapter@D@__crt_stdio_output@@@2@@__crt_stdio_output@@AAE_NXZ 0047cda0 f i libucrtd:output.obj
 0001:0007bed0       ?type_case_s@?$output_processor@DV?$stream_output_adapter@D@__crt_stdio_output@@V?$positional_parameter_base@DV?$stream_output_adapter@D@__crt_stdio_output@@@2@@__crt_stdio_output@@AAE_NXZ 0047ced0 f i libucrtd:output.obj
 0001:0007c000       ?type_case_s@?$output_processor@DV?$stream_output_adapter@D@__crt_stdio_output@@V?$standard_base@DV?$stream_output_adapter@D@__crt_stdio_output@@@2@@__crt_stdio_output@@AAE_NXZ 0047d000 f i libucrtd:output.obj
 0001:0007c130       ?type_case_s@?$output_processor@DV?$string_output_adapter@D@__crt_stdio_output@@V?$format_validation_base@DV?$string_output_adapter@D@__crt_stdio_output@@@2@@__crt_stdio_output@@AAE_NXZ 0047d130 f i libucrtd:output.obj
 0001:0007c260       ?type_case_s@?$output_processor@DV?$string_output_adapter@D@__crt_stdio_output@@V?$positional_parameter_base@DV?$string_output_adapter@D@__crt_stdio_output@@@2@@__crt_stdio_output@@AAE_NXZ 0047d260 f i libucrtd:output.obj
 0001:0007c390       ?type_case_s@?$output_processor@DV?$string_output_adapter@D@__crt_stdio_output@@V?$standard_base@DV?$string_output_adapter@D@__crt_stdio_output@@@2@@__crt_stdio_output@@AAE_NXZ 0047d390 f i libucrtd:output.obj
 0001:0007c4c0       ?type_case_s@?$output_processor@_WV?$stream_output_adapter@_W@__crt_stdio_output@@V?$format_validation_base@_WV?$stream_output_adapter@_W@__crt_stdio_output@@@2@@__crt_stdio_output@@AAE_NXZ 0047d4c0 f i libucrtd:output.obj
 0001:0007c5f0       ?type_case_s@?$output_processor@_WV?$stream_output_adapter@_W@__crt_stdio_output@@V?$positional_parameter_base@_WV?$stream_output_adapter@_W@__crt_stdio_output@@@2@@__crt_stdio_output@@AAE_NXZ 0047d5f0 f i libucrtd:output.obj
 0001:0007c720       ?type_case_s@?$output_processor@_WV?$stream_output_adapter@_W@__crt_stdio_output@@V?$standard_base@_WV?$stream_output_adapter@_W@__crt_stdio_output@@@2@@__crt_stdio_output@@AAE_NXZ 0047d720 f i libucrtd:output.obj
 0001:0007c850       ?type_case_s@?$output_processor@_WV?$string_output_adapter@_W@__crt_stdio_output@@V?$format_validation_base@_WV?$string_output_adapter@_W@__crt_stdio_output@@@2@@__crt_stdio_output@@AAE_NXZ 0047d850 f i libucrtd:output.obj
 0001:0007c980       ?type_case_s@?$output_processor@_WV?$string_output_adapter@_W@__crt_stdio_output@@V?$positional_parameter_base@_WV?$string_output_adapter@_W@__crt_stdio_output@@@2@@__crt_stdio_output@@AAE_NXZ 0047d980 f i libucrtd:output.obj
 0001:0007cab0       ?type_case_s@?$output_processor@_WV?$string_output_adapter@_W@__crt_stdio_output@@V?$standard_base@_WV?$string_output_adapter@_W@__crt_stdio_output@@@2@@__crt_stdio_output@@AAE_NXZ 0047dab0 f i libucrtd:output.obj
 0001:0007cbe0       ?type_case_s_compute_narrow_string_length@?$output_processor@DV?$stream_output_adapter@D@__crt_stdio_output@@V?$format_validation_base@DV?$stream_output_adapter@D@__crt_stdio_output@@@2@@__crt_stdio_output@@ABEHHD@Z 0047dbe0 f i libucrtd:output.obj
 0001:0007cc10       ?type_case_s_compute_narrow_string_length@?$output_processor@DV?$stream_output_adapter@D@__crt_stdio_output@@V?$positional_parameter_base@DV?$stream_output_adapter@D@__crt_stdio_output@@@2@@__crt_stdio_output@@ABEHHD@Z 0047dc10 f i libucrtd:output.obj
 0001:0007cc40       ?type_case_s_compute_narrow_string_length@?$output_processor@DV?$stream_output_adapter@D@__crt_stdio_output@@V?$standard_base@DV?$stream_output_adapter@D@__crt_stdio_output@@@2@@__crt_stdio_output@@ABEHHD@Z 0047dc40 f i libucrtd:output.obj
 0001:0007cc70       ?type_case_s_compute_narrow_string_length@?$output_processor@DV?$string_output_adapter@D@__crt_stdio_output@@V?$format_validation_base@DV?$string_output_adapter@D@__crt_stdio_output@@@2@@__crt_stdio_output@@ABEHHD@Z 0047dc70 f i libucrtd:output.obj
 0001:0007cca0       ?type_case_s_compute_narrow_string_length@?$output_processor@DV?$string_output_adapter@D@__crt_stdio_output@@V?$positional_parameter_base@DV?$string_output_adapter@D@__crt_stdio_output@@@2@@__crt_stdio_output@@ABEHHD@Z 0047dca0 f i libucrtd:output.obj
 0001:0007ccd0       ?type_case_s_compute_narrow_string_length@?$output_processor@DV?$string_output_adapter@D@__crt_stdio_output@@V?$standard_base@DV?$string_output_adapter@D@__crt_stdio_output@@@2@@__crt_stdio_output@@ABEHHD@Z 0047dcd0 f i libucrtd:output.obj
 0001:0007cd00       ?type_case_s_compute_narrow_string_length@?$output_processor@_WV?$stream_output_adapter@_W@__crt_stdio_output@@V?$format_validation_base@_WV?$stream_output_adapter@_W@__crt_stdio_output@@@2@@__crt_stdio_output@@ABEHH_W@Z 0047dd00 f i libucrtd:output.obj
 0001:0007cd90       ?type_case_s_compute_narrow_string_length@?$output_processor@_WV?$stream_output_adapter@_W@__crt_stdio_output@@V?$positional_parameter_base@_WV?$stream_output_adapter@_W@__crt_stdio_output@@@2@@__crt_stdio_output@@ABEHH_W@Z 0047dd90 f i libucrtd:output.obj
 0001:0007ce20       ?type_case_s_compute_narrow_string_length@?$output_processor@_WV?$stream_output_adapter@_W@__crt_stdio_output@@V?$standard_base@_WV?$stream_output_adapter@_W@__crt_stdio_output@@@2@@__crt_stdio_output@@ABEHH_W@Z 0047de20 f i libucrtd:output.obj
 0001:0007ceb0       ?type_case_s_compute_narrow_string_length@?$output_processor@_WV?$string_output_adapter@_W@__crt_stdio_output@@V?$format_validation_base@_WV?$string_output_adapter@_W@__crt_stdio_output@@@2@@__crt_stdio_output@@ABEHH_W@Z 0047deb0 f i libucrtd:output.obj
 0001:0007cf40       ?type_case_s_compute_narrow_string_length@?$output_processor@_WV?$string_output_adapter@_W@__crt_stdio_output@@V?$positional_parameter_base@_WV?$string_output_adapter@_W@__crt_stdio_output@@@2@@__crt_stdio_output@@ABEHH_W@Z 0047df40 f i libucrtd:output.obj
 0001:0007cfd0       ?type_case_s_compute_narrow_string_length@?$output_processor@_WV?$string_output_adapter@_W@__crt_stdio_output@@V?$standard_base@_WV?$string_output_adapter@_W@__crt_stdio_output@@@2@@__crt_stdio_output@@ABEHH_W@Z 0047dfd0 f i libucrtd:output.obj
 0001:0007d060       ?type_case_u@?$output_processor@DV?$stream_output_adapter@D@__crt_stdio_output@@V?$format_validation_base@DV?$stream_output_adapter@D@__crt_stdio_output@@@2@@__crt_stdio_output@@AAE_NXZ 0047e060 f i libucrtd:output.obj
 0001:0007d080       ?type_case_u@?$output_processor@DV?$stream_output_adapter@D@__crt_stdio_output@@V?$positional_parameter_base@DV?$stream_output_adapter@D@__crt_stdio_output@@@2@@__crt_stdio_output@@AAE_NXZ 0047e080 f i libucrtd:output.obj
 0001:0007d0a0       ?type_case_u@?$output_processor@DV?$stream_output_adapter@D@__crt_stdio_output@@V?$standard_base@DV?$stream_output_adapter@D@__crt_stdio_output@@@2@@__crt_stdio_output@@AAE_NXZ 0047e0a0 f i libucrtd:output.obj
 0001:0007d0c0       ?type_case_u@?$output_processor@DV?$string_output_adapter@D@__crt_stdio_output@@V?$format_validation_base@DV?$string_output_adapter@D@__crt_stdio_output@@@2@@__crt_stdio_output@@AAE_NXZ 0047e0c0 f i libucrtd:output.obj
 0001:0007d0e0       ?type_case_u@?$output_processor@DV?$string_output_adapter@D@__crt_stdio_output@@V?$positional_parameter_base@DV?$string_output_adapter@D@__crt_stdio_output@@@2@@__crt_stdio_output@@AAE_NXZ 0047e0e0 f i libucrtd:output.obj
 0001:0007d100       ?type_case_u@?$output_processor@DV?$string_output_adapter@D@__crt_stdio_output@@V?$standard_base@DV?$string_output_adapter@D@__crt_stdio_output@@@2@@__crt_stdio_output@@AAE_NXZ 0047e100 f i libucrtd:output.obj
 0001:0007d120       ?type_case_u@?$output_processor@_WV?$stream_output_adapter@_W@__crt_stdio_output@@V?$format_validation_base@_WV?$stream_output_adapter@_W@__crt_stdio_output@@@2@@__crt_stdio_output@@AAE_NXZ 0047e120 f i libucrtd:output.obj
 0001:0007d140       ?type_case_u@?$output_processor@_WV?$stream_output_adapter@_W@__crt_stdio_output@@V?$positional_parameter_base@_WV?$stream_output_adapter@_W@__crt_stdio_output@@@2@@__crt_stdio_output@@AAE_NXZ 0047e140 f i libucrtd:output.obj
 0001:0007d160       ?type_case_u@?$output_processor@_WV?$stream_output_adapter@_W@__crt_stdio_output@@V?$standard_base@_WV?$stream_output_adapter@_W@__crt_stdio_output@@@2@@__crt_stdio_output@@AAE_NXZ 0047e160 f i libucrtd:output.obj
 0001:0007d180       ?type_case_u@?$output_processor@_WV?$string_output_adapter@_W@__crt_stdio_output@@V?$format_validation_base@_WV?$string_output_adapter@_W@__crt_stdio_output@@@2@@__crt_stdio_output@@AAE_NXZ 0047e180 f i libucrtd:output.obj
 0001:0007d1a0       ?type_case_u@?$output_processor@_WV?$string_output_adapter@_W@__crt_stdio_output@@V?$positional_parameter_base@_WV?$string_output_adapter@_W@__crt_stdio_output@@@2@@__crt_stdio_output@@AAE_NXZ 0047e1a0 f i libucrtd:output.obj
 0001:0007d1c0       ?type_case_u@?$output_processor@_WV?$string_output_adapter@_W@__crt_stdio_output@@V?$standard_base@_WV?$string_output_adapter@_W@__crt_stdio_output@@@2@@__crt_stdio_output@@AAE_NXZ 0047e1c0 f i libucrtd:output.obj
 0001:0007d1e0       ?type_case_x@?$output_processor@DV?$stream_output_adapter@D@__crt_stdio_output@@V?$format_validation_base@DV?$stream_output_adapter@D@__crt_stdio_output@@@2@@__crt_stdio_output@@AAE_NXZ 0047e1e0 f i libucrtd:output.obj
 0001:0007d200       ?type_case_x@?$output_processor@DV?$stream_output_adapter@D@__crt_stdio_output@@V?$positional_parameter_base@DV?$stream_output_adapter@D@__crt_stdio_output@@@2@@__crt_stdio_output@@AAE_NXZ 0047e200 f i libucrtd:output.obj
 0001:0007d220       ?type_case_x@?$output_processor@DV?$stream_output_adapter@D@__crt_stdio_output@@V?$standard_base@DV?$stream_output_adapter@D@__crt_stdio_output@@@2@@__crt_stdio_output@@AAE_NXZ 0047e220 f i libucrtd:output.obj
 0001:0007d240       ?type_case_x@?$output_processor@DV?$string_output_adapter@D@__crt_stdio_output@@V?$format_validation_base@DV?$string_output_adapter@D@__crt_stdio_output@@@2@@__crt_stdio_output@@AAE_NXZ 0047e240 f i libucrtd:output.obj
 0001:0007d260       ?type_case_x@?$output_processor@DV?$string_output_adapter@D@__crt_stdio_output@@V?$positional_parameter_base@DV?$string_output_adapter@D@__crt_stdio_output@@@2@@__crt_stdio_output@@AAE_NXZ 0047e260 f i libucrtd:output.obj
 0001:0007d280       ?type_case_x@?$output_processor@DV?$string_output_adapter@D@__crt_stdio_output@@V?$standard_base@DV?$string_output_adapter@D@__crt_stdio_output@@@2@@__crt_stdio_output@@AAE_NXZ 0047e280 f i libucrtd:output.obj
 0001:0007d2a0       ?type_case_x@?$output_processor@_WV?$stream_output_adapter@_W@__crt_stdio_output@@V?$format_validation_base@_WV?$stream_output_adapter@_W@__crt_stdio_output@@@2@@__crt_stdio_output@@AAE_NXZ 0047e2a0 f i libucrtd:output.obj
 0001:0007d2c0       ?type_case_x@?$output_processor@_WV?$stream_output_adapter@_W@__crt_stdio_output@@V?$positional_parameter_base@_WV?$stream_output_adapter@_W@__crt_stdio_output@@@2@@__crt_stdio_output@@AAE_NXZ 0047e2c0 f i libucrtd:output.obj
 0001:0007d2e0       ?type_case_x@?$output_processor@_WV?$stream_output_adapter@_W@__crt_stdio_output@@V?$standard_base@_WV?$stream_output_adapter@_W@__crt_stdio_output@@@2@@__crt_stdio_output@@AAE_NXZ 0047e2e0 f i libucrtd:output.obj
 0001:0007d300       ?type_case_x@?$output_processor@_WV?$string_output_adapter@_W@__crt_stdio_output@@V?$format_validation_base@_WV?$string_output_adapter@_W@__crt_stdio_output@@@2@@__crt_stdio_output@@AAE_NXZ 0047e300 f i libucrtd:output.obj
 0001:0007d320       ?type_case_x@?$output_processor@_WV?$string_output_adapter@_W@__crt_stdio_output@@V?$positional_parameter_base@_WV?$string_output_adapter@_W@__crt_stdio_output@@@2@@__crt_stdio_output@@AAE_NXZ 0047e320 f i libucrtd:output.obj
 0001:0007d340       ?type_case_x@?$output_processor@_WV?$string_output_adapter@_W@__crt_stdio_output@@V?$standard_base@_WV?$string_output_adapter@_W@__crt_stdio_output@@@2@@__crt_stdio_output@@AAE_NXZ 0047e340 f i libucrtd:output.obj
 0001:0007d360       ?unset_flag@?$output_processor@DV?$stream_output_adapter@D@__crt_stdio_output@@V?$format_validation_base@DV?$stream_output_adapter@D@__crt_stdio_output@@@2@@__crt_stdio_output@@AAEXI@Z 0047e360 f i libucrtd:output.obj
 0001:0007d390       ?unset_flag@?$output_processor@DV?$stream_output_adapter@D@__crt_stdio_output@@V?$positional_parameter_base@DV?$stream_output_adapter@D@__crt_stdio_output@@@2@@__crt_stdio_output@@AAEXI@Z 0047e390 f i libucrtd:output.obj
 0001:0007d3c0       ?unset_flag@?$output_processor@DV?$stream_output_adapter@D@__crt_stdio_output@@V?$standard_base@DV?$stream_output_adapter@D@__crt_stdio_output@@@2@@__crt_stdio_output@@AAEXI@Z 0047e3c0 f i libucrtd:output.obj
 0001:0007d3f0       ?unset_flag@?$output_processor@DV?$string_output_adapter@D@__crt_stdio_output@@V?$format_validation_base@DV?$string_output_adapter@D@__crt_stdio_output@@@2@@__crt_stdio_output@@AAEXI@Z 0047e3f0 f i libucrtd:output.obj
 0001:0007d420       ?unset_flag@?$output_processor@DV?$string_output_adapter@D@__crt_stdio_output@@V?$positional_parameter_base@DV?$string_output_adapter@D@__crt_stdio_output@@@2@@__crt_stdio_output@@AAEXI@Z 0047e420 f i libucrtd:output.obj
 0001:0007d450       ?unset_flag@?$output_processor@DV?$string_output_adapter@D@__crt_stdio_output@@V?$standard_base@DV?$string_output_adapter@D@__crt_stdio_output@@@2@@__crt_stdio_output@@AAEXI@Z 0047e450 f i libucrtd:output.obj
 0001:0007d480       ?unset_flag@?$output_processor@_WV?$stream_output_adapter@_W@__crt_stdio_output@@V?$format_validation_base@_WV?$stream_output_adapter@_W@__crt_stdio_output@@@2@@__crt_stdio_output@@AAEXI@Z 0047e480 f i libucrtd:output.obj
 0001:0007d4b0       ?unset_flag@?$output_processor@_WV?$stream_output_adapter@_W@__crt_stdio_output@@V?$positional_parameter_base@_WV?$stream_output_adapter@_W@__crt_stdio_output@@@2@@__crt_stdio_output@@AAEXI@Z 0047e4b0 f i libucrtd:output.obj
 0001:0007d4e0       ?unset_flag@?$output_processor@_WV?$stream_output_adapter@_W@__crt_stdio_output@@V?$standard_base@_WV?$stream_output_adapter@_W@__crt_stdio_output@@@2@@__crt_stdio_output@@AAEXI@Z 0047e4e0 f i libucrtd:output.obj
 0001:0007d510       ?unset_flag@?$output_processor@_WV?$string_output_adapter@_W@__crt_stdio_output@@V?$format_validation_base@_WV?$string_output_adapter@_W@__crt_stdio_output@@@2@@__crt_stdio_output@@AAEXI@Z 0047e510 f i libucrtd:output.obj
 0001:0007d540       ?unset_flag@?$output_processor@_WV?$string_output_adapter@_W@__crt_stdio_output@@V?$positional_parameter_base@_WV?$string_output_adapter@_W@__crt_stdio_output@@@2@@__crt_stdio_output@@AAEXI@Z 0047e540 f i libucrtd:output.obj
 0001:0007d570       ?unset_flag@?$output_processor@_WV?$string_output_adapter@_W@__crt_stdio_output@@V?$standard_base@_WV?$string_output_adapter@_W@__crt_stdio_output@@@2@@__crt_stdio_output@@AAEXI@Z 0047e570 f i libucrtd:output.obj
 0001:0007d5a0       ?update_field_width@?$positional_parameter_base@DV?$stream_output_adapter@D@__crt_stdio_output@@@__crt_stdio_output@@IAE_NXZ 0047e5a0 f i libucrtd:output.obj
 0001:0007d780       ?update_field_width@?$positional_parameter_base@DV?$string_output_adapter@D@__crt_stdio_output@@@__crt_stdio_output@@IAE_NXZ 0047e780 f i libucrtd:output.obj
 0001:0007d960       ?update_field_width@?$positional_parameter_base@_WV?$stream_output_adapter@_W@__crt_stdio_output@@@__crt_stdio_output@@IAE_NXZ 0047e960 f i libucrtd:output.obj
 0001:0007db40       ?update_field_width@?$positional_parameter_base@_WV?$string_output_adapter@_W@__crt_stdio_output@@@__crt_stdio_output@@IAE_NXZ 0047eb40 f i libucrtd:output.obj
 0001:0007dd20       ?update_field_width@?$standard_base@DV?$stream_output_adapter@D@__crt_stdio_output@@@__crt_stdio_output@@IAE_NXZ 0047ed20 f i libucrtd:output.obj
 0001:0007dd50       ?update_field_width@?$standard_base@DV?$string_output_adapter@D@__crt_stdio_output@@@__crt_stdio_output@@IAE_NXZ 0047ed50 f i libucrtd:output.obj
 0001:0007dd80       ?update_field_width@?$standard_base@_WV?$stream_output_adapter@_W@__crt_stdio_output@@@__crt_stdio_output@@IAE_NXZ 0047ed80 f i libucrtd:output.obj
 0001:0007ddb0       ?update_field_width@?$standard_base@_WV?$string_output_adapter@_W@__crt_stdio_output@@@__crt_stdio_output@@IAE_NXZ 0047edb0 f i libucrtd:output.obj
 0001:0007dde0       ?update_precision@?$positional_parameter_base@DV?$stream_output_adapter@D@__crt_stdio_output@@@__crt_stdio_output@@IAE_NXZ 0047ede0 f i libucrtd:output.obj
 0001:0007dfc0       ?update_precision@?$positional_parameter_base@DV?$string_output_adapter@D@__crt_stdio_output@@@__crt_stdio_output@@IAE_NXZ 0047efc0 f i libucrtd:output.obj
 0001:0007e1a0       ?update_precision@?$positional_parameter_base@_WV?$stream_output_adapter@_W@__crt_stdio_output@@@__crt_stdio_output@@IAE_NXZ 0047f1a0 f i libucrtd:output.obj
 0001:0007e380       ?update_precision@?$positional_parameter_base@_WV?$string_output_adapter@_W@__crt_stdio_output@@@__crt_stdio_output@@IAE_NXZ 0047f380 f i libucrtd:output.obj
 0001:0007e560       ?update_precision@?$standard_base@DV?$stream_output_adapter@D@__crt_stdio_output@@@__crt_stdio_output@@IAE_NXZ 0047f560 f i libucrtd:output.obj
 0001:0007e590       ?update_precision@?$standard_base@DV?$string_output_adapter@D@__crt_stdio_output@@@__crt_stdio_output@@IAE_NXZ 0047f590 f i libucrtd:output.obj
 0001:0007e5c0       ?update_precision@?$standard_base@_WV?$stream_output_adapter@_W@__crt_stdio_output@@@__crt_stdio_output@@IAE_NXZ 0047f5c0 f i libucrtd:output.obj
 0001:0007e5f0       ?update_precision@?$standard_base@_WV?$string_output_adapter@_W@__crt_stdio_output@@@__crt_stdio_output@@IAE_NXZ 0047f5f0 f i libucrtd:output.obj
 0001:0007e620       ?valid@__crt_stdio_stream@@QBE_NXZ 0047f620 f i libucrtd:output.obj
 0001:0007e660       ?validate@?$stream_output_adapter@D@__crt_stdio_output@@QBE_NXZ 0047f660 f i libucrtd:output.obj
 0001:0007e730       ?validate@?$stream_output_adapter@_W@__crt_stdio_output@@QBE_NXZ 0047f730 f i libucrtd:output.obj
 0001:0007e800       ?validate@?$string_output_adapter@D@__crt_stdio_output@@QBE_NXZ 0047f800 f i libucrtd:output.obj
 0001:0007e8c0       ?validate@?$string_output_adapter@_W@__crt_stdio_output@@QBE_NXZ 0047f8c0 f i libucrtd:output.obj
 0001:0007e980       ?validate_and_store_parameter_data@?$positional_parameter_base@DV?$stream_output_adapter@D@__crt_stdio_output@@@__crt_stdio_output@@AAE_NAAUparameter_data@12@W4parameter_type@12@DW4length_modifier@2@@Z 0047f980 f i libucrtd:output.obj
 0001:0007ea90       ?validate_and_store_parameter_data@?$positional_parameter_base@DV?$string_output_adapter@D@__crt_stdio_output@@@__crt_stdio_output@@AAE_NAAUparameter_data@12@W4parameter_type@12@DW4length_modifier@2@@Z 0047fa90 f i libucrtd:output.obj
 0001:0007eba0       ?validate_and_store_parameter_data@?$positional_parameter_base@_WV?$stream_output_adapter@_W@__crt_stdio_output@@@__crt_stdio_output@@AAE_NAAUparameter_data@12@W4parameter_type@12@_WW4length_modifier@2@@Z 0047fba0 f i libucrtd:output.obj
 0001:0007ecb0       ?validate_and_store_parameter_data@?$positional_parameter_base@_WV?$string_output_adapter@_W@__crt_stdio_output@@@__crt_stdio_output@@AAE_NAAUparameter_data@12@W4parameter_type@12@_WW4length_modifier@2@@Z 0047fcb0 f i libucrtd:output.obj
 0001:0007edc0       ?validate_and_update_state_at_beginning_of_format_character@?$positional_parameter_base@DV?$stream_output_adapter@D@__crt_stdio_output@@@__crt_stdio_output@@IAE_NXZ 0047fdc0 f i libucrtd:output.obj
 0001:0007f070       ?validate_and_update_state_at_beginning_of_format_character@?$positional_parameter_base@DV?$string_output_adapter@D@__crt_stdio_output@@@__crt_stdio_output@@IAE_NXZ 00480070 f i libucrtd:output.obj
 0001:0007f320       ?validate_and_update_state_at_beginning_of_format_character@?$positional_parameter_base@_WV?$stream_output_adapter@_W@__crt_stdio_output@@@__crt_stdio_output@@IAE_NXZ 00480320 f i libucrtd:output.obj
 0001:0007f5d0       ?validate_and_update_state_at_beginning_of_format_character@?$positional_parameter_base@_WV?$string_output_adapter@_W@__crt_stdio_output@@@__crt_stdio_output@@IAE_NXZ 004805d0 f i libucrtd:output.obj
 0001:0007f880       ?validate_and_update_state_at_beginning_of_format_character@?$standard_base@DV?$stream_output_adapter@D@__crt_stdio_output@@@__crt_stdio_output@@IAE_NXZ 00480880 f i libucrtd:output.obj
 0001:0007f8a0       ?validate_and_update_state_at_beginning_of_format_character@?$standard_base@DV?$string_output_adapter@D@__crt_stdio_output@@@__crt_stdio_output@@IAE_NXZ 004808a0 f i libucrtd:output.obj
 0001:0007f8c0       ?validate_and_update_state_at_beginning_of_format_character@?$standard_base@_WV?$stream_output_adapter@_W@__crt_stdio_output@@@__crt_stdio_output@@IAE_NXZ 004808c0 f i libucrtd:output.obj
 0001:0007f8e0       ?validate_and_update_state_at_beginning_of_format_character@?$standard_base@_WV?$string_output_adapter@_W@__crt_stdio_output@@@__crt_stdio_output@@IAE_NXZ 004808e0 f i libucrtd:output.obj
 0001:0007f900       ?validate_and_update_state_at_end_of_format_string@?$format_validation_base@DV?$stream_output_adapter@D@__crt_stdio_output@@@__crt_stdio_output@@IBE_NXZ 00480900 f i libucrtd:output.obj
 0001:0007f9c0       ?validate_and_update_state_at_end_of_format_string@?$format_validation_base@DV?$string_output_adapter@D@__crt_stdio_output@@@__crt_stdio_output@@IBE_NXZ 004809c0 f i libucrtd:output.obj
 0001:0007fa80       ?validate_and_update_state_at_end_of_format_string@?$format_validation_base@_WV?$stream_output_adapter@_W@__crt_stdio_output@@@__crt_stdio_output@@IBE_NXZ 00480a80 f i libucrtd:output.obj
 0001:0007fb40       ?validate_and_update_state_at_end_of_format_string@?$format_validation_base@_WV?$string_output_adapter@_W@__crt_stdio_output@@@__crt_stdio_output@@IBE_NXZ 00480b40 f i libucrtd:output.obj
 0001:0007fc00       ?validate_and_update_state_at_end_of_format_string@?$positional_parameter_base@DV?$stream_output_adapter@D@__crt_stdio_output@@@__crt_stdio_output@@IAE_NXZ 00480c00 f i libucrtd:output.obj
 0001:0007fe00       ?validate_and_update_state_at_end_of_format_string@?$positional_parameter_base@DV?$string_output_adapter@D@__crt_stdio_output@@@__crt_stdio_output@@IAE_NXZ 00480e00 f i libucrtd:output.obj
 0001:00080000       ?validate_and_update_state_at_end_of_format_string@?$positional_parameter_base@_WV?$stream_output_adapter@_W@__crt_stdio_output@@@__crt_stdio_output@@IAE_NXZ 00481000 f i libucrtd:output.obj
 0001:00080200       ?validate_and_update_state_at_end_of_format_string@?$positional_parameter_base@_WV?$string_output_adapter@_W@__crt_stdio_output@@@__crt_stdio_output@@IAE_NXZ 00481200 f i libucrtd:output.obj
 0001:00080400       ?validate_and_update_state_at_end_of_format_string@?$standard_base@DV?$stream_output_adapter@D@__crt_stdio_output@@@__crt_stdio_output@@IBE_NXZ 00481400 f i libucrtd:output.obj
 0001:00080420       ?validate_and_update_state_at_end_of_format_string@?$standard_base@DV?$string_output_adapter@D@__crt_stdio_output@@@__crt_stdio_output@@IBE_NXZ 00481420 f i libucrtd:output.obj
 0001:00080440       ?validate_and_update_state_at_end_of_format_string@?$standard_base@_WV?$stream_output_adapter@_W@__crt_stdio_output@@@__crt_stdio_output@@IBE_NXZ 00481440 f i libucrtd:output.obj
 0001:00080460       ?validate_and_update_state_at_end_of_format_string@?$standard_base@_WV?$string_output_adapter@_W@__crt_stdio_output@@@__crt_stdio_output@@IBE_NXZ 00481460 f i libucrtd:output.obj
 0001:00080480       ?validate_state_for_type_case_a@?$positional_parameter_base@DV?$stream_output_adapter@D@__crt_stdio_output@@@__crt_stdio_output@@IAE_NXZ 00481480 f i libucrtd:output.obj
 0001:000805b0       ?validate_state_for_type_case_a@?$positional_parameter_base@DV?$string_output_adapter@D@__crt_stdio_output@@@__crt_stdio_output@@IAE_NXZ 004815b0 f i libucrtd:output.obj
 0001:000806e0       ?validate_state_for_type_case_a@?$positional_parameter_base@_WV?$stream_output_adapter@_W@__crt_stdio_output@@@__crt_stdio_output@@IAE_NXZ 004816e0 f i libucrtd:output.obj
 0001:00080810       ?validate_state_for_type_case_a@?$positional_parameter_base@_WV?$string_output_adapter@_W@__crt_stdio_output@@@__crt_stdio_output@@IAE_NXZ 00481810 f i libucrtd:output.obj
 0001:00080940       ?validate_state_for_type_case_a@?$standard_base@DV?$stream_output_adapter@D@__crt_stdio_output@@@__crt_stdio_output@@IBE_NXZ 00481940 f i libucrtd:output.obj
 0001:00080960       ?validate_state_for_type_case_a@?$standard_base@DV?$string_output_adapter@D@__crt_stdio_output@@@__crt_stdio_output@@IBE_NXZ 00481960 f i libucrtd:output.obj
 0001:00080980       ?validate_state_for_type_case_a@?$standard_base@_WV?$stream_output_adapter@_W@__crt_stdio_output@@@__crt_stdio_output@@IBE_NXZ 00481980 f i libucrtd:output.obj
 0001:000809a0       ?validate_state_for_type_case_a@?$standard_base@_WV?$string_output_adapter@_W@__crt_stdio_output@@@__crt_stdio_output@@IBE_NXZ 004819a0 f i libucrtd:output.obj
 0001:000809c0       ?validate_stream_is_ansi_if_required@?$__acrt_stdio_char_traits@D@@SA_NQAU_iobuf@@@Z 004819c0 f i libucrtd:output.obj
 0001:00080b40       ?validate_stream_is_ansi_if_required@?$__acrt_stdio_char_traits@_W@@SA_NQAU_iobuf@@@Z 00481b40 f i libucrtd:output.obj
 0001:00080b50       ?wide_null_string@?$output_processor@DV?$stream_output_adapter@D@__crt_stdio_output@@V?$format_validation_base@DV?$stream_output_adapter@D@__crt_stdio_output@@@2@@__crt_stdio_output@@CAPA_WXZ 00481b50 f i libucrtd:output.obj
 0001:00080b60       ?wide_null_string@?$output_processor@DV?$stream_output_adapter@D@__crt_stdio_output@@V?$positional_parameter_base@DV?$stream_output_adapter@D@__crt_stdio_output@@@2@@__crt_stdio_output@@CAPA_WXZ 00481b60 f i libucrtd:output.obj
 0001:00080b70       ?wide_null_string@?$output_processor@DV?$stream_output_adapter@D@__crt_stdio_output@@V?$standard_base@DV?$stream_output_adapter@D@__crt_stdio_output@@@2@@__crt_stdio_output@@CAPA_WXZ 00481b70 f i libucrtd:output.obj
 0001:00080b80       ?wide_null_string@?$output_processor@DV?$string_output_adapter@D@__crt_stdio_output@@V?$format_validation_base@DV?$string_output_adapter@D@__crt_stdio_output@@@2@@__crt_stdio_output@@CAPA_WXZ 00481b80 f i libucrtd:output.obj
 0001:00080b90       ?wide_null_string@?$output_processor@DV?$string_output_adapter@D@__crt_stdio_output@@V?$positional_parameter_base@DV?$string_output_adapter@D@__crt_stdio_output@@@2@@__crt_stdio_output@@CAPA_WXZ 00481b90 f i libucrtd:output.obj
 0001:00080ba0       ?wide_null_string@?$output_processor@DV?$string_output_adapter@D@__crt_stdio_output@@V?$standard_base@DV?$string_output_adapter@D@__crt_stdio_output@@@2@@__crt_stdio_output@@CAPA_WXZ 00481ba0 f i libucrtd:output.obj
 0001:00080bb0       ?wide_null_string@?$output_processor@_WV?$stream_output_adapter@_W@__crt_stdio_output@@V?$format_validation_base@_WV?$stream_output_adapter@_W@__crt_stdio_output@@@2@@__crt_stdio_output@@CAPA_WXZ 00481bb0 f i libucrtd:output.obj
 0001:00080bc0       ?wide_null_string@?$output_processor@_WV?$stream_output_adapter@_W@__crt_stdio_output@@V?$positional_parameter_base@_WV?$stream_output_adapter@_W@__crt_stdio_output@@@2@@__crt_stdio_output@@CAPA_WXZ 00481bc0 f i libucrtd:output.obj
 0001:00080bd0       ?wide_null_string@?$output_processor@_WV?$stream_output_adapter@_W@__crt_stdio_output@@V?$standard_base@_WV?$stream_output_adapter@_W@__crt_stdio_output@@@2@@__crt_stdio_output@@CAPA_WXZ 00481bd0 f i libucrtd:output.obj
 0001:00080be0       ?wide_null_string@?$output_processor@_WV?$string_output_adapter@_W@__crt_stdio_output@@V?$format_validation_base@_WV?$string_output_adapter@_W@__crt_stdio_output@@@2@@__crt_stdio_output@@CAPA_WXZ 00481be0 f i libucrtd:output.obj
 0001:00080bf0       ?wide_null_string@?$output_processor@_WV?$string_output_adapter@_W@__crt_stdio_output@@V?$positional_parameter_base@_WV?$string_output_adapter@_W@__crt_stdio_output@@@2@@__crt_stdio_output@@CAPA_WXZ 00481bf0 f i libucrtd:output.obj
 0001:00080c00       ?wide_null_string@?$output_processor@_WV?$string_output_adapter@_W@__crt_stdio_output@@V?$standard_base@_WV?$string_output_adapter@_W@__crt_stdio_output@@@2@@__crt_stdio_output@@CAPA_WXZ 00481c00 f i libucrtd:output.obj
 0001:00080c10       ?write_character@?$output_adapter_common@DV?$stream_output_adapter@D@__crt_stdio_output@@@__crt_stdio_output@@QBEXDQAH@Z 00481c10 f i libucrtd:output.obj
 0001:00080c60       ?write_character@?$output_adapter_common@_WV?$stream_output_adapter@_W@__crt_stdio_output@@@__crt_stdio_output@@QBEX_WQAH@Z 00481c60 f i libucrtd:output.obj
 0001:00080cb0       ?write_character@?$string_output_adapter@D@__crt_stdio_output@@QBE_NDQAH@Z 00481cb0 f i libucrtd:output.obj
 0001:00080d70       ?write_character@?$string_output_adapter@_W@__crt_stdio_output@@QBE_N_WQAH@Z 00481d70 f i libucrtd:output.obj
 0001:00080e30       ?write_character_without_count_update@?$stream_output_adapter@D@__crt_stdio_output@@QBE_ND@Z 00481e30 f i libucrtd:output.obj
 0001:00080eb0       ?write_character_without_count_update@?$stream_output_adapter@_W@__crt_stdio_output@@QBE_N_W@Z 00481eb0 f i libucrtd:output.obj
 0001:00080f40       ?write_stored_string_tchar@?$output_processor@DV?$stream_output_adapter@D@__crt_stdio_output@@V?$format_validation_base@DV?$stream_output_adapter@D@__crt_stdio_output@@@2@@__crt_stdio_output@@AAE_ND@Z 00481f40 f i libucrtd:output.obj
 0001:00081090       ?write_stored_string_tchar@?$output_processor@DV?$stream_output_adapter@D@__crt_stdio_output@@V?$positional_parameter_base@DV?$stream_output_adapter@D@__crt_stdio_output@@@2@@__crt_stdio_output@@AAE_ND@Z 00482090 f i libucrtd:output.obj
 0001:000811e0       ?write_stored_string_tchar@?$output_processor@DV?$stream_output_adapter@D@__crt_stdio_output@@V?$standard_base@DV?$stream_output_adapter@D@__crt_stdio_output@@@2@@__crt_stdio_output@@AAE_ND@Z 004821e0 f i libucrtd:output.obj
 0001:00081330       ?write_stored_string_tchar@?$output_processor@DV?$string_output_adapter@D@__crt_stdio_output@@V?$format_validation_base@DV?$string_output_adapter@D@__crt_stdio_output@@@2@@__crt_stdio_output@@AAE_ND@Z 00482330 f i libucrtd:output.obj
 0001:00081480       ?write_stored_string_tchar@?$output_processor@DV?$string_output_adapter@D@__crt_stdio_output@@V?$positional_parameter_base@DV?$string_output_adapter@D@__crt_stdio_output@@@2@@__crt_stdio_output@@AAE_ND@Z 00482480 f i libucrtd:output.obj
 0001:000815d0       ?write_stored_string_tchar@?$output_processor@DV?$string_output_adapter@D@__crt_stdio_output@@V?$standard_base@DV?$string_output_adapter@D@__crt_stdio_output@@@2@@__crt_stdio_output@@AAE_ND@Z 004825d0 f i libucrtd:output.obj
 0001:00081720       ?write_stored_string_tchar@?$output_processor@_WV?$stream_output_adapter@_W@__crt_stdio_output@@V?$format_validation_base@_WV?$stream_output_adapter@_W@__crt_stdio_output@@@2@@__crt_stdio_output@@AAE_N_W@Z 00482720 f i libucrtd:output.obj
 0001:00081840       ?write_stored_string_tchar@?$output_processor@_WV?$stream_output_adapter@_W@__crt_stdio_output@@V?$positional_parameter_base@_WV?$stream_output_adapter@_W@__crt_stdio_output@@@2@@__crt_stdio_output@@AAE_N_W@Z 00482840 f i libucrtd:output.obj
 0001:00081960       ?write_stored_string_tchar@?$output_processor@_WV?$stream_output_adapter@_W@__crt_stdio_output@@V?$standard_base@_WV?$stream_output_adapter@_W@__crt_stdio_output@@@2@@__crt_stdio_output@@AAE_N_W@Z 00482960 f i libucrtd:output.obj
 0001:00081a80       ?write_stored_string_tchar@?$output_processor@_WV?$string_output_adapter@_W@__crt_stdio_output@@V?$format_validation_base@_WV?$string_output_adapter@_W@__crt_stdio_output@@@2@@__crt_stdio_output@@AAE_N_W@Z 00482a80 f i libucrtd:output.obj
 0001:00081ba0       ?write_stored_string_tchar@?$output_processor@_WV?$string_output_adapter@_W@__crt_stdio_output@@V?$positional_parameter_base@_WV?$string_output_adapter@_W@__crt_stdio_output@@@2@@__crt_stdio_output@@AAE_N_W@Z 00482ba0 f i libucrtd:output.obj
 0001:00081cc0       ?write_stored_string_tchar@?$output_processor@_WV?$string_output_adapter@_W@__crt_stdio_output@@V?$standard_base@_WV?$string_output_adapter@_W@__crt_stdio_output@@@2@@__crt_stdio_output@@AAE_N_W@Z 00482cc0 f i libucrtd:output.obj
 0001:00081de0       ?write_string@?$stream_output_adapter@D@__crt_stdio_output@@QBEXQBDHQAHAAV__crt_deferred_errno_cache@@@Z 00482de0 f i libucrtd:output.obj
 0001:00081e50       ?write_string@?$stream_output_adapter@_W@__crt_stdio_output@@QBEXQB_WHQAHAAV__crt_deferred_errno_cache@@@Z 00482e50 f i libucrtd:output.obj
 0001:00081ec0       ?write_string@?$string_output_adapter@D@__crt_stdio_output@@QBEXQBDHQAHAAV__crt_deferred_errno_cache@@@Z 00482ec0 f i libucrtd:output.obj
 0001:00082000       ?write_string@?$string_output_adapter@_W@__crt_stdio_output@@QBEXQB_WHQAHAAV__crt_deferred_errno_cache@@@Z 00483000 f i libucrtd:output.obj
 0001:00082150       ?write_string_impl@?$output_adapter_common@DV?$stream_output_adapter@D@__crt_stdio_output@@@__crt_stdio_output@@IBEXQBDHQAHAAV__crt_deferred_errno_cache@@@Z 00483150 f i libucrtd:output.obj
 0001:00082210       ?write_string_impl@?$output_adapter_common@_WV?$stream_output_adapter@_W@__crt_stdio_output@@@__crt_stdio_output@@IBEXQB_WHQAHAAV__crt_deferred_errno_cache@@@Z 00483210 f i libucrtd:output.obj
 0001:000822e0       ___acrt_isleadbyte_l_noupdate 004832e0 f i libucrtd:output.obj
 0001:00082310       ___acrt_locale_changed     00483310 f i libucrtd:output.obj
 0001:00082340       ___stdio_common_vfprintf   00483340 f   libucrtd:output.obj
 0001:00082370       ___stdio_common_vfprintf_p 00483370 f   libucrtd:output.obj
 0001:000823a0       ___stdio_common_vfprintf_s 004833a0 f   libucrtd:output.obj
 0001:000823d0       ___stdio_common_vfwprintf  004833d0 f   libucrtd:output.obj
 0001:00082400       ___stdio_common_vfwprintf_p 00483400 f   libucrtd:output.obj
 0001:00082430       ___stdio_common_vfwprintf_s 00483430 f   libucrtd:output.obj
 0001:00082460       ___stdio_common_vsnprintf_s 00483460 f   libucrtd:output.obj
 0001:000824a0       ___stdio_common_vsnwprintf_s 004834a0 f   libucrtd:output.obj
 0001:000824e0       ___stdio_common_vsprintf   004834e0 f   libucrtd:output.obj
 0001:00082520       ___stdio_common_vsprintf_p 00483520 f   libucrtd:output.obj
 0001:00082560       ___stdio_common_vsprintf_s 00483560 f   libucrtd:output.obj
 0001:000825a0       ___stdio_common_vswprintf  004835a0 f   libucrtd:output.obj
 0001:000825e0       ___stdio_common_vswprintf_p 004835e0 f   libucrtd:output.obj
 0001:00082620       ___stdio_common_vswprintf_s 00483620 f   libucrtd:output.obj
 0001:00082660       _free                      00483660 f   libucrtd:free.obj
 0001:00082690       _malloc                    00483690 f   libucrtd:malloc.obj
 0001:000826b0       ?is_in_use@__crt_stdio_stream@@QBE_NXZ 004836b0 f i libucrtd:fclose.obj
 0001:000826f0       __fclose_nolock            004836f0 f   libucrtd:fclose.obj
 0001:00082880       _fclose                    00483880 f   libucrtd:fclose.obj
 0001:000831c0       ??$open_file@ABQBDABQBDABHPAU_iobuf@@@?$__crt_char_traits@D@@SAPAU_iobuf@@ABQBD0ABH$$QAPAU1@@Z 004841c0 f i libucrtd:fopen.obj
 0001:000831f0       ??$open_file@ABQB_WABQB_WABHPAU_iobuf@@@?$__crt_char_traits@_W@@SAPAU_iobuf@@ABQB_W0ABH$$QAPAU1@@Z 004841f0 f i libucrtd:fopen.obj
 0001:00083220       ?unlock@__crt_stdio_stream@@QBEXXZ 00484220 f i libucrtd:fopen.obj
 0001:00083250       __fsopen                   00484250 f   libucrtd:fopen.obj
 0001:00083280       __wfopen                   00484280 f   libucrtd:fopen.obj
 0001:000832a0       __wfopen_s                 004842a0 f   libucrtd:fopen.obj
 0001:000832d0       __wfsopen                  004842d0 f   libucrtd:fopen.obj
 0001:00083300       _fopen                     00484300 f   libucrtd:fopen.obj
 0001:00083320       _fopen_s                   00484320 f   libucrtd:fopen.obj
 0001:00083350       ?__acrt_stdio_reset_buffer@@YAXV__crt_stdio_stream@@@Z 00484350 f i libucrtd:fread.obj
 0001:00083390       ?has_any_buffer@__crt_stdio_stream@@QBE_NXZ 00484390 f i libucrtd:fread.obj
 0001:000833b0       ?has_any_of@__crt_stdio_stream@@QBE_NJ@Z 004843b0 f i libucrtd:fread.obj
 0001:000833f0       ?set_flags@__crt_stdio_stream@@QBE_NJ@Z 004843f0 f i libucrtd:fread.obj
 0001:00083450       __fread_nolock             00484450 f   libucrtd:fread.obj
 0001:00083480       __fread_nolock_s           00484480 f   libucrtd:fread.obj
 0001:00083ca0       _fread                     00484ca0 f   libucrtd:fread.obj
 0001:00083cd0       _fread_s                   00484cd0 f   libucrtd:fread.obj
 0001:00083fc0       ??$__crt_fast_decode_pointer@P6AXPB_W00II@Z@@YAP6AXPB_W00II@ZQ6AX000II@Z@Z 00484fc0 f i libucrtd:invalid_parameter.obj
 0001:00084000       ??$__crt_fast_encode_pointer@P6AXPB_W00II@Z@@YAP6AXPB_W00II@ZQ6AX000II@Z@Z 00485000 f i libucrtd:invalid_parameter.obj
 0001:00084040       ??$initialize_from_array@$$BY00Q6AXPB_W00II@Z@?$dual_state_global@P6AXPB_W00II@Z@__crt_state_management@@QAAXAAY00Q6AXPB_W00II@Z@Z 00485040 f i libucrtd:invalid_parameter.obj
 0001:000840a0       ?dangerous_get_state_array@?$dual_state_global@P6AXPB_W00II@Z@__crt_state_management@@QAEPAP6AXPB_W00II@ZXZ 004850a0 f i libucrtd:invalid_parameter.obj
 0001:000840c0       ?get_current_state_index@__crt_state_management@@YAIXZ 004850c0 f i libucrtd:invalid_parameter.obj
 0001:000840d0       ?value@?$dual_state_global@P6AXPB_W00II@Z@__crt_state_management@@QAEAAP6AXPB_W00II@ZXZ 004850d0 f i libucrtd:invalid_parameter.obj
 0001:000840f0       ___acrt_call_reportfault   004850f0 f   libucrtd:invalid_parameter.obj
 0001:000842a0       ___acrt_initialize_invalid_parameter_handler 004852a0 f   libucrtd:invalid_parameter.obj
 0001:000842d0       __get_invalid_parameter_handler 004852d0 f   libucrtd:invalid_parameter.obj
 0001:00084300       __get_thread_local_invalid_parameter_handler 00485300 f   libucrtd:invalid_parameter.obj
 0001:00084330       __invalid_parameter        00485330 f   libucrtd:invalid_parameter.obj
 0001:00084430       __invalid_parameter_noinfo 00485430 f   libucrtd:invalid_parameter.obj
 0001:00084450       __invalid_parameter_noinfo_noreturn 00485450 f   libucrtd:invalid_parameter.obj
 0001:00084490       __invoke_watson            00485490 f   libucrtd:invalid_parameter.obj
 0001:000844e0       __set_invalid_parameter_handler 004854e0 f   libucrtd:invalid_parameter.obj
 0001:00084540       __set_thread_local_invalid_parameter_handler 00485540 f   libucrtd:invalid_parameter.obj
 0001:00084580       ??$?RU?$__crt_report_hook_node@D@@@__crt_internal_free_policy@@QBEXQBU?$__crt_report_hook_node@D@@@Z 00485580 f i libucrtd:dbgrpt.obj
 0001:000845b0       ??$?RU?$__crt_report_hook_node@_W@@@__crt_internal_free_policy@@QBEXQBU?$__crt_report_hook_node@_W@@@Z 004855b0 f i libucrtd:dbgrpt.obj
 0001:000847c0       ??$__vcrt_va_start_verify_argument_type@QBD@@YAXXZ 004857c0 f i libucrtd:dbgrpt.obj
 0001:000847d0       ??$__vcrt_va_start_verify_argument_type@QB_W@@YAXXZ 004857d0 f i libucrtd:dbgrpt.obj
 0001:00085720       ??$get_module_file_name@AAPAUHINSTANCE__@@AAY0BAF@DK@?$__crt_char_traits@D@@SAKAAPAUHINSTANCE__@@AAY0BAF@D$$QAK@Z 00486720 f i libucrtd:dbgrpt.obj
 0001:00085750       ??$get_module_file_name@AAPAUHINSTANCE__@@AAY0BAF@_WK@?$__crt_char_traits@_W@@SAKAAPAUHINSTANCE__@@AAY0BAF@_W$$QAK@Z 00486750 f i libucrtd:dbgrpt.obj
 0001:00085780       ??$tcscpy_s@AAY0BAF@DIPBD@?$__crt_char_traits@D@@SAHAAY0BAF@D$$QAI$$QAPBD@Z 00486780 f i libucrtd:dbgrpt.obj
 0001:000857b0       ??$tcscpy_s@AAY0BAF@_WIPB_W@?$__crt_char_traits@_W@@SAHAAY0BAF@_W$$QAI$$QAPB_W@Z 004867b0 f i libucrtd:dbgrpt.obj
 0001:000857e0       ??$tcslen@AAY0BAF@D@?$__crt_char_traits@D@@SAIAAY0BAF@D@Z 004867e0 f i libucrtd:dbgrpt.obj
 0001:00085800       ??$tcslen@AAY0BAF@_W@?$__crt_char_traits@_W@@SAIAAY0BAF@_W@Z 00486800 f i libucrtd:dbgrpt.obj
 0001:00085820       ??$tcslen@ABQBD@?$__crt_char_traits@D@@SAIABQBD@Z 00486820 f i libucrtd:dbgrpt.obj
 0001:00085840       ??$tcslen@ABQB_W@?$__crt_char_traits@_W@@SAIABQB_W@Z 00486840 f i libucrtd:dbgrpt.obj
 0001:00085980       ??0?$__crt_unique_heap_ptr@U?$__crt_report_hook_node@D@@U__crt_internal_free_policy@@@@QAE@QAU?$__crt_report_hook_node@D@@@Z 00486980 f i libucrtd:dbgrpt.obj
 0001:000859a0       ??0?$__crt_unique_heap_ptr@U?$__crt_report_hook_node@_W@@U__crt_internal_free_policy@@@@QAE@QAU?$__crt_report_hook_node@_W@@@Z 004869a0 f i libucrtd:dbgrpt.obj
 0001:000859c0       ??1?$__crt_unique_heap_ptr@U?$__crt_report_hook_node@D@@U__crt_internal_free_policy@@@@QAE@XZ 004869c0 f i libucrtd:dbgrpt.obj
 0001:000859e0       ??1?$__crt_unique_heap_ptr@U?$__crt_report_hook_node@_W@@U__crt_internal_free_policy@@@@QAE@XZ 004869e0 f i libucrtd:dbgrpt.obj
 0001:00085a00       ??B?$__crt_unique_heap_ptr@U?$__crt_report_hook_node@D@@U__crt_internal_free_policy@@@@QBE_NXZ 00486a00 f i libucrtd:dbgrpt.obj
 0001:00085a20       ??B?$__crt_unique_heap_ptr@U?$__crt_report_hook_node@_W@@U__crt_internal_free_policy@@@@QBE_NXZ 00486a20 f i libucrtd:dbgrpt.obj
 0001:000860c0       ?detach@?$__crt_unique_heap_ptr@U?$__crt_report_hook_node@D@@U__crt_internal_free_policy@@@@QAEPAU?$__crt_report_hook_node@D@@XZ 004870c0 f i libucrtd:dbgrpt.obj
 0001:000860f0       ?detach@?$__crt_unique_heap_ptr@U?$__crt_report_hook_node@_W@@U__crt_internal_free_policy@@@@QAEPAU?$__crt_report_hook_node@_W@@XZ 004870f0 f i libucrtd:dbgrpt.obj
 0001:00086120       ?get@?$__crt_unique_heap_ptr@U?$__crt_report_hook_node@D@@U__crt_internal_free_policy@@@@QBEPAU?$__crt_report_hook_node@D@@XZ 00487120 f i libucrtd:dbgrpt.obj
 0001:00086140       ?get@?$__crt_unique_heap_ptr@U?$__crt_report_hook_node@_W@@U__crt_internal_free_policy@@@@QBEPAU?$__crt_report_hook_node@_W@@XZ 00487140 f i libucrtd:dbgrpt.obj
 0001:000861c0       ?is_valid@?$__crt_unique_heap_ptr@U?$__crt_report_hook_node@D@@U__crt_internal_free_policy@@@@QBE_NXZ 004871c0 f i libucrtd:dbgrpt.obj
 0001:00086200       ?is_valid@?$__crt_unique_heap_ptr@U?$__crt_report_hook_node@_W@@U__crt_internal_free_policy@@@@QBE_NXZ 00487200 f i libucrtd:dbgrpt.obj
 0001:00086240       ?release@?$__crt_unique_heap_ptr@U?$__crt_report_hook_node@D@@U__crt_internal_free_policy@@@@QAEXXZ 00487240 f i libucrtd:dbgrpt.obj
 0001:00086270       ?release@?$__crt_unique_heap_ptr@U?$__crt_report_hook_node@_W@@U__crt_internal_free_policy@@@@QAEXXZ 00487270 f i libucrtd:dbgrpt.obj
 0001:000862a0       __CrtDbgReport             004872a0 f   libucrtd:dbgrpt.obj
 0001:00086300       __CrtDbgReportW            00487300 f   libucrtd:dbgrpt.obj
 0001:00086360       __CrtSetReportHook2        00487360 f   libucrtd:dbgrpt.obj
 0001:00086380       __CrtSetReportHookW2       00487380 f   libucrtd:dbgrpt.obj
 0001:000863a0       ___acrt_MessageWindowA     004873a0 f   libucrtd:dbgrpt.obj
 0001:000863d0       ___acrt_MessageWindowW     004873d0 f   libucrtd:dbgrpt.obj
 0001:00086400       __invoke_watson_if_error   00487400 f i libucrtd:dbgrpt.obj
 0001:00086440       __invoke_watson_if_oneof   00487440 f i libucrtd:dbgrpt.obj
 0001:00086490       __snwprintf_s              00487490 f i libucrtd:dbgrpt.obj
 0001:000864f0       __vsnwprintf_s_l           004874f0 f i libucrtd:dbgrpt.obj
 0001:00086560       _strncmp                   00487560 f   libucrtd:strncmp.obj
 0001:00086600       ?eof@__crt_stdio_stream@@QBE_NXZ 00487600 f i libucrtd:feoferr.obj
 0001:00086620       ?error@__crt_stdio_stream@@QBE_NXZ 00487620 f i libucrtd:feoferr.obj
 0001:00086640       _feof                      00487640 f   libucrtd:feoferr.obj
 0001:00086700       _ferror                    00487700 f   libucrtd:feoferr.obj
 0001:00086e50       ??$getc_nolock@PAU_iobuf@@@?$__crt_char_traits@D@@SAH$$QAPAU_iobuf@@@Z 00487e50 f i libucrtd:fgets.obj
 0001:00086e70       ??$getc_nolock@PAU_iobuf@@@?$__crt_char_traits@_W@@SAG$$QAPAU_iobuf@@@Z 00487e70 f i libucrtd:fgets.obj
 0001:00086e90       _fgets                     00487e90 f   libucrtd:fgets.obj
 0001:00086ed0       _fgetws                    00487ed0 f   libucrtd:fgets.obj
 0001:00086f10       ??$?RE@__crt_internal_free_policy@@QBEXQBE@Z 00487f10 f i libucrtd:input.obj
 0001:00087120       ??$assemble_floating_point_ind@M@__crt_strtox@@YAXAAM@Z 00488120 f i libucrtd:input.obj
 0001:00087180       ??$assemble_floating_point_ind@N@__crt_strtox@@YAXAAN@Z 00488180 f i libucrtd:input.obj
 0001:000871f0       ??$assemble_floating_point_infinity@M@__crt_strtox@@YAX_NAAM@Z 004881f0 f i libucrtd:input.obj
 0001:00087270       ??$assemble_floating_point_infinity@N@__crt_strtox@@YAX_NAAN@Z 00488270 f i libucrtd:input.obj
 0001:00087320       ??$assemble_floating_point_qnan@M@__crt_strtox@@YAX_NAAM@Z 00488320 f i libucrtd:input.obj
 0001:000873a0       ??$assemble_floating_point_qnan@N@__crt_strtox@@YAX_NAAN@Z 004883a0 f i libucrtd:input.obj
 0001:00087450       ??$assemble_floating_point_snan@M@__crt_strtox@@YAX_NAAM@Z 00488450 f i libucrtd:input.obj
 0001:000874e0       ??$assemble_floating_point_snan@N@__crt_strtox@@YAX_NAAN@Z 004884e0 f i libucrtd:input.obj
 0001:00087590       ??$assemble_floating_point_value_t@M@__crt_strtox@@YA?AW4SLD_STATUS@@_NH_KAAM@Z 00488590 f i libucrtd:input.obj
 0001:00087620       ??$assemble_floating_point_value_t@N@__crt_strtox@@YA?AW4SLD_STATUS@@_NH_KAAN@Z 00488620 f i libucrtd:input.obj
 0001:000876f0       ??$assemble_floating_point_zero@M@__crt_strtox@@YAX_NAAM@Z 004886f0 f i libucrtd:input.obj
 0001:00087770       ??$assemble_floating_point_zero@N@__crt_strtox@@YAX_NAAN@Z 00488770 f i libucrtd:input.obj
 0001:00087f00       ??$convert_decimal_string_to_floating_type@M@__crt_strtox@@YA?AW4SLD_STATUS@@ABUfloating_point_string@0@AAM@Z 00488f00 f i libucrtd:input.obj
 0001:00087f30       ??$convert_decimal_string_to_floating_type@N@__crt_strtox@@YA?AW4SLD_STATUS@@ABUfloating_point_string@0@AAN@Z 00488f30 f i libucrtd:input.obj
 0001:00087f60       ??$convert_hexadecimal_string_to_floating_type@M@__crt_strtox@@YA?AW4SLD_STATUS@@ABUfloating_point_string@0@AAM@Z 00488f60 f i libucrtd:input.obj
 0001:00087f90       ??$convert_hexadecimal_string_to_floating_type@N@__crt_strtox@@YA?AW4SLD_STATUS@@ABUfloating_point_string@0@AAN@Z 00488f90 f i libucrtd:input.obj
 0001:00087fc0       ??$fill_buffer@D@?$input_processor@DV?$stream_input_adapter@D@__crt_stdio_input@@@__crt_stdio_input@@CAXQADII@Z 00488fc0 f i libucrtd:input.obj
 0001:00088060       ??$fill_buffer@D@?$input_processor@DV?$string_input_adapter@D@__crt_stdio_input@@@__crt_stdio_input@@CAXQADII@Z 00489060 f i libucrtd:input.obj
 0001:00088100       ??$fill_buffer@D@?$input_processor@_WV?$stream_input_adapter@_W@__crt_stdio_input@@@__crt_stdio_input@@CAXQADII@Z 00489100 f i libucrtd:input.obj
 0001:000881a0       ??$fill_buffer@D@?$input_processor@_WV?$string_input_adapter@_W@__crt_stdio_input@@@__crt_stdio_input@@CAXQADII@Z 004891a0 f i libucrtd:input.obj
 0001:00088240       ??$fill_buffer@_W@?$input_processor@DV?$stream_input_adapter@D@__crt_stdio_input@@@__crt_stdio_input@@CAXQA_WII@Z 00489240 f i libucrtd:input.obj
 0001:000882e0       ??$fill_buffer@_W@?$input_processor@DV?$string_input_adapter@D@__crt_stdio_input@@@__crt_stdio_input@@CAXQA_WII@Z 004892e0 f i libucrtd:input.obj
 0001:00088380       ??$fill_buffer@_W@?$input_processor@_WV?$stream_input_adapter@_W@__crt_stdio_input@@@__crt_stdio_input@@CAXQA_WII@Z 00489380 f i libucrtd:input.obj
 0001:00088420       ??$fill_buffer@_W@?$input_processor@_WV?$string_input_adapter@_W@__crt_stdio_input@@@__crt_stdio_input@@CAXQA_WII@Z 00489420 f i libucrtd:input.obj
 0001:000884c0       ??$is_overflow_condition@_K@__crt_strtox@@YA_NI_K@Z 004894c0 f i libucrtd:input.obj
 0001:00088570       ??$istspace@ABE@?$__crt_char_traits@D@@SAHABE@Z 00489570 f i libucrtd:input.obj
 0001:00088590       ??$istspace@AB_W@?$__crt_char_traits@_W@@SAHAB_W@Z 00489590 f i libucrtd:input.obj
 0001:000885b0       ??$make_input_adapter_character_source@V?$stream_input_adapter@D@__crt_stdio_input@@@__crt_strtox@@YA?AV?$input_adapter_character_source@V?$stream_input_adapter@D@__crt_stdio_input@@@0@QAV?$stream_input_adapter@D@__crt_stdio_input@@_KQA_N@Z 004895b0 f i libucrtd:input.obj
 0001:000885e0       ??$make_input_adapter_character_source@V?$stream_input_adapter@_W@__crt_stdio_input@@@__crt_strtox@@YA?AV?$input_adapter_character_source@V?$stream_input_adapter@_W@__crt_stdio_input@@@0@QAV?$stream_input_adapter@_W@__crt_stdio_input@@_KQA_N@Z 004895e0 f i libucrtd:input.obj
 0001:00088610       ??$make_input_adapter_character_source@V?$string_input_adapter@D@__crt_stdio_input@@@__crt_strtox@@YA?AV?$input_adapter_character_source@V?$string_input_adapter@D@__crt_stdio_input@@@0@QAV?$string_input_adapter@D@__crt_stdio_input@@_KQA_N@Z 00489610 f i libucrtd:input.obj
 0001:00088640       ??$make_input_adapter_character_source@V?$string_input_adapter@_W@__crt_stdio_input@@@__crt_strtox@@YA?AV?$input_adapter_character_source@V?$string_input_adapter@_W@__crt_stdio_input@@@0@QAV?$string_input_adapter@_W@__crt_stdio_input@@_KQA_N@Z 00489640 f i libucrtd:input.obj
 0001:00088670       ??$parse_floating_point@V?$input_adapter_character_source@V?$stream_input_adapter@D@__crt_stdio_input@@@__crt_strtox@@M@__crt_strtox@@YA?AW4SLD_STATUS@@QAU__crt_locale_pointers@@V?$input_adapter_character_source@V?$stream_input_adapter@D@__crt_stdio_input@@@0@QAM@Z 00489670 f i libucrtd:input.obj
 0001:000888a0       ??$parse_floating_point@V?$input_adapter_character_source@V?$stream_input_adapter@D@__crt_stdio_input@@@__crt_strtox@@N@__crt_strtox@@YA?AW4SLD_STATUS@@QAU__crt_locale_pointers@@V?$input_adapter_character_source@V?$stream_input_adapter@D@__crt_stdio_input@@@0@QAN@Z 004898a0 f i libucrtd:input.obj
 0001:00088ad0       ??$parse_floating_point@V?$input_adapter_character_source@V?$stream_input_adapter@_W@__crt_stdio_input@@@__crt_strtox@@M@__crt_strtox@@YA?AW4SLD_STATUS@@QAU__crt_locale_pointers@@V?$input_adapter_character_source@V?$stream_input_adapter@_W@__crt_stdio_input@@@0@QAM@Z 00489ad0 f i libucrtd:input.obj
 0001:00088d00       ??$parse_floating_point@V?$input_adapter_character_source@V?$stream_input_adapter@_W@__crt_stdio_input@@@__crt_strtox@@N@__crt_strtox@@YA?AW4SLD_STATUS@@QAU__crt_locale_pointers@@V?$input_adapter_character_source@V?$stream_input_adapter@_W@__crt_stdio_input@@@0@QAN@Z 00489d00 f i libucrtd:input.obj
 0001:00088f30       ??$parse_floating_point@V?$input_adapter_character_source@V?$string_input_adapter@D@__crt_stdio_input@@@__crt_strtox@@M@__crt_strtox@@YA?AW4SLD_STATUS@@QAU__crt_locale_pointers@@V?$input_adapter_character_source@V?$string_input_adapter@D@__crt_stdio_input@@@0@QAM@Z 00489f30 f i libucrtd:input.obj
 0001:00089160       ??$parse_floating_point@V?$input_adapter_character_source@V?$string_input_adapter@D@__crt_stdio_input@@@__crt_strtox@@N@__crt_strtox@@YA?AW4SLD_STATUS@@QAU__crt_locale_pointers@@V?$input_adapter_character_source@V?$string_input_adapter@D@__crt_stdio_input@@@0@QAN@Z 0048a160 f i libucrtd:input.obj
 0001:00089390       ??$parse_floating_point@V?$input_adapter_character_source@V?$string_input_adapter@_W@__crt_stdio_input@@@__crt_strtox@@M@__crt_strtox@@YA?AW4SLD_STATUS@@QAU__crt_locale_pointers@@V?$input_adapter_character_source@V?$string_input_adapter@_W@__crt_stdio_input@@@0@QAM@Z 0048a390 f i libucrtd:input.obj
 0001:000895c0       ??$parse_floating_point@V?$input_adapter_character_source@V?$string_input_adapter@_W@__crt_stdio_input@@@__crt_strtox@@N@__crt_strtox@@YA?AW4SLD_STATUS@@QAU__crt_locale_pointers@@V?$input_adapter_character_source@V?$string_input_adapter@_W@__crt_stdio_input@@@0@QAN@Z 0048a5c0 f i libucrtd:input.obj
 0001:000897f0       ??$parse_floating_point_from_source@V?$input_adapter_character_source@V?$stream_input_adapter@D@__crt_stdio_input@@@__crt_strtox@@@__crt_strtox@@YA?AW4floating_point_parse_result@0@QAU__crt_locale_pointers@@AAV?$input_adapter_character_source@V?$stream_input_adapter@D@__crt_stdio_input@@@0@AAUfloating_point_string@0@@Z 0048a7f0 f i libucrtd:input.obj
 0001:00089f30       ??$parse_floating_point_from_source@V?$input_adapter_character_source@V?$stream_input_adapter@_W@__crt_stdio_input@@@__crt_strtox@@@__crt_strtox@@YA?AW4floating_point_parse_result@0@QAU__crt_locale_pointers@@AAV?$input_adapter_character_source@V?$stream_input_adapter@_W@__crt_stdio_input@@@0@AAUfloating_point_string@0@@Z 0048af30 f i libucrtd:input.obj
 0001:0008a680       ??$parse_floating_point_from_source@V?$input_adapter_character_source@V?$string_input_adapter@D@__crt_stdio_input@@@__crt_strtox@@@__crt_strtox@@YA?AW4floating_point_parse_result@0@QAU__crt_locale_pointers@@AAV?$input_adapter_character_source@V?$string_input_adapter@D@__crt_stdio_input@@@0@AAUfloating_point_string@0@@Z 0048b680 f i libucrtd:input.obj
 0001:0008adc0       ??$parse_floating_point_from_source@V?$input_adapter_character_source@V?$string_input_adapter@_W@__crt_stdio_input@@@__crt_strtox@@@__crt_strtox@@YA?AW4floating_point_parse_result@0@QAU__crt_locale_pointers@@AAV?$input_adapter_character_source@V?$string_input_adapter@_W@__crt_stdio_input@@@0@AAUfloating_point_string@0@@Z 0048bdc0 f i libucrtd:input.obj
 0001:0008b510       ??$parse_floating_point_possible_infinity@DV?$input_adapter_character_source@V?$stream_input_adapter@D@__crt_stdio_input@@@__crt_strtox@@_K@__crt_strtox@@YA?AW4floating_point_parse_result@0@AADAAV?$input_adapter_character_source@V?$stream_input_adapter@D@__crt_stdio_input@@@0@_K@Z 0048c510 f i libucrtd:input.obj
 0001:0008b620       ??$parse_floating_point_possible_infinity@DV?$input_adapter_character_source@V?$string_input_adapter@D@__crt_stdio_input@@@__crt_strtox@@_K@__crt_strtox@@YA?AW4floating_point_parse_result@0@AADAAV?$input_adapter_character_source@V?$string_input_adapter@D@__crt_stdio_input@@@0@_K@Z 0048c620 f i libucrtd:input.obj
 0001:0008b730       ??$parse_floating_point_possible_infinity@_WV?$input_adapter_character_source@V?$stream_input_adapter@_W@__crt_stdio_input@@@__crt_strtox@@_K@__crt_strtox@@YA?AW4floating_point_parse_result@0@AA_WAAV?$input_adapter_character_source@V?$stream_input_adapter@_W@__crt_stdio_input@@@0@_K@Z 0048c730 f i libucrtd:input.obj
 0001:0008b850       ??$parse_floating_point_possible_infinity@_WV?$input_adapter_character_source@V?$string_input_adapter@_W@__crt_stdio_input@@@__crt_strtox@@_K@__crt_strtox@@YA?AW4floating_point_parse_result@0@AA_WAAV?$input_adapter_character_source@V?$string_input_adapter@_W@__crt_stdio_input@@@0@_K@Z 0048c850 f i libucrtd:input.obj
 0001:0008b970       ??$parse_floating_point_possible_nan@DV?$input_adapter_character_source@V?$stream_input_adapter@D@__crt_stdio_input@@@__crt_strtox@@_K@__crt_strtox@@YA?AW4floating_point_parse_result@0@AADAAV?$input_adapter_character_source@V?$stream_input_adapter@D@__crt_stdio_input@@@0@_K@Z 0048c970 f i libucrtd:input.obj
 0001:0008bb90       ??$parse_floating_point_possible_nan@DV?$input_adapter_character_source@V?$string_input_adapter@D@__crt_stdio_input@@@__crt_strtox@@_K@__crt_strtox@@YA?AW4floating_point_parse_result@0@AADAAV?$input_adapter_character_source@V?$string_input_adapter@D@__crt_stdio_input@@@0@_K@Z 0048cb90 f i libucrtd:input.obj
 0001:0008bdb0       ??$parse_floating_point_possible_nan@_WV?$input_adapter_character_source@V?$stream_input_adapter@_W@__crt_stdio_input@@@__crt_strtox@@_K@__crt_strtox@@YA?AW4floating_point_parse_result@0@AA_WAAV?$input_adapter_character_source@V?$stream_input_adapter@_W@__crt_stdio_input@@@0@_K@Z 0048cdb0 f i libucrtd:input.obj
 0001:0008bfd0       ??$parse_floating_point_possible_nan@_WV?$input_adapter_character_source@V?$string_input_adapter@_W@__crt_stdio_input@@@__crt_strtox@@_K@__crt_strtox@@YA?AW4floating_point_parse_result@0@AA_WAAV?$input_adapter_character_source@V?$string_input_adapter@_W@__crt_stdio_input@@@0@_K@Z 0048cfd0 f i libucrtd:input.obj
 0001:0008c1f0       ??$parse_floating_point_possible_nan_is_ind@DV?$input_adapter_character_source@V?$stream_input_adapter@D@__crt_stdio_input@@@__crt_strtox@@@__crt_strtox@@YA_NAADAAV?$input_adapter_character_source@V?$stream_input_adapter@D@__crt_stdio_input@@@0@@Z 0048d1f0 f i libucrtd:input.obj
 0001:0008c220       ??$parse_floating_point_possible_nan_is_ind@DV?$input_adapter_character_source@V?$string_input_adapter@D@__crt_stdio_input@@@__crt_strtox@@@__crt_strtox@@YA_NAADAAV?$input_adapter_character_source@V?$string_input_adapter@D@__crt_stdio_input@@@0@@Z 0048d220 f i libucrtd:input.obj
 0001:0008c250       ??$parse_floating_point_possible_nan_is_ind@_WV?$input_adapter_character_source@V?$stream_input_adapter@_W@__crt_stdio_input@@@__crt_strtox@@@__crt_strtox@@YA_NAA_WAAV?$input_adapter_character_source@V?$stream_input_adapter@_W@__crt_stdio_input@@@0@@Z 0048d250 f i libucrtd:input.obj
 0001:0008c280       ??$parse_floating_point_possible_nan_is_ind@_WV?$input_adapter_character_source@V?$string_input_adapter@_W@__crt_stdio_input@@@__crt_strtox@@@__crt_strtox@@YA_NAA_WAAV?$input_adapter_character_source@V?$string_input_adapter@_W@__crt_stdio_input@@@0@@Z 0048d280 f i libucrtd:input.obj
 0001:0008c2b0       ??$parse_floating_point_possible_nan_is_snan@DV?$input_adapter_character_source@V?$stream_input_adapter@D@__crt_stdio_input@@@__crt_strtox@@@__crt_strtox@@YA_NAADAAV?$input_adapter_character_source@V?$stream_input_adapter@D@__crt_stdio_input@@@0@@Z 0048d2b0 f i libucrtd:input.obj
 0001:0008c2e0       ??$parse_floating_point_possible_nan_is_snan@DV?$input_adapter_character_source@V?$string_input_adapter@D@__crt_stdio_input@@@__crt_strtox@@@__crt_strtox@@YA_NAADAAV?$input_adapter_character_source@V?$string_input_adapter@D@__crt_stdio_input@@@0@@Z 0048d2e0 f i libucrtd:input.obj
 0001:0008c310       ??$parse_floating_point_possible_nan_is_snan@_WV?$input_adapter_character_source@V?$stream_input_adapter@_W@__crt_stdio_input@@@__crt_strtox@@@__crt_strtox@@YA_NAA_WAAV?$input_adapter_character_source@V?$stream_input_adapter@_W@__crt_stdio_input@@@0@@Z 0048d310 f i libucrtd:input.obj
 0001:0008c340       ??$parse_floating_point_possible_nan_is_snan@_WV?$input_adapter_character_source@V?$string_input_adapter@_W@__crt_stdio_input@@@__crt_strtox@@@__crt_strtox@@YA_NAA_WAAV?$input_adapter_character_source@V?$string_input_adapter@_W@__crt_stdio_input@@@0@@Z 0048d340 f i libucrtd:input.obj
 0001:0008c370       ??$parse_floating_point_write_result@M@__crt_strtox@@YA?AW4SLD_STATUS@@W4floating_point_parse_result@0@ABUfloating_point_string@0@QAM@Z 0048d370 f i libucrtd:input.obj
 0001:0008c560       ??$parse_floating_point_write_result@N@__crt_strtox@@YA?AW4SLD_STATUS@@W4floating_point_parse_result@0@ABUfloating_point_string@0@QAN@Z 0048d560 f i libucrtd:input.obj
 0001:0008c750       ??$parse_integer@_KV?$input_adapter_character_source@V?$stream_input_adapter@D@__crt_stdio_input@@@__crt_strtox@@@__crt_strtox@@YA_KQAU__crt_locale_pointers@@V?$input_adapter_character_source@V?$stream_input_adapter@D@__crt_stdio_input@@@0@H_N@Z 0048d750 f i libucrtd:input.obj
 0001:0008cc90       ??$parse_integer@_KV?$input_adapter_character_source@V?$stream_input_adapter@_W@__crt_stdio_input@@@__crt_strtox@@@__crt_strtox@@YA_KQAU__crt_locale_pointers@@V?$input_adapter_character_source@V?$stream_input_adapter@_W@__crt_stdio_input@@@0@H_N@Z 0048dc90 f i libucrtd:input.obj
 0001:0008d1e0       ??$parse_integer@_KV?$input_adapter_character_source@V?$string_input_adapter@D@__crt_stdio_input@@@__crt_strtox@@@__crt_strtox@@YA_KQAU__crt_locale_pointers@@V?$input_adapter_character_source@V?$string_input_adapter@D@__crt_stdio_input@@@0@H_N@Z 0048e1e0 f i libucrtd:input.obj
 0001:0008d720       ??$parse_integer@_KV?$input_adapter_character_source@V?$string_input_adapter@_W@__crt_stdio_input@@@__crt_strtox@@@__crt_strtox@@YA_KQAU__crt_locale_pointers@@V?$input_adapter_character_source@V?$string_input_adapter@_W@__crt_stdio_input@@@0@H_N@Z 0048e720 f i libucrtd:input.obj
 0001:0008dc70       ??$parse_next_characters_from_source@DV?$input_adapter_character_source@V?$stream_input_adapter@D@__crt_stdio_input@@@__crt_strtox@@@__crt_strtox@@YA_NQBD0IAADAAV?$input_adapter_character_source@V?$stream_input_adapter@D@__crt_stdio_input@@@0@@Z 0048ec70 f i libucrtd:input.obj
 0001:0008dcf0       ??$parse_next_characters_from_source@DV?$input_adapter_character_source@V?$string_input_adapter@D@__crt_stdio_input@@@__crt_strtox@@@__crt_strtox@@YA_NQBD0IAADAAV?$input_adapter_character_source@V?$string_input_adapter@D@__crt_stdio_input@@@0@@Z 0048ecf0 f i libucrtd:input.obj
 0001:0008dd70       ??$parse_next_characters_from_source@_WV?$input_adapter_character_source@V?$stream_input_adapter@_W@__crt_stdio_input@@@__crt_strtox@@@__crt_strtox@@YA_NQB_W0IAA_WAAV?$input_adapter_character_source@V?$stream_input_adapter@_W@__crt_stdio_input@@@0@@Z 0048ed70 f i libucrtd:input.obj
 0001:0008ddf0       ??$parse_next_characters_from_source@_WV?$input_adapter_character_source@V?$string_input_adapter@_W@__crt_stdio_input@@@__crt_strtox@@@__crt_strtox@@YA_NQB_W0IAA_WAAV?$input_adapter_character_source@V?$string_input_adapter@_W@__crt_stdio_input@@@0@@Z 0048edf0 f i libucrtd:input.obj
 0001:0008de70       ??$process_floating_point_specifier_t@M@?$input_processor@DV?$stream_input_adapter@D@__crt_stdio_input@@@__crt_stdio_input@@AAE_NXZ 0048ee70 f i libucrtd:input.obj
 0001:0008df20       ??$process_floating_point_specifier_t@M@?$input_processor@DV?$string_input_adapter@D@__crt_stdio_input@@@__crt_stdio_input@@AAE_NXZ 0048ef20 f i libucrtd:input.obj
 0001:0008dfd0       ??$process_floating_point_specifier_t@M@?$input_processor@_WV?$stream_input_adapter@_W@__crt_stdio_input@@@__crt_stdio_input@@AAE_NXZ 0048efd0 f i libucrtd:input.obj
 0001:0008e080       ??$process_floating_point_specifier_t@M@?$input_processor@_WV?$string_input_adapter@_W@__crt_stdio_input@@@__crt_stdio_input@@AAE_NXZ 0048f080 f i libucrtd:input.obj
 0001:0008e130       ??$process_floating_point_specifier_t@N@?$input_processor@DV?$stream_input_adapter@D@__crt_stdio_input@@@__crt_stdio_input@@AAE_NXZ 0048f130 f i libucrtd:input.obj
 0001:0008e1e0       ??$process_floating_point_specifier_t@N@?$input_processor@DV?$string_input_adapter@D@__crt_stdio_input@@@__crt_stdio_input@@AAE_NXZ 0048f1e0 f i libucrtd:input.obj
 0001:0008e290       ??$process_floating_point_specifier_t@N@?$input_processor@_WV?$stream_input_adapter@_W@__crt_stdio_input@@@__crt_stdio_input@@AAE_NXZ 0048f290 f i libucrtd:input.obj
 0001:0008e340       ??$process_floating_point_specifier_t@N@?$input_processor@_WV?$string_input_adapter@_W@__crt_stdio_input@@@__crt_stdio_input@@AAE_NXZ 0048f340 f i libucrtd:input.obj
 0001:0008e3f0       ??$process_string_specifier_tchar@D@?$input_processor@DV?$stream_input_adapter@D@__crt_stdio_input@@@__crt_stdio_input@@AAE_NW4conversion_mode@1@D@Z 0048f3f0 f i libucrtd:input.obj
 0001:0008e790       ??$process_string_specifier_tchar@D@?$input_processor@DV?$string_input_adapter@D@__crt_stdio_input@@@__crt_stdio_input@@AAE_NW4conversion_mode@1@D@Z 0048f790 f i libucrtd:input.obj
 0001:0008eb30       ??$process_string_specifier_tchar@D@?$input_processor@_WV?$stream_input_adapter@_W@__crt_stdio_input@@@__crt_stdio_input@@AAE_NW4conversion_mode@1@D@Z 0048fb30 f i libucrtd:input.obj
 0001:0008eed0       ??$process_string_specifier_tchar@D@?$input_processor@_WV?$string_input_adapter@_W@__crt_stdio_input@@@__crt_stdio_input@@AAE_NW4conversion_mode@1@D@Z 0048fed0 f i libucrtd:input.obj
 0001:0008f270       ??$process_string_specifier_tchar@_W@?$input_processor@DV?$stream_input_adapter@D@__crt_stdio_input@@@__crt_stdio_input@@AAE_NW4conversion_mode@1@_W@Z 00490270 f i libucrtd:input.obj
 0001:0008f610       ??$process_string_specifier_tchar@_W@?$input_processor@DV?$string_input_adapter@D@__crt_stdio_input@@@__crt_stdio_input@@AAE_NW4conversion_mode@1@_W@Z 00490610 f i libucrtd:input.obj
 0001:0008f9b0       ??$process_string_specifier_tchar@_W@?$input_processor@_WV?$stream_input_adapter@_W@__crt_stdio_input@@@__crt_stdio_input@@AAE_NW4conversion_mode@1@_W@Z 004909b0 f i libucrtd:input.obj
 0001:0008fd60       ??$process_string_specifier_tchar@_W@?$input_processor@_WV?$string_input_adapter@_W@__crt_stdio_input@@@__crt_stdio_input@@AAE_NW4conversion_mode@1@_W@Z 00490d60 f i libucrtd:input.obj
 0001:00090110       ??$reset_buffer@D@?$input_processor@DV?$stream_input_adapter@D@__crt_stdio_input@@@__crt_stdio_input@@CAXQADI@Z 00491110 f i libucrtd:input.obj
 0001:000901a0       ??$reset_buffer@D@?$input_processor@DV?$string_input_adapter@D@__crt_stdio_input@@@__crt_stdio_input@@CAXQADI@Z 004911a0 f i libucrtd:input.obj
 0001:00090230       ??$reset_buffer@D@?$input_processor@_WV?$stream_input_adapter@_W@__crt_stdio_input@@@__crt_stdio_input@@CAXQADI@Z 00491230 f i libucrtd:input.obj
 0001:000902c0       ??$reset_buffer@D@?$input_processor@_WV?$string_input_adapter@_W@__crt_stdio_input@@@__crt_stdio_input@@CAXQADI@Z 004912c0 f i libucrtd:input.obj
 0001:00090350       ??$reset_buffer@_W@?$input_processor@DV?$stream_input_adapter@D@__crt_stdio_input@@@__crt_stdio_input@@CAXQA_WI@Z 00491350 f i libucrtd:input.obj
 0001:000903e0       ??$reset_buffer@_W@?$input_processor@DV?$string_input_adapter@D@__crt_stdio_input@@@__crt_stdio_input@@CAXQA_WI@Z 004913e0 f i libucrtd:input.obj
 0001:00090470       ??$reset_buffer@_W@?$input_processor@_WV?$stream_input_adapter@_W@__crt_stdio_input@@@__crt_stdio_input@@CAXQA_WI@Z 00491470 f i libucrtd:input.obj
 0001:00090500       ??$reset_buffer@_W@?$input_processor@_WV?$string_input_adapter@_W@__crt_stdio_input@@@__crt_stdio_input@@CAXQA_WI@Z 00491500 f i libucrtd:input.obj
 0001:00090590       ??$skip_whitespace@Vstream_input_adapter@__crt_stdio_input@@D@__crt_stdio_input@@YAHAAV?$stream_input_adapter@D@0@QAU__crt_locale_pointers@@@Z 00491590 f i libucrtd:input.obj
 0001:000905e0       ??$skip_whitespace@Vstream_input_adapter@__crt_stdio_input@@_W@__crt_stdio_input@@YAGAAV?$stream_input_adapter@_W@0@QAU__crt_locale_pointers@@@Z 004915e0 f i libucrtd:input.obj
 0001:00090630       ??$skip_whitespace@Vstring_input_adapter@__crt_stdio_input@@D@__crt_stdio_input@@YAHAAV?$string_input_adapter@D@0@QAU__crt_locale_pointers@@@Z 00491630 f i libucrtd:input.obj
 0001:00090680       ??$skip_whitespace@Vstring_input_adapter@__crt_stdio_input@@_W@__crt_stdio_input@@YAGAAV?$string_input_adapter@_W@0@QAU__crt_locale_pointers@@@Z 00491680 f i libucrtd:input.obj
 0001:000906d0       ??$tcsnlen@ABQBDABI@?$__crt_char_traits@D@@SAIABQBDABI@Z 004916d0 f i libucrtd:input.obj
 0001:00090700       ??$tcsnlen@ABQB_WABI@?$__crt_char_traits@_W@@SAIABQB_WABI@Z 00491700 f i libucrtd:input.obj
 0001:00090730       ??$tcstoull@AAPB_WPAPA_WH@?$__crt_char_traits@_W@@SA_KAAPB_W$$QAPAPA_W$$QAH@Z 00491730 f i libucrtd:input.obj
 0001:00090760       ??$tcstoull@PBDPAPADH@?$__crt_char_traits@D@@SA_K$$QAPBD$$QAPAPAD$$QAH@Z 00491760 f i libucrtd:input.obj
 0001:00090790       ??$ungettc_nolock@ABGPAU_iobuf@@@?$__crt_char_traits@_W@@SAGABG$$QAPAU_iobuf@@@Z 00491790 f i libucrtd:input.obj
 0001:000907c0       ??$ungettc_nolock@ABHPAU_iobuf@@@?$__crt_char_traits@D@@SAHABH$$QAPAU_iobuf@@@Z 004917c0 f i libucrtd:input.obj
 0001:000907f0       ??$write_floating_point@M@?$input_processor@DV?$stream_input_adapter@D@__crt_stdio_input@@@__crt_stdio_input@@AAE_NABM@Z 004917f0 f i libucrtd:input.obj
 0001:00090920       ??$write_floating_point@M@?$input_processor@DV?$string_input_adapter@D@__crt_stdio_input@@@__crt_stdio_input@@AAE_NABM@Z 00491920 f i libucrtd:input.obj
 0001:00090a50       ??$write_floating_point@M@?$input_processor@_WV?$stream_input_adapter@_W@__crt_stdio_input@@@__crt_stdio_input@@AAE_NABM@Z 00491a50 f i libucrtd:input.obj
 0001:00090b80       ??$write_floating_point@M@?$input_processor@_WV?$string_input_adapter@_W@__crt_stdio_input@@@__crt_stdio_input@@AAE_NABM@Z 00491b80 f i libucrtd:input.obj
 0001:00090cb0       ??$write_floating_point@N@?$input_processor@DV?$stream_input_adapter@D@__crt_stdio_input@@@__crt_stdio_input@@AAE_NABN@Z 00491cb0 f i libucrtd:input.obj
 0001:00090de0       ??$write_floating_point@N@?$input_processor@DV?$string_input_adapter@D@__crt_stdio_input@@@__crt_stdio_input@@AAE_NABN@Z 00491de0 f i libucrtd:input.obj
 0001:00090f10       ??$write_floating_point@N@?$input_processor@_WV?$stream_input_adapter@_W@__crt_stdio_input@@@__crt_stdio_input@@AAE_NABN@Z 00491f10 f i libucrtd:input.obj
 0001:00091040       ??$write_floating_point@N@?$input_processor@_WV?$string_input_adapter@_W@__crt_stdio_input@@@__crt_stdio_input@@AAE_NABN@Z 00492040 f i libucrtd:input.obj
 0001:000915d0       ??0?$__crt_unique_heap_ptr@EU__crt_internal_free_policy@@@@QAE@QAE@Z 004925d0 f i libucrtd:input.obj
 0001:000915f0       ??0?$format_string_parser@D@__crt_stdio_input@@QAE@_KQBE@Z 004925f0 f i libucrtd:input.obj
 0001:00091650       ??0?$format_string_parser@_W@__crt_stdio_input@@QAE@_KQB_W@Z 00492650 f i libucrtd:input.obj
 0001:000916b0       ??0?$input_adapter_character_source@V?$stream_input_adapter@D@__crt_stdio_input@@@__crt_strtox@@QAE@QAV?$stream_input_adapter@D@__crt_stdio_input@@_KQA_N@Z 004926b0 f i libucrtd:input.obj
 0001:00091720       ??0?$input_adapter_character_source@V?$stream_input_adapter@_W@__crt_stdio_input@@@__crt_strtox@@QAE@QAV?$stream_input_adapter@_W@__crt_stdio_input@@_KQA_N@Z 00492720 f i libucrtd:input.obj
 0001:00091790       ??0?$input_adapter_character_source@V?$string_input_adapter@D@__crt_stdio_input@@@__crt_strtox@@QAE@QAV?$string_input_adapter@D@__crt_stdio_input@@_KQA_N@Z 00492790 f i libucrtd:input.obj
 0001:00091800       ??0?$input_adapter_character_source@V?$string_input_adapter@_W@__crt_stdio_input@@@__crt_strtox@@QAE@QAV?$string_input_adapter@_W@__crt_stdio_input@@_KQA_N@Z 00492800 f i libucrtd:input.obj
 0001:00091870       ??0?$input_processor@DV?$stream_input_adapter@D@__crt_stdio_input@@@__crt_stdio_input@@QAE@ABV?$stream_input_adapter@D@1@_KQBDQAU__crt_locale_pointers@@QAD@Z 00492870 f i libucrtd:input.obj
 0001:000918f0       ??0?$input_processor@DV?$string_input_adapter@D@__crt_stdio_input@@@__crt_stdio_input@@QAE@ABV?$string_input_adapter@D@1@_KQBDQAU__crt_locale_pointers@@QAD@Z 004928f0 f i libucrtd:input.obj
 0001:00091980       ??0?$input_processor@_WV?$stream_input_adapter@_W@__crt_stdio_input@@@__crt_stdio_input@@QAE@ABV?$stream_input_adapter@_W@1@_KQB_WQAU__crt_locale_pointers@@QAD@Z 00492980 f i libucrtd:input.obj
 0001:00091a00       ??0?$input_processor@_WV?$string_input_adapter@_W@__crt_stdio_input@@@__crt_stdio_input@@QAE@ABV?$string_input_adapter@_W@1@_KQB_WQAU__crt_locale_pointers@@QAD@Z 00492a00 f i libucrtd:input.obj
 0001:00091a90       ??0?$scanset_buffer@E@__crt_stdio_input@@QAE@XZ 00492a90 f i libucrtd:input.obj
 0001:00091ab0       ??0?$scanset_buffer@_W@__crt_stdio_input@@QAE@XZ 00492ab0 f i libucrtd:input.obj
 0001:00091ad0       ??0?$scanset_storage@$00@__crt_stdio_input@@QAE@XZ 00492ad0 f i libucrtd:input.obj
 0001:00091b10       ??0?$scanset_storage@$01@__crt_stdio_input@@QAE@XZ 00492b10 f i libucrtd:input.obj
 0001:00091b30       ??0?$stream_input_adapter@D@__crt_stdio_input@@QAE@QAU_iobuf@@@Z 00492b30 f i libucrtd:input.obj
 0001:00091b70       ??0?$stream_input_adapter@_W@__crt_stdio_input@@QAE@QAU_iobuf@@@Z 00492b70 f i libucrtd:input.obj
 0001:00091bb0       ??0?$string_input_adapter@D@__crt_stdio_input@@QAE@QBDI@Z 00492bb0 f i libucrtd:input.obj
 0001:00091bf0       ??0?$string_input_adapter@_W@__crt_stdio_input@@QAE@QB_WI@Z 00492bf0 f i libucrtd:input.obj
 0001:00091c30       ??0big_integer@__crt_strtox@@QAE@ABU01@@Z 00492c30 f i libucrtd:input.obj
 0001:00091c80       ??0big_integer@__crt_strtox@@QAE@XZ 00492c80 f i libucrtd:input.obj
 0001:00091cc0       ??0floating_point_value@__crt_strtox@@QAE@QAM@Z 00492cc0 f i libucrtd:input.obj
 0001:00091d20       ??0floating_point_value@__crt_strtox@@QAE@QAN@Z 00492d20 f i libucrtd:input.obj
 0001:00091d80       ??1?$__crt_unique_heap_ptr@EU__crt_internal_free_policy@@@@QAE@XZ 00492d80 f i libucrtd:input.obj
 0001:00091da0       ??1?$format_string_parser@_W@__crt_stdio_input@@QAE@XZ 00492da0 f i libucrtd:input.obj
 0001:00091dc0       ??1?$input_adapter_character_source@V?$stream_input_adapter@D@__crt_stdio_input@@@__crt_strtox@@QAE@XZ 00492dc0 f i libucrtd:input.obj
 0001:00091e10       ??1?$input_adapter_character_source@V?$stream_input_adapter@_W@__crt_stdio_input@@@__crt_strtox@@QAE@XZ 00492e10 f i libucrtd:input.obj
 0001:00091e60       ??1?$input_adapter_character_source@V?$string_input_adapter@D@__crt_stdio_input@@@__crt_strtox@@QAE@XZ 00492e60 f i libucrtd:input.obj
 0001:00091eb0       ??1?$input_adapter_character_source@V?$string_input_adapter@_W@__crt_stdio_input@@@__crt_strtox@@QAE@XZ 00492eb0 f i libucrtd:input.obj
 0001:00091f00       ??1?$input_processor@_WV?$stream_input_adapter@_W@__crt_stdio_input@@@__crt_stdio_input@@QAE@XZ 00492f00 f i libucrtd:input.obj
 0001:00091f20       ??1?$input_processor@_WV?$string_input_adapter@_W@__crt_stdio_input@@@__crt_stdio_input@@QAE@XZ 00492f20 f i libucrtd:input.obj
 0001:00091f40       ??1?$scanset_buffer@_W@__crt_stdio_input@@QAE@XZ 00492f40 f i libucrtd:input.obj
 0001:00091f60       ??1?$scanset_storage@$01@__crt_stdio_input@@QAE@XZ 00492f60 f i libucrtd:input.obj
 0001:00091f80       ??4?$__crt_unique_heap_ptr@EU__crt_internal_free_policy@@@@QAEAAV0@$$QAV0@@Z 00492f80 f i libucrtd:input.obj
 0001:00091fc0       ??4big_integer@__crt_strtox@@QAEAAU01@ABU01@@Z 00492fc0 f i libucrtd:input.obj
 0001:00092010       ??B?$__crt_unique_heap_ptr@EU__crt_internal_free_policy@@@@QBE_NXZ 00493010 f i libucrtd:input.obj
 0001:00092030       ??M__crt_strtox@@YA_NABUbig_integer@0@0@Z 00493030 f i libucrtd:input.obj
 0001:00092780       ?accumulate_decimal_digits_into_big_integer@__crt_strtox@@YAXQBE0AAUbig_integer@1@@Z 00493780 f i libucrtd:input.obj
 0001:00092860       ?add@__crt_strtox@@YA_NAAUbig_integer@1@I@Z 00493860 f i libucrtd:input.obj
 0001:000929a0       ?add_carry@__crt_strtox@@YAIAAIII@Z 004939a0 f i libucrtd:input.obj
 0001:000929f0       ?add_multiply_carry@__crt_strtox@@YAIAAIIII@Z 004939f0 f i libucrtd:input.obj
 0001:00092a40       ?advance@?$format_string_parser@D@__crt_stdio_input@@QAE_NXZ 00493a40 f i libucrtd:input.obj
 0001:00092c50       ?advance@?$format_string_parser@_W@__crt_stdio_input@@QAE_NXZ 00493c50 f i libucrtd:input.obj
 0001:00092e60       ?as_double@floating_point_value@__crt_strtox@@QBEAANXZ 00493e60 f i libucrtd:input.obj
 0001:00092ef0       ?as_float@floating_point_value@__crt_strtox@@QBEAAMXZ 00493ef0 f i libucrtd:input.obj
 0001:00092f80       ?assemble_floating_point_infinity@__crt_strtox@@YAX_NABVfloating_point_value@1@@Z 00493f80 f i libucrtd:input.obj
 0001:00092fe0       ?assemble_floating_point_value@__crt_strtox@@YA?AW4SLD_STATUS@@_KH_N1ABVfloating_point_value@1@@Z 00493fe0 f i libucrtd:input.obj
 0001:000932e0       ?assemble_floating_point_value_from_big_integer@__crt_strtox@@YA?AW4SLD_STATUS@@ABUbig_integer@1@I_N1ABVfloating_point_value@1@@Z 004942e0 f i libucrtd:input.obj
 0001:000936a0       ?assemble_floating_point_zero@__crt_strtox@@YAX_NABVfloating_point_value@1@@Z 004946a0 f i libucrtd:input.obj
 0001:00093700       ?bit_scan_reverse@__crt_strtox@@YAIABUbig_integer@1@@Z 00494700 f i libucrtd:input.obj
 0001:00093750       ?bit_scan_reverse@__crt_strtox@@YAII@Z 00494750 f i libucrtd:input.obj
 0001:00093790       ?bit_scan_reverse@__crt_strtox@@YAI_K@Z 00494790 f i libucrtd:input.obj
 0001:000937f0       ?characters_read@?$stream_input_adapter@D@__crt_stdio_input@@QBEIXZ 004947f0 f i libucrtd:input.obj
 0001:00093810       ?characters_read@?$stream_input_adapter@_W@__crt_stdio_input@@QBEIXZ 00494810 f i libucrtd:input.obj
 0001:00093830       ?characters_read@?$string_input_adapter@D@__crt_stdio_input@@QBEIXZ 00494830 f i libucrtd:input.obj
 0001:00093850       ?characters_read@?$string_input_adapter@_W@__crt_stdio_input@@QBEIXZ 00494850 f i libucrtd:input.obj
 0001:00093870       ?convert_decimal_string_to_floating_type_common@__crt_strtox@@YA?AW4SLD_STATUS@@ABUfloating_point_string@1@ABVfloating_point_value@1@@Z 00494870 f i libucrtd:input.obj
 0001:00094050       ?convert_hexadecimal_string_to_floating_type_common@__crt_strtox@@YA?AW4SLD_STATUS@@ABUfloating_point_string@1@ABVfloating_point_value@1@@Z 00495050 f i libucrtd:input.obj
 0001:000941c0       ?count_sequential_high_zeroes@__crt_strtox@@YAII@Z 004951c0 f i libucrtd:input.obj
 0001:00094210       ?data@?$scanset_storage@$00@__crt_stdio_input@@QBEPAEXZ 00495210 f i libucrtd:input.obj
 0001:00094230       ?data@?$scanset_storage@$01@__crt_stdio_input@@QBEPAEXZ 00495230 f i libucrtd:input.obj
 0001:000942b0       ?denormal_mantissa_mask@floating_point_value@__crt_strtox@@QBE_KXZ 004952b0 f i libucrtd:input.obj
 0001:00094300       ?divide@__crt_strtox@@YA_KAAUbig_integer@1@ABU21@@Z 00495300 f i libucrtd:input.obj
 0001:00095020       ?error_code@?$format_string_parser@D@__crt_stdio_input@@QBEHXZ 00496020 f i libucrtd:input.obj
 0001:00095040       ?error_code@?$format_string_parser@_W@__crt_stdio_input@@QBEHXZ 00496040 f i libucrtd:input.obj
 0001:00095060       ?exponent_bias@floating_point_value@__crt_strtox@@QBEHXZ 00496060 f i libucrtd:input.obj
 0001:000950a0       ?get@?$__crt_unique_heap_ptr@EU__crt_internal_free_policy@@@@QBEPAEXZ 004960a0 f i libucrtd:input.obj
 0001:000950c0       ?get@?$input_adapter_character_source@V?$stream_input_adapter@D@__crt_stdio_input@@@__crt_strtox@@QAEDXZ 004960c0 f i libucrtd:input.obj
 0001:00095170       ?get@?$input_adapter_character_source@V?$stream_input_adapter@_W@__crt_stdio_input@@@__crt_strtox@@QAE_WXZ 00496170 f i libucrtd:input.obj
 0001:00095220       ?get@?$input_adapter_character_source@V?$string_input_adapter@D@__crt_stdio_input@@@__crt_strtox@@QAEDXZ 00496220 f i libucrtd:input.obj
 0001:000952d0       ?get@?$input_adapter_character_source@V?$string_input_adapter@_W@__crt_stdio_input@@@__crt_strtox@@QAE_WXZ 004962d0 f i libucrtd:input.obj
 0001:00095380       ?get@?$stream_input_adapter@D@__crt_stdio_input@@QAEHXZ 00496380 f i libucrtd:input.obj
 0001:000953e0       ?get@?$stream_input_adapter@_W@__crt_stdio_input@@QAEGXZ 004963e0 f i libucrtd:input.obj
 0001:00095440       ?get@?$string_input_adapter@D@__crt_stdio_input@@QAEHXZ 00496440 f i libucrtd:input.obj
 0001:00095490       ?get@?$string_input_adapter@_W@__crt_stdio_input@@QAEGXZ 00496490 f i libucrtd:input.obj
 0001:000954f0       ?invert@?$scanset_buffer@E@__crt_stdio_input@@QAEXXZ 004964f0 f i libucrtd:input.obj
 0001:00095560       ?invert@?$scanset_buffer@_W@__crt_stdio_input@@QAEXXZ 00496560 f i libucrtd:input.obj
 0001:000955d0       ?is_character_allowed_in_string@?$input_processor@DV?$stream_input_adapter@D@__crt_stdio_input@@@__crt_stdio_input@@ABE_NW4conversion_mode@2@H@Z 004965d0 f i libucrtd:input.obj
 0001:00095670       ?is_character_allowed_in_string@?$input_processor@DV?$string_input_adapter@D@__crt_stdio_input@@@__crt_stdio_input@@ABE_NW4conversion_mode@2@H@Z 00496670 f i libucrtd:input.obj
 0001:00095710       ?is_character_allowed_in_string@?$input_processor@_WV?$stream_input_adapter@_W@__crt_stdio_input@@@__crt_stdio_input@@ABE_NW4conversion_mode@2@G@Z 00496710 f i libucrtd:input.obj
 0001:000957c0       ?is_character_allowed_in_string@?$input_processor@_WV?$string_input_adapter@_W@__crt_stdio_input@@@__crt_stdio_input@@ABE_NW4conversion_mode@2@G@Z 004967c0 f i libucrtd:input.obj
 0001:00095870       ?is_digit_or_nondigit@__crt_strtox@@YA_NH@Z 00496870 f i libucrtd:input.obj
 0001:000958d0       ?is_double@floating_point_value@__crt_strtox@@QBE_NXZ 004968d0 f i libucrtd:input.obj
 0001:000958f0       ?is_length_valid@__crt_stdio_input@@YA_NW4conversion_mode@1@W4length_modifier@1@@Z 004968f0 f i libucrtd:input.obj
 0001:00095930       ?is_space@__crt_strtox@@YA_NDQAU__crt_locale_pointers@@@Z 00496930 f i libucrtd:input.obj
 0001:00095980       ?is_space@__crt_strtox@@YA_N_WPAU__crt_locale_pointers@@@Z 00496980 f i libucrtd:input.obj
 0001:000959c0       ?is_usable@?$scanset_buffer@E@__crt_stdio_input@@QAE_NXZ 004969c0 f i libucrtd:input.obj
 0001:00095a00       ?is_usable@?$scanset_buffer@_W@__crt_stdio_input@@QAE_NXZ 00496a00 f i libucrtd:input.obj
 0001:00095a40       ?is_valid@?$__crt_unique_heap_ptr@EU__crt_internal_free_policy@@@@QBE_NXZ 00496a40 f i libucrtd:input.obj
 0001:00095a80       ?kind@?$format_string_parser@D@__crt_stdio_input@@QBE?AW4format_directive_kind@2@XZ 00496a80 f i libucrtd:input.obj
 0001:00095aa0       ?kind@?$format_string_parser@_W@__crt_stdio_input@@QBE?AW4format_directive_kind@2@XZ 00496aa0 f i libucrtd:input.obj
 0001:00095ac0       ?length@?$format_string_parser@D@__crt_stdio_input@@QBEIXZ 00496ac0 f i libucrtd:input.obj
 0001:00095bb0       ?length@?$format_string_parser@_W@__crt_stdio_input@@QBEIXZ 00496bb0 f i libucrtd:input.obj
 0001:00095ca0       ?literal_character_lead@?$format_string_parser@D@__crt_stdio_input@@QBEEXZ 00496ca0 f i libucrtd:input.obj
 0001:00095d00       ?literal_character_lead@?$format_string_parser@_W@__crt_stdio_input@@QBE_WXZ 00496d00 f i libucrtd:input.obj
 0001:00095d60       ?literal_character_trail@?$format_string_parser@D@__crt_stdio_input@@QBEEXZ 00496d60 f i libucrtd:input.obj
 0001:00095dc0       ?make_big_integer@__crt_strtox@@YA?AUbig_integer@1@_K@Z 00496dc0 f i libucrtd:input.obj
 0001:00095ea0       ?mantissa_bits@floating_point_value@__crt_strtox@@QBEHXZ 00496ea0 f i libucrtd:input.obj
 0001:00095ee0       ?maximum_binary_exponent@floating_point_value@__crt_strtox@@QBEHXZ 00496ee0 f i libucrtd:input.obj
 0001:00095f20       ?maximum_signed_value@__crt_strtox@@YA_J_K@Z 00496f20 f i libucrtd:input.obj
 0001:00095f40       ?minimum_binary_exponent@floating_point_value@__crt_strtox@@QBEHXZ 00496f40 f i libucrtd:input.obj
 0001:00095f80       ?minimum_signed_value@__crt_strtox@@YA_J_K@Z 00496f80 f i libucrtd:input.obj
 0001:00095fa0       ?mode@?$format_string_parser@D@__crt_stdio_input@@QBE?AW4conversion_mode@2@XZ 00496fa0 f i libucrtd:input.obj
 0001:00096000       ?mode@?$format_string_parser@_W@__crt_stdio_input@@QBE?AW4conversion_mode@2@XZ 00497000 f i libucrtd:input.obj
 0001:00096060       ?multiply@__crt_strtox@@YA_NAAUbig_integer@1@ABU21@@Z 00497060 f i libucrtd:input.obj
 0001:000964c0       ?multiply@__crt_strtox@@YA_NAAUbig_integer@1@I@Z 004974c0 f i libucrtd:input.obj
 0001:000965c0       ?multiply_64_32@__crt_strtox@@YA_K_KI@Z 004975c0 f i libucrtd:input.obj
 0001:000965e0       ?multiply_by_power_of_ten@__crt_strtox@@YA_NAAUbig_integer@1@I@Z 004975e0 f i libucrtd:input.obj
 0001:000967e0       ?multiply_core@__crt_strtox@@YAIQAIII@Z 004977e0 f i libucrtd:input.obj
 0001:00096860       ?normal_mantissa_mask@floating_point_value@__crt_strtox@@QBE_KXZ 00497860 f i libucrtd:input.obj
 0001:000968b0       ?parse_digit@__crt_strtox@@YAID@Z 004978b0 f i libucrtd:input.obj
 0001:00096930       ?parse_digit@__crt_strtox@@YAI_W@Z 00497930 f i libucrtd:input.obj
 0001:000969d0       ?process@?$input_processor@DV?$stream_input_adapter@D@__crt_stdio_input@@@__crt_stdio_input@@QAEHXZ 004979d0 f i libucrtd:input.obj
 0001:00096b80       ?process@?$input_processor@DV?$string_input_adapter@D@__crt_stdio_input@@@__crt_stdio_input@@QAEHXZ 00497b80 f i libucrtd:input.obj
 0001:00096d30       ?process@?$input_processor@_WV?$stream_input_adapter@_W@__crt_stdio_input@@@__crt_stdio_input@@QAEHXZ 00497d30 f i libucrtd:input.obj
 0001:00096ef0       ?process@?$input_processor@_WV?$string_input_adapter@_W@__crt_stdio_input@@@__crt_stdio_input@@QAEHXZ 00497ef0 f i libucrtd:input.obj
 0001:000970b0       ?process_character_count_specifier@?$input_processor@DV?$stream_input_adapter@D@__crt_stdio_input@@@__crt_stdio_input@@AAE_NXZ 004980b0 f i libucrtd:input.obj
 0001:00097100       ?process_character_count_specifier@?$input_processor@DV?$string_input_adapter@D@__crt_stdio_input@@@__crt_stdio_input@@AAE_NXZ 00498100 f i libucrtd:input.obj
 0001:00097150       ?process_character_count_specifier@?$input_processor@_WV?$stream_input_adapter@_W@__crt_stdio_input@@@__crt_stdio_input@@AAE_NXZ 00498150 f i libucrtd:input.obj
 0001:000971a0       ?process_character_count_specifier@?$input_processor@_WV?$string_input_adapter@_W@__crt_stdio_input@@@__crt_stdio_input@@AAE_NXZ 004981a0 f i libucrtd:input.obj
 0001:000971f0       ?process_conversion_specifier@?$input_processor@DV?$stream_input_adapter@D@__crt_stdio_input@@@__crt_stdio_input@@AAE_NXZ 004981f0 f i libucrtd:input.obj
 0001:00097310       ?process_conversion_specifier@?$input_processor@DV?$string_input_adapter@D@__crt_stdio_input@@@__crt_stdio_input@@AAE_NXZ 00498310 f i libucrtd:input.obj
 0001:00097430       ?process_conversion_specifier@?$input_processor@_WV?$stream_input_adapter@_W@__crt_stdio_input@@@__crt_stdio_input@@AAE_NXZ 00498430 f i libucrtd:input.obj
 0001:00097550       ?process_conversion_specifier@?$input_processor@_WV?$string_input_adapter@_W@__crt_stdio_input@@@__crt_stdio_input@@AAE_NXZ 00498550 f i libucrtd:input.obj
 0001:00097670       ?process_floating_point_specifier@?$input_processor@DV?$stream_input_adapter@D@__crt_stdio_input@@@__crt_stdio_input@@AAE_NXZ 00498670 f i libucrtd:input.obj
 0001:000976d0       ?process_floating_point_specifier@?$input_processor@DV?$string_input_adapter@D@__crt_stdio_input@@@__crt_stdio_input@@AAE_NXZ 004986d0 f i libucrtd:input.obj
 0001:00097730       ?process_floating_point_specifier@?$input_processor@_WV?$stream_input_adapter@_W@__crt_stdio_input@@@__crt_stdio_input@@AAE_NXZ 00498730 f i libucrtd:input.obj
 0001:00097790       ?process_floating_point_specifier@?$input_processor@_WV?$string_input_adapter@_W@__crt_stdio_input@@@__crt_stdio_input@@AAE_NXZ 00498790 f i libucrtd:input.obj
 0001:000977f0       ?process_integer_specifier@?$input_processor@DV?$stream_input_adapter@D@__crt_stdio_input@@@__crt_stdio_input@@AAE_NI_N@Z 004987f0 f i libucrtd:input.obj
 0001:000978b0       ?process_integer_specifier@?$input_processor@DV?$string_input_adapter@D@__crt_stdio_input@@@__crt_stdio_input@@AAE_NI_N@Z 004988b0 f i libucrtd:input.obj
 0001:00097970       ?process_integer_specifier@?$input_processor@_WV?$stream_input_adapter@_W@__crt_stdio_input@@@__crt_stdio_input@@AAE_NI_N@Z 00498970 f i libucrtd:input.obj
 0001:00097a30       ?process_integer_specifier@?$input_processor@_WV?$string_input_adapter@_W@__crt_stdio_input@@@__crt_stdio_input@@AAE_NI_N@Z 00498a30 f i libucrtd:input.obj
 0001:00097af0       ?process_literal_character@?$input_processor@DV?$stream_input_adapter@D@__crt_stdio_input@@@__crt_stdio_input@@AAE_NXZ 00498af0 f i libucrtd:input.obj
 0001:00097b60       ?process_literal_character@?$input_processor@DV?$string_input_adapter@D@__crt_stdio_input@@@__crt_stdio_input@@AAE_NXZ 00498b60 f i libucrtd:input.obj
 0001:00097bd0       ?process_literal_character@?$input_processor@_WV?$stream_input_adapter@_W@__crt_stdio_input@@@__crt_stdio_input@@AAE_NXZ 00498bd0 f i libucrtd:input.obj
 0001:00097c50       ?process_literal_character@?$input_processor@_WV?$string_input_adapter@_W@__crt_stdio_input@@@__crt_stdio_input@@AAE_NXZ 00498c50 f i libucrtd:input.obj
 0001:00097cd0       ?process_literal_character_tchar@?$input_processor@DV?$stream_input_adapter@D@__crt_stdio_input@@@__crt_stdio_input@@AAE_ND@Z 00498cd0 f i libucrtd:input.obj
 0001:00097d60       ?process_literal_character_tchar@?$input_processor@DV?$string_input_adapter@D@__crt_stdio_input@@@__crt_stdio_input@@AAE_ND@Z 00498d60 f i libucrtd:input.obj
 0001:00097df0       ?process_literal_character_tchar@?$input_processor@_WV?$stream_input_adapter@_W@__crt_stdio_input@@@__crt_stdio_input@@AAE_N_W@Z 00498df0 f i libucrtd:input.obj
 0001:00097e10       ?process_literal_character_tchar@?$input_processor@_WV?$string_input_adapter@_W@__crt_stdio_input@@@__crt_stdio_input@@AAE_N_W@Z 00498e10 f i libucrtd:input.obj
 0001:00097e30       ?process_state@?$input_processor@DV?$stream_input_adapter@D@__crt_stdio_input@@@__crt_stdio_input@@AAE_NXZ 00498e30 f i libucrtd:input.obj
 0001:00097ef0       ?process_state@?$input_processor@DV?$string_input_adapter@D@__crt_stdio_input@@@__crt_stdio_input@@AAE_NXZ 00498ef0 f i libucrtd:input.obj
 0001:00097fb0       ?process_state@?$input_processor@_WV?$stream_input_adapter@_W@__crt_stdio_input@@@__crt_stdio_input@@AAE_NXZ 00498fb0 f i libucrtd:input.obj
 0001:00098070       ?process_state@?$input_processor@_WV?$string_input_adapter@_W@__crt_stdio_input@@@__crt_stdio_input@@AAE_NXZ 00499070 f i libucrtd:input.obj
 0001:00098130       ?process_string_specifier@?$input_processor@DV?$stream_input_adapter@D@__crt_stdio_input@@@__crt_stdio_input@@AAE_NW4conversion_mode@2@@Z 00499130 f i libucrtd:input.obj
 0001:000981b0       ?process_string_specifier@?$input_processor@DV?$string_input_adapter@D@__crt_stdio_input@@@__crt_stdio_input@@AAE_NW4conversion_mode@2@@Z 004991b0 f i libucrtd:input.obj
 0001:00098230       ?process_string_specifier@?$input_processor@_WV?$stream_input_adapter@_W@__crt_stdio_input@@@__crt_stdio_input@@AAE_NW4conversion_mode@2@@Z 00499230 f i libucrtd:input.obj
 0001:000982b0       ?process_string_specifier@?$input_processor@_WV?$string_input_adapter@_W@__crt_stdio_input@@@__crt_stdio_input@@AAE_NW4conversion_mode@2@@Z 004992b0 f i libucrtd:input.obj
 0001:00098330       ?process_whitespace@?$input_processor@DV?$stream_input_adapter@D@__crt_stdio_input@@@__crt_stdio_input@@AAE_NXZ 00499330 f i libucrtd:input.obj
 0001:00098370       ?process_whitespace@?$input_processor@DV?$string_input_adapter@D@__crt_stdio_input@@@__crt_stdio_input@@AAE_NXZ 00499370 f i libucrtd:input.obj
 0001:000983b0       ?process_whitespace@?$input_processor@_WV?$stream_input_adapter@_W@__crt_stdio_input@@@__crt_stdio_input@@AAE_NXZ 004993b0 f i libucrtd:input.obj
 0001:00098400       ?process_whitespace@?$input_processor@_WV?$string_input_adapter@_W@__crt_stdio_input@@@__crt_stdio_input@@AAE_NXZ 00499400 f i libucrtd:input.obj
 0001:00098450       ?release@?$__crt_unique_heap_ptr@EU__crt_internal_free_policy@@@@QAEXXZ 00499450 f i libucrtd:input.obj
 0001:00098480       ?reset@?$scanset_buffer@E@__crt_stdio_input@@QAEXXZ 00499480 f i libucrtd:input.obj
 0001:000984d0       ?reset@?$scanset_buffer@_W@__crt_stdio_input@@QAEXXZ 004994d0 f i libucrtd:input.obj
 0001:00098520       ?reset_token_state@?$format_string_parser@D@__crt_stdio_input@@AAEXXZ 00499520 f i libucrtd:input.obj
 0001:00098590       ?reset_token_state@?$format_string_parser@_W@__crt_stdio_input@@AAEXXZ 00499590 f i libucrtd:input.obj
 0001:00098610       ?reset_token_state_for_error@?$format_string_parser@D@__crt_stdio_input@@AAEXH@Z 00499610 f i libucrtd:input.obj
 0001:00098640       ?reset_token_state_for_error@?$format_string_parser@_W@__crt_stdio_input@@AAEXH@Z 00499640 f i libucrtd:input.obj
 0001:00098670       ?restore_state@?$input_adapter_character_source@V?$stream_input_adapter@D@__crt_stdio_input@@@__crt_strtox@@QAE_N_K@Z 00499670 f i libucrtd:input.obj
 0001:000986c0       ?restore_state@?$input_adapter_character_source@V?$stream_input_adapter@_W@__crt_stdio_input@@@__crt_strtox@@QAE_N_K@Z 004996c0 f i libucrtd:input.obj
 0001:00098710       ?restore_state@?$input_adapter_character_source@V?$string_input_adapter@D@__crt_stdio_input@@@__crt_strtox@@QAE_N_K@Z 00499710 f i libucrtd:input.obj
 0001:00098760       ?restore_state@?$input_adapter_character_source@V?$string_input_adapter@_W@__crt_stdio_input@@@__crt_strtox@@QAE_N_K@Z 00499760 f i libucrtd:input.obj
 0001:000987b0       ?right_shift_with_rounding@__crt_strtox@@YA_K_N_KI0@Z 004997b0 f i libucrtd:input.obj
 0001:00098930       ?save_state@?$input_adapter_character_source@V?$stream_input_adapter@D@__crt_stdio_input@@@__crt_strtox@@QBE_KXZ 00499930 f i libucrtd:input.obj
 0001:00098950       ?save_state@?$input_adapter_character_source@V?$stream_input_adapter@_W@__crt_stdio_input@@@__crt_strtox@@QBE_KXZ 00499950 f i libucrtd:input.obj
 0001:00098970       ?save_state@?$input_adapter_character_source@V?$string_input_adapter@D@__crt_stdio_input@@@__crt_strtox@@QBE_KXZ 00499970 f i libucrtd:input.obj
 0001:00098990       ?save_state@?$input_adapter_character_source@V?$string_input_adapter@_W@__crt_stdio_input@@@__crt_strtox@@QBE_KXZ 00499990 f i libucrtd:input.obj
 0001:000989b0       ?scan_conversion_specifier@?$format_string_parser@D@__crt_stdio_input@@AAE_NXZ 004999b0 f i libucrtd:input.obj
 0001:00098ca0       ?scan_conversion_specifier@?$format_string_parser@_W@__crt_stdio_input@@AAE_NXZ 00499ca0 f i libucrtd:input.obj
 0001:00098f90       ?scan_optional_assignment_suppressor@?$format_string_parser@D@__crt_stdio_input@@AAEXXZ 00499f90 f i libucrtd:input.obj
 0001:00098fd0       ?scan_optional_assignment_suppressor@?$format_string_parser@_W@__crt_stdio_input@@AAEXXZ 00499fd0 f i libucrtd:input.obj
 0001:00099010       ?scan_optional_field_width@?$format_string_parser@D@__crt_stdio_input@@AAE_NXZ 0049a010 f i libucrtd:input.obj
 0001:000990e0       ?scan_optional_field_width@?$format_string_parser@_W@__crt_stdio_input@@AAE_NXZ 0049a0e0 f i libucrtd:input.obj
 0001:000991a0       ?scan_optional_length_modifier@?$format_string_parser@D@__crt_stdio_input@@AAEXXZ 0049a1a0 f i libucrtd:input.obj
 0001:00099560       ?scan_optional_length_modifier@?$format_string_parser@_W@__crt_stdio_input@@AAEXXZ 0049a560 f i libucrtd:input.obj
 0001:00099920       ?scan_optional_literal_character_trail_bytes_tchar@?$format_string_parser@D@__crt_stdio_input@@AAE_ND@Z 0049a920 f i libucrtd:input.obj
 0001:000999a0       ?scan_optional_literal_character_trail_bytes_tchar@?$format_string_parser@_W@__crt_stdio_input@@AAE_N_W@Z 0049a9a0 f i libucrtd:input.obj
 0001:000999c0       ?scan_optional_wide_modifier@?$format_string_parser@D@__crt_stdio_input@@AAEXXZ 0049a9c0 f i libucrtd:input.obj
 0001:00099a30       ?scan_optional_wide_modifier@?$format_string_parser@_W@__crt_stdio_input@@AAEXXZ 0049aa30 f i libucrtd:input.obj
 0001:00099aa0       ?scan_scanset_range@?$format_string_parser@D@__crt_stdio_input@@AAE_NXZ 0049aaa0 f i libucrtd:input.obj
 0001:00099d00       ?scan_scanset_range@?$format_string_parser@_W@__crt_stdio_input@@AAE_NXZ 0049ad00 f i libucrtd:input.obj
 0001:00099f80       ?scanset@?$format_string_parser@D@__crt_stdio_input@@QBEABV?$scanset_buffer@E@2@XZ 0049af80 f i libucrtd:input.obj
 0001:00099fe0       ?scanset@?$format_string_parser@_W@__crt_stdio_input@@QBEABV?$scanset_buffer@_W@2@XZ 0049afe0 f i libucrtd:input.obj
 0001:0009a040       ?secure_buffers@?$input_processor@DV?$stream_input_adapter@D@__crt_stdio_input@@@__crt_stdio_input@@ABE_NXZ 0049b040 f i libucrtd:input.obj
 0001:0009a090       ?secure_buffers@?$input_processor@DV?$string_input_adapter@D@__crt_stdio_input@@@__crt_stdio_input@@ABE_NXZ 0049b090 f i libucrtd:input.obj
 0001:0009a0e0       ?secure_buffers@?$input_processor@_WV?$stream_input_adapter@_W@__crt_stdio_input@@@__crt_stdio_input@@ABE_NXZ 0049b0e0 f i libucrtd:input.obj
 0001:0009a130       ?secure_buffers@?$input_processor@_WV?$string_input_adapter@_W@__crt_stdio_input@@@__crt_stdio_input@@ABE_NXZ 0049b130 f i libucrtd:input.obj
 0001:0009a180       ?set@?$scanset_buffer@E@__crt_stdio_input@@QAEXE@Z 0049b180 f i libucrtd:input.obj
 0001:0009a1f0       ?set@?$scanset_buffer@_W@__crt_stdio_input@@QAEX_W@Z 0049b1f0 f i libucrtd:input.obj
 0001:0009a260       ?set_wide_for_c_s_or_scanset@?$format_string_parser@D@__crt_stdio_input@@AAEXXZ 0049b260 f i libucrtd:input.obj
 0001:0009a2b0       ?set_wide_for_c_s_or_scanset@?$format_string_parser@_W@__crt_stdio_input@@AAEXXZ 0049b2b0 f i libucrtd:input.obj
 0001:0009a300       ?shift_left@__crt_strtox@@YA_NAAUbig_integer@1@I@Z 0049b300 f i libucrtd:input.obj
 0001:0009a720       ?should_default_to_wide@?$format_string_parser@D@__crt_stdio_input@@AAE_NE@Z 0049b720 f i libucrtd:input.obj
 0001:0009a770       ?should_default_to_wide@?$format_string_parser@_W@__crt_stdio_input@@AAE_N_W@Z 0049b770 f i libucrtd:input.obj
 0001:0009a7f0       ?should_round_up@__crt_strtox@@YA_N_N000@Z 0049b7f0 f i libucrtd:input.obj
 0001:0009a920       ?size@?$scanset_storage@$00@__crt_stdio_input@@QBEIXZ 0049b920 f i libucrtd:input.obj
 0001:0009a940       ?size@?$scanset_storage@$01@__crt_stdio_input@@QBEIXZ 0049b940 f i libucrtd:input.obj
 0001:0009a960       ?suppress_assignment@?$format_string_parser@D@__crt_stdio_input@@QBE_NXZ 0049b960 f i libucrtd:input.obj
 0001:0009a9c0       ?suppress_assignment@?$format_string_parser@_W@__crt_stdio_input@@QBE_NXZ 0049b9c0 f i libucrtd:input.obj
 0001:0009aa20       ?test@?$scanset_buffer@E@__crt_stdio_input@@QBE_NE@Z 0049ba20 f i libucrtd:input.obj
 0001:0009aaa0       ?test@?$scanset_buffer@_W@__crt_stdio_input@@QBE_N_W@Z 0049baa0 f i libucrtd:input.obj
 0001:0009ab20       ?to_floating_point_length@__crt_stdio_input@@YAIW4length_modifier@1@@Z 0049bb20 f i libucrtd:input.obj
 0001:0009aba0       ?to_integer_length@__crt_stdio_input@@YAIW4length_modifier@1@@Z 0049bba0 f i libucrtd:input.obj
 0001:0009ac90       ?unget@?$input_adapter_character_source@V?$stream_input_adapter@D@__crt_stdio_input@@@__crt_strtox@@QAEXD@Z 0049bc90 f i libucrtd:input.obj
 0001:0009ad40       ?unget@?$input_adapter_character_source@V?$stream_input_adapter@_W@__crt_stdio_input@@@__crt_strtox@@QAEX_W@Z 0049bd40 f i libucrtd:input.obj
 0001:0009ae00       ?unget@?$input_adapter_character_source@V?$string_input_adapter@D@__crt_stdio_input@@@__crt_strtox@@QAEXD@Z 0049be00 f i libucrtd:input.obj
 0001:0009aeb0       ?unget@?$input_adapter_character_source@V?$string_input_adapter@_W@__crt_stdio_input@@@__crt_strtox@@QAEX_W@Z 0049beb0 f i libucrtd:input.obj
 0001:0009af70       ?unget@?$stream_input_adapter@D@__crt_stdio_input@@QAEXH@Z 0049bf70 f i libucrtd:input.obj
 0001:0009afd0       ?unget@?$stream_input_adapter@_W@__crt_stdio_input@@QAEXG@Z 0049bfd0 f i libucrtd:input.obj
 0001:0009b030       ?unget@?$string_input_adapter@D@__crt_stdio_input@@QAEXH@Z 0049c030 f i libucrtd:input.obj
 0001:0009b090       ?unget@?$string_input_adapter@_W@__crt_stdio_input@@QAEXG@Z 0049c090 f i libucrtd:input.obj
 0001:0009b0f0       ?validate@?$format_string_parser@D@__crt_stdio_input@@QBE_NXZ 0049c0f0 f i libucrtd:input.obj
 0001:0009b1b0       ?validate@?$format_string_parser@_W@__crt_stdio_input@@QBE_NXZ 0049c1b0 f i libucrtd:input.obj
 0001:0009b270       ?validate@?$input_adapter_character_source@V?$stream_input_adapter@D@__crt_stdio_input@@@__crt_strtox@@QBE_NXZ 0049c270 f i libucrtd:input.obj
 0001:0009b3d0       ?validate@?$input_adapter_character_source@V?$stream_input_adapter@_W@__crt_stdio_input@@@__crt_strtox@@QBE_NXZ 0049c3d0 f i libucrtd:input.obj
 0001:0009b530       ?validate@?$input_adapter_character_source@V?$string_input_adapter@D@__crt_stdio_input@@@__crt_strtox@@QBE_NXZ 0049c530 f i libucrtd:input.obj
 0001:0009b690       ?validate@?$input_adapter_character_source@V?$string_input_adapter@_W@__crt_stdio_input@@@__crt_strtox@@QBE_NXZ 0049c690 f i libucrtd:input.obj
 0001:0009b7f0       ?validate@?$stream_input_adapter@D@__crt_stdio_input@@QBE_NXZ 0049c7f0 f i libucrtd:input.obj
 0001:0009b8c0       ?validate@?$stream_input_adapter@_W@__crt_stdio_input@@QBE_NXZ 0049c8c0 f i libucrtd:input.obj
 0001:0009b990       ?validate@?$string_input_adapter@D@__crt_stdio_input@@QAE_NXZ 0049c990 f i libucrtd:input.obj
 0001:0009baf0       ?validate@?$string_input_adapter@_W@__crt_stdio_input@@QAE_NXZ 0049caf0 f i libucrtd:input.obj
 0001:0009bc50       ?wide_character_to_digit@__crt_strtox@@YAH_W@Z 0049cc50 f i libucrtd:input.obj
 0001:0009c040       ?width@?$format_string_parser@D@__crt_stdio_input@@QBE_KXZ 0049d040 f i libucrtd:input.obj
 0001:0009c0a0       ?width@?$format_string_parser@_W@__crt_stdio_input@@QBE_KXZ 0049d0a0 f i libucrtd:input.obj
 0001:0009c100       ?write_character@?$input_processor@DV?$stream_input_adapter@D@__crt_stdio_input@@@__crt_stdio_input@@AAE_NQADIAAPADAAID@Z 0049d100 f i libucrtd:input.obj
 0001:0009c150       ?write_character@?$input_processor@DV?$stream_input_adapter@D@__crt_stdio_input@@@__crt_stdio_input@@AAE_NQA_WIAAPA_WAAID@Z 0049d150 f i libucrtd:input.obj
 0001:0009c220       ?write_character@?$input_processor@DV?$string_input_adapter@D@__crt_stdio_input@@@__crt_stdio_input@@AAE_NQADIAAPADAAID@Z 0049d220 f i libucrtd:input.obj
 0001:0009c270       ?write_character@?$input_processor@DV?$string_input_adapter@D@__crt_stdio_input@@@__crt_stdio_input@@AAE_NQA_WIAAPA_WAAID@Z 0049d270 f i libucrtd:input.obj
 0001:0009c340       ?write_character@?$input_processor@_WV?$stream_input_adapter@_W@__crt_stdio_input@@@__crt_stdio_input@@AAE_NQADIAAPADAAI_W@Z 0049d340 f i libucrtd:input.obj
 0001:0009c450       ?write_character@?$input_processor@_WV?$stream_input_adapter@_W@__crt_stdio_input@@@__crt_stdio_input@@AAE_NQA_WIAAPA_WAAI_W@Z 0049d450 f i libucrtd:input.obj
 0001:0009c4a0       ?write_character@?$input_processor@_WV?$string_input_adapter@_W@__crt_stdio_input@@@__crt_stdio_input@@AAE_NQADIAAPADAAI_W@Z 0049d4a0 f i libucrtd:input.obj
 0001:0009c5b0       ?write_character@?$input_processor@_WV?$string_input_adapter@_W@__crt_stdio_input@@@__crt_stdio_input@@AAE_NQA_WIAAPA_WAAI_W@Z 0049d5b0 f i libucrtd:input.obj
 0001:0009c600       ?write_integer@?$input_processor@DV?$stream_input_adapter@D@__crt_stdio_input@@@__crt_stdio_input@@AAE_N_K@Z 0049d600 f i libucrtd:input.obj
 0001:0009c7b0       ?write_integer@?$input_processor@DV?$string_input_adapter@D@__crt_stdio_input@@@__crt_stdio_input@@AAE_N_K@Z 0049d7b0 f i libucrtd:input.obj
 0001:0009c960       ?write_integer@?$input_processor@_WV?$stream_input_adapter@_W@__crt_stdio_input@@@__crt_stdio_input@@AAE_N_K@Z 0049d960 f i libucrtd:input.obj
 0001:0009cb10       ?write_integer@?$input_processor@_WV?$string_input_adapter@_W@__crt_stdio_input@@@__crt_stdio_input@@AAE_N_K@Z 0049db10 f i libucrtd:input.obj
 0001:0009ccc0       ___acrt_get_locale_data_prefix 0049dcc0 f i libucrtd:input.obj
 0001:0009cce0       ___stdio_common_vfscanf    0049dce0 f   libucrtd:input.obj
 0001:0009cd10       ___stdio_common_vfwscanf   0049dd10 f   libucrtd:input.obj
 0001:0009cd40       ___stdio_common_vsscanf    0049dd40 f   libucrtd:input.obj
 0001:0009cd80       ___stdio_common_vswscanf   0049dd80 f   libucrtd:input.obj
 0001:0009cdc0       __chvalidchk_l             0049ddc0 f i libucrtd:input.obj
 0001:0009cdf0       __ischartype_l             0049ddf0 f i libucrtd:input.obj
 0001:0009cfa0       _realloc                   0049dfa0 f   libucrtd:realloc.obj
 0001:0009f100       ??$ftprintf@PAU_iobuf@@PBDABQBDABQBDABI@?$__crt_char_traits@D@@SAH$$QAPAU_iobuf@@$$QAPBDABQBD2ABI@Z 004a0100 f i libucrtd:assert.obj
 0001:0009f140       ??$ftprintf@PAU_iobuf@@PB_WABQB_WABQB_WABI@?$__crt_char_traits@_W@@SAH$$QAPAU_iobuf@@$$QAPB_WABQB_W2ABI@Z 004a0140 f i libucrtd:assert.obj
 0001:0009f180       ??$itot_s@ABIPADIH@?$__crt_char_traits@D@@SAHABI$$QAPAD$$QAI$$QAH@Z 004a0180 f i libucrtd:assert.obj
 0001:0009f1b0       ??$itot_s@ABIPA_WIH@?$__crt_char_traits@_W@@SAHABI$$QAPA_W$$QAI$$QAH@Z 004a01b0 f i libucrtd:assert.obj
 0001:0009f1e0       ??$show_message_box@AAY0CEA@DPBDJ@?$__crt_char_traits@D@@SAHAAY0CEA@D$$QAPBD$$QAJ@Z 004a01e0 f i libucrtd:assert.obj
 0001:0009f210       ??$show_message_box@AAY0CEA@_WPB_WJ@?$__crt_char_traits@_W@@SAHAAY0CEA@_W$$QAPB_W$$QAJ@Z 004a0210 f i libucrtd:assert.obj
 0001:0009f240       ??$tcscat_s@ABQADABIAAPAD@?$__crt_char_traits@D@@SAHABQADABIAAPAD@Z 004a0240 f i libucrtd:assert.obj
 0001:0009f270       ??$tcscat_s@ABQADABIABQBD@?$__crt_char_traits@D@@SAHABQADABIABQBD@Z 004a0270 f i libucrtd:assert.obj
 0001:0009f2a0       ??$tcscat_s@ABQADABIPBD@?$__crt_char_traits@D@@SAHABQADABI$$QAPBD@Z 004a02a0 f i libucrtd:assert.obj
 0001:0009f2d0       ??$tcscat_s@ABQA_WABIAAPA_W@?$__crt_char_traits@_W@@SAHABQA_WABIAAPA_W@Z 004a02d0 f i libucrtd:assert.obj
 0001:0009f300       ??$tcscat_s@ABQA_WABIABQB_W@?$__crt_char_traits@_W@@SAHABQA_WABIABQB_W@Z 004a0300 f i libucrtd:assert.obj
 0001:0009f330       ??$tcscat_s@ABQA_WABIPB_W@?$__crt_char_traits@_W@@SAHABQA_WABI$$QAPB_W@Z 004a0330 f i libucrtd:assert.obj
 0001:0009f360       ??$tcscpy_s@ABQADABIPBD@?$__crt_char_traits@D@@SAHABQADABI$$QAPBD@Z 004a0360 f i libucrtd:assert.obj
 0001:0009f390       ??$tcscpy_s@ABQA_WABIPB_W@?$__crt_char_traits@_W@@SAHABQA_WABI$$QAPB_W@Z 004a0390 f i libucrtd:assert.obj
 0001:0009f3c0       ??$tcslen@ABQAD@?$__crt_char_traits@D@@SAIABQAD@Z 004a03c0 f i libucrtd:assert.obj
 0001:0009f3e0       ??$tcslen@ABQA_W@?$__crt_char_traits@_W@@SAIABQA_W@Z 004a03e0 f i libucrtd:assert.obj
 0001:0009f400       ??$tcsncat_s@ABQADABIAAPBDI@?$__crt_char_traits@D@@SAHABQADABIAAPBD$$QAI@Z 004a0400 f i libucrtd:assert.obj
 0001:0009f430       ??$tcsncat_s@ABQADABIABQBDABI@?$__crt_char_traits@D@@SAHABQADABIABQBD1@Z 004a0430 f i libucrtd:assert.obj
 0001:0009f460       ??$tcsncat_s@ABQADABIPBDI@?$__crt_char_traits@D@@SAHABQADABI$$QAPBD$$QAI@Z 004a0460 f i libucrtd:assert.obj
 0001:0009f490       ??$tcsncat_s@ABQA_WABIAAPB_WI@?$__crt_char_traits@_W@@SAHABQA_WABIAAPB_W$$QAI@Z 004a0490 f i libucrtd:assert.obj
 0001:0009f4c0       ??$tcsncat_s@ABQA_WABIABQB_WABI@?$__crt_char_traits@_W@@SAHABQA_WABIABQB_W1@Z 004a04c0 f i libucrtd:assert.obj
 0001:0009f4f0       ??$tcsncat_s@ABQA_WABIPB_WI@?$__crt_char_traits@_W@@SAHABQA_WABI$$QAPB_W$$QAI@Z 004a04f0 f i libucrtd:assert.obj
 0001:0009f7f0       __assert                   004a07f0 f   libucrtd:assert.obj
 0001:0009f820       __vfwprintf_l              004a0820 f i libucrtd:assert.obj
 0001:0009f860       __vswprintf_c_l            004a0860 f i libucrtd:assert.obj
 0001:0009f8d0       __wassert                  004a08d0 f   libucrtd:assert.obj
 0001:0009f900       _fwprintf                  004a0900 f i libucrtd:assert.obj
 0001:0009faa0       _swprintf                  004a0aa0 f i libucrtd:assert.obj
 0001:0009faf0       __chgsign                  004a0af0 f   libucrtd:ieeemisc.obj
 0001:0009fb30       __chgsignf                 004a0b30 f   libucrtd:ieeemisc.obj
 0001:0009fb80       __copysign                 004a0b80 f   libucrtd:ieeemisc.obj
 0001:0009fbc0       __copysignf                004a0bc0 f   libucrtd:ieeemisc.obj
 0001:0009fc20       __finite                   004a0c20 f   libucrtd:ieeemisc.obj
 0001:0009fc50       __fpclass                  004a0c50 f   libucrtd:ieeemisc.obj
 0001:0009fd80       __isnan                    004a0d80 f   libucrtd:ieeemisc.obj
 0001:0009fde0       __logb                     004a0de0 f   libucrtd:ieeemisc.obj
 0001:0009ff40       __nextafter                004a0f40 f   libucrtd:ieeemisc.obj
 0001:0009ff70       __scalb                    004a0f70 f   libucrtd:ieeemisc.obj
 0001:0009ffa0       ___ascii_stricmp           004a0fa0 f   libucrtd:stricmp.obj
 0001:000a0040       _stricmp                   004a1040 f   libucrtd:stricmp.obj
 0001:000a0040       __stricmp                  004a1040 f   libucrtd:stricmp.obj
 0001:000a01d0       __stricmp_l                004a11d0 f   libucrtd:stricmp.obj
 0001:000a0430       __strnicmp                 004a1430 f   libucrtd:strnicmp.obj
 0001:000a0670       __strnicmp_l               004a1670 f   libucrtd:strnicmp.obj
 0001:000a0c10       ?has_big_buffer@__crt_stdio_stream@@QBE_NXZ 004a1c10 f i libucrtd:fwrite.obj
 0001:000a0c30       __fwrite_nolock            004a1c30 f   libucrtd:fwrite.obj
 0001:000a11d0       _fwrite                    004a21d0 f   libucrtd:fwrite.obj
 0001:000a12c0       ??$?RPAU__crt_stdio_stream_data@@@__crt_internal_free_policy@@QBEXQBQAU__crt_stdio_stream_data@@@Z 004a22c0 f i libucrtd:_file.obj
 0001:000a12f0       ??0?$__crt_unique_heap_ptr@PAU__crt_stdio_stream_data@@U__crt_internal_free_policy@@@@QAE@QAPAU__crt_stdio_stream_data@@@Z 004a22f0 f i libucrtd:_file.obj
 0001:000a1310       ??1?$__crt_unique_heap_ptr@PAU__crt_stdio_stream_data@@U__crt_internal_free_policy@@@@QAE@XZ 004a2310 f i libucrtd:_file.obj
 0001:000a1330       ?detach@?$__crt_unique_heap_ptr@PAU__crt_stdio_stream_data@@U__crt_internal_free_policy@@@@QAEPAPAU__crt_stdio_stream_data@@XZ 004a2330 f i libucrtd:_file.obj
 0001:000a1360       ?release@?$__crt_unique_heap_ptr@PAU__crt_stdio_stream_data@@U__crt_internal_free_policy@@@@QAEXXZ 004a2360 f i libucrtd:_file.obj
 0001:000a1390       ___acrt_initialize_stdio   004a2390 f   libucrtd:_file.obj
 0001:000a1560       ___acrt_iob_func           004a2560 f   libucrtd:_file.obj
 0001:000a1580       ___acrt_uninitialize_stdio 004a2580 f   libucrtd:_file.obj
 0001:000a1620       __get_stream_buffer_pointers 004a2620 f   libucrtd:_file.obj
 0001:000a1730       __lock_file                004a2730 f   libucrtd:_file.obj
 0001:000a1760       __unlock_file              004a2760 f   libucrtd:_file.obj
 0001:000a1790       _strcpy                    004a2790 f   libucrtd:strcat.obj
 0001:000a17a0       _strcat                    004a27a0 f   libucrtd:strcat.obj
 0001:000a18d0       ??$?B$$A6GXPAXK0@Z@__crt_fast_encoded_nullptr_t@@QBEP6GXPAXK0@ZXZ 004a28d0 f i libucrtd:exit.obj
 0001:000a19d0       ??$__crt_fast_decode_pointer@P6GXPAXK0@Z@@YAP6GXPAXK0@ZQ6GX0K0@Z@Z 004a29d0 f i libucrtd:exit.obj
 0001:000a1a10       ??$__crt_fast_encode_pointer@P6GXPAXK0@Z@@YAP6GXPAXK0@ZQ6GX0K0@Z@Z 004a2a10 f i libucrtd:exit.obj
 0001:000a1a50       ??$__crt_get_proc_address@P6GXI@Z@@YAP6GXI@ZQAUHINSTANCE__@@QBD@Z 004a2a50 f i libucrtd:exit.obj
 0001:000a1b10       ??0?$__crt_unique_handle_t@U__crt_hmodule_traits@@@@QAE@QAUHINSTANCE__@@@Z 004a2b10 f i libucrtd:exit.obj
 0001:000a1b30       ??1?$__crt_unique_handle_t@U__crt_hmodule_traits@@@@QAE@XZ 004a2b30 f i libucrtd:exit.obj
 0001:000a1d70       ?__acrt_select_exit_lock@@YA?AW4__acrt_lock_id@@XZ 004a2d70 f i libucrtd:exit.obj
 0001:000a1da0       ?close@?$__crt_unique_handle_t@U__crt_hmodule_traits@@@@QAEXXZ 004a2da0 f i libucrtd:exit.obj
 0001:000a1de0       ?close@__crt_hmodule_traits@@SA_NPAUHINSTANCE__@@@Z 004a2de0 f i libucrtd:exit.obj
 0001:000a1f10       ?get@?$__crt_unique_handle_t@U__crt_hmodule_traits@@@@QBEPAUHINSTANCE__@@XZ 004a2f10 f i libucrtd:exit.obj
 0001:000a1f30       ?get_address_of@?$__crt_unique_handle_t@U__crt_hmodule_traits@@@@QAEPAPAUHINSTANCE__@@XZ 004a2f30 f i libucrtd:exit.obj
 0001:000a1f50       ?get_invalid_value@__crt_hmodule_traits@@SAPAUHINSTANCE__@@XZ 004a2f50 f i libucrtd:exit.obj
 0001:000a2130       __Exit                     004a3130 f   libucrtd:exit.obj
 0001:000a2150       ___acrt_initialize_thread_local_exit_callback 004a3150 f   libucrtd:exit.obj
 0001:000a2170       __c_exit                   004a3170 f   libucrtd:exit.obj
 0001:000a2190       __cexit                    004a3190 f   libucrtd:exit.obj
 0001:000a21b0       __exit                     004a31b0 f   libucrtd:exit.obj
 0001:000a21d0       __is_c_termination_complete 004a31d0 f   libucrtd:exit.obj
 0001:000a21f0       __register_thread_local_exe_atexit_callback 004a31f0 f   libucrtd:exit.obj
 0001:000a2240       _exit                      004a3240 f   libucrtd:exit.obj
 0001:000a2260       _quick_exit                004a3260 f   libucrtd:exit.obj
 0001:000a2280       ??$?B$$A6AHI@Z@__crt_fast_encoded_nullptr_t@@QBEP6AHI@ZXZ 004a3280 f i libucrtd:new_handler.obj
 0001:000a22a0       ??$__crt_fast_decode_pointer@P6AHI@Z@@YAP6AHI@ZQ6AHI@Z@Z 004a32a0 f i libucrtd:new_handler.obj
 0001:000a22e0       ??$__crt_fast_encode_pointer@P6AHI@Z@@YAP6AHI@ZQ6AHI@Z@Z 004a32e0 f i libucrtd:new_handler.obj
 0001:000a2320       ?_set_new_handler@@YAP6AHI@ZH@Z 004a3320 f   libucrtd:new_handler.obj
 0001:000a2390       ?initialize@?$dual_state_global@P6AHI@Z@__crt_state_management@@QAEXQ6AHI@Z@Z 004a3390 f i libucrtd:new_handler.obj
 0001:000a23e0       ?value@?$dual_state_global@P6AHI@Z@__crt_state_management@@QAEAAP6AHI@ZXZ 004a33e0 f i libucrtd:new_handler.obj
 0001:000a2400       ___acrt_initialize_new_handler 004a3400 f   libucrtd:new_handler.obj
 0001:000a2420       __callnewh                 004a3420 f   libucrtd:new_handler.obj
 0001:000a2490       __query_new_handler        004a3490 f   libucrtd:new_handler.obj
 0001:000a2550       __set_new_handler          004a3550 f   libucrtd:new_handler.obj
 0001:000a2690       __seh_filter_dll           004a3690 f   libucrtd:exception_filter.obj
 0001:000a26c0       __seh_filter_exe           004a36c0 f   libucrtd:exception_filter.obj
 0001:000a2970       ??$?RPAD@__crt_internal_free_policy@@QBEXQBQAD@Z 004a3970 f i libucrtd:argv_parsing.obj
 0001:000a29a0       ??$?RPA_W@__crt_internal_free_policy@@QBEXQBQA_W@Z 004a39a0 f i libucrtd:argv_parsing.obj
 0001:000a3070       ??$get_module_file_name@$$TAAY0BAF@DH@?$__crt_char_traits@D@@SAK$$QA$$TAAY0BAF@D$$QAH@Z 004a4070 f i libucrtd:argv_parsing.obj
 0001:000a30a0       ??$get_module_file_name@$$TAAY0BAF@_WH@?$__crt_char_traits@_W@@SAK$$QA$$TAAY0BAF@_W$$QAH@Z 004a40a0 f i libucrtd:argv_parsing.obj
 0001:000a3990       ??$set_program_name@PAD@?$__crt_char_traits@D@@SAX$$QAPAD@Z 004a4990 f i libucrtd:argv_parsing.obj
 0001:000a39b0       ??$set_program_name@PA_W@?$__crt_char_traits@_W@@SAX$$QAPA_W@Z 004a49b0 f i libucrtd:argv_parsing.obj
 0001:000a3a10       ??0?$__crt_unique_heap_ptr@PADU__crt_internal_free_policy@@@@QAE@QAPAD@Z 004a4a10 f i libucrtd:argv_parsing.obj
 0001:000a3a30       ??0?$__crt_unique_heap_ptr@PA_WU__crt_internal_free_policy@@@@QAE@QAPA_W@Z 004a4a30 f i libucrtd:argv_parsing.obj
 0001:000a3a50       ??1?$__crt_unique_heap_ptr@PADU__crt_internal_free_policy@@@@QAE@XZ 004a4a50 f i libucrtd:argv_parsing.obj
 0001:000a3a70       ??1?$__crt_unique_heap_ptr@PA_WU__crt_internal_free_policy@@@@QAE@XZ 004a4a70 f i libucrtd:argv_parsing.obj
 0001:000a3b50       ?detach@?$__crt_unique_heap_ptr@EU__crt_internal_free_policy@@@@QAEPAEXZ 004a4b50 f i libucrtd:argv_parsing.obj
 0001:000a3b80       ?detach@?$__crt_unique_heap_ptr@PADU__crt_internal_free_policy@@@@QAEPAPADXZ 004a4b80 f i libucrtd:argv_parsing.obj
 0001:000a3bb0       ?detach@?$__crt_unique_heap_ptr@PA_WU__crt_internal_free_policy@@@@QAEPAPA_WXZ 004a4bb0 f i libucrtd:argv_parsing.obj
 0001:000a3c40       ?get@?$__crt_unique_heap_ptr@PADU__crt_internal_free_policy@@@@QBEPAPADXZ 004a4c40 f i libucrtd:argv_parsing.obj
 0001:000a3c60       ?get@?$__crt_unique_heap_ptr@PA_WU__crt_internal_free_policy@@@@QBEPAPA_WXZ 004a4c60 f i libucrtd:argv_parsing.obj
 0001:000a3c80       ?get_address_of@?$__crt_unique_heap_ptr@PADU__crt_internal_free_policy@@@@QAEPAPAPADXZ 004a4c80 f i libucrtd:argv_parsing.obj
 0001:000a3ca0       ?get_address_of@?$__crt_unique_heap_ptr@PA_WU__crt_internal_free_policy@@@@QAEPAPAPA_WXZ 004a4ca0 f i libucrtd:argv_parsing.obj
 0001:000a3d00       ?release@?$__crt_unique_heap_ptr@PADU__crt_internal_free_policy@@@@QAEXXZ 004a4d00 f i libucrtd:argv_parsing.obj
 0001:000a3d30       ?release@?$__crt_unique_heap_ptr@PA_WU__crt_internal_free_policy@@@@QAEXXZ 004a4d30 f i libucrtd:argv_parsing.obj
 0001:000a3db0       ___acrt_allocate_buffer_for_argv 004a4db0 f   libucrtd:argv_parsing.obj
 0001:000a3ea0       __configure_narrow_argv    004a4ea0 f   libucrtd:argv_parsing.obj
 0001:000a3ec0       __configure_wide_argv      004a4ec0 f   libucrtd:argv_parsing.obj
 0001:000a3ee0       __set_pgmptr               004a4ee0 f i libucrtd:argv_parsing.obj
 0001:000a3f00       __set_wpgmptr              004a4f00 f i libucrtd:argv_parsing.obj
 0001:000a3f12       ??$?R_W@__crt_internal_free_policy@@QBEXQB_W@Z 004a4f12 f i libucrtd:environment_initialization.obj
 0001:000a4497       ??$get_environment_from_os@$$V@?$__crt_char_traits@D@@SAPADXZ 004a5497 f i libucrtd:environment_initialization.obj
 0001:000a449c       ??$get_environment_from_os@$$V@?$__crt_char_traits@_W@@SAPA_WXZ 004a549c f i libucrtd:environment_initialization.obj
 0001:000a461a       ??$set_variable_in_environment_nolock@PADH@?$__crt_char_traits@D@@SAH$$QAPAD$$QAH@Z 004a561a f i libucrtd:environment_initialization.obj
 0001:000a4638       ??$set_variable_in_environment_nolock@PA_WH@?$__crt_char_traits@_W@@SAH$$QAPA_W$$QAH@Z 004a5638 f i libucrtd:environment_initialization.obj
 0001:000a4656       ??$tcscpy_s@PADABIAAPAD@?$__crt_char_traits@D@@SAH$$QAPADABIAAPAD@Z 004a5656 f i libucrtd:environment_initialization.obj
 0001:000a467b       ??$tcscpy_s@PA_WABIAAPA_W@?$__crt_char_traits@_W@@SAH$$QAPA_WABIAAPA_W@Z 004a567b f i libucrtd:environment_initialization.obj
 0001:000a46a0       ??$tcslen@AAPAD@?$__crt_char_traits@D@@SAIAAPAD@Z 004a56a0 f i libucrtd:environment_initialization.obj
 0001:000a46be       ??$tcslen@AAPA_W@?$__crt_char_traits@_W@@SAIAAPA_W@Z 004a56be f i libucrtd:environment_initialization.obj
 0001:000a46e3       ??$uninitialize@A6AXAAPAPAD@Z@?$dual_state_global@PAPAD@__crt_state_management@@QAEXA6AXAAPAPAD@Z@Z 004a56e3 f i libucrtd:environment_initialization.obj
 0001:000a4733       ??$uninitialize@A6AXAAPAPA_W@Z@?$dual_state_global@PAPA_W@__crt_state_management@@QAEXA6AXAAPAPA_W@Z@Z 004a5733 f i libucrtd:environment_initialization.obj
 0001:000a47c5       ??0?$__crt_unique_heap_ptr@_WU__crt_internal_free_policy@@@@QAE@QA_W@Z 004a57c5 f i libucrtd:environment_initialization.obj
 0001:000a47d9       ??1?$__crt_unique_heap_ptr@_WU__crt_internal_free_policy@@@@QAE@XZ 004a57d9 f i libucrtd:environment_initialization.obj
 0001:000a47f3       ??B?$__crt_unique_heap_ptr@PADU__crt_internal_free_policy@@@@QBE_NXZ 004a57f3 f i libucrtd:environment_initialization.obj
 0001:000a47fa       ??B?$__crt_unique_heap_ptr@PA_WU__crt_internal_free_policy@@@@QBE_NXZ 004a57fa f i libucrtd:environment_initialization.obj
 0001:000a4801       ??B?$__crt_unique_heap_ptr@_WU__crt_internal_free_policy@@@@QBE_NXZ 004a5801 f i libucrtd:environment_initialization.obj
 0001:000a4808       ?__crt_compute_required_transform_buffer_count@@YAIIQBD@Z 004a5808 f i libucrtd:environment_initialization.obj
 0001:000a482b       ?__crt_compute_required_transform_buffer_count@@YAIIQB_W@Z 004a582b f i libucrtd:environment_initialization.obj
 0001:000a4850       ?__crt_transform_string@@YAIIQBDQA_WI@Z 004a5850 f i libucrtd:environment_initialization.obj
 0001:000a4876       ?__crt_transform_string@@YAIIQB_WQADI@Z 004a5876 f i libucrtd:environment_initialization.obj
 0001:000a48a0       ?detach@?$__crt_unique_heap_ptr@DU__crt_internal_free_policy@@@@QAEPADXZ 004a58a0 f i libucrtd:environment_initialization.obj
 0001:000a48a6       ?detach@?$__crt_unique_heap_ptr@_WU__crt_internal_free_policy@@@@QAEPA_WXZ 004a58a6 f i libucrtd:environment_initialization.obj
 0001:000a48ac       ?get@?$__crt_unique_heap_ptr@_WU__crt_internal_free_policy@@@@QBEPA_WXZ 004a58ac f i libucrtd:environment_initialization.obj
 0001:000a48d3       ?initialize@?$dual_state_global@PAPAD@__crt_state_management@@QAEXQAPAD@Z 004a58d3 f i libucrtd:environment_initialization.obj
 0001:000a4902       ?initialize@?$dual_state_global@PAPA_W@__crt_state_management@@QAEXQAPA_W@Z 004a5902 f i libucrtd:environment_initialization.obj
 0001:000a4931       ?is_valid@?$__crt_unique_heap_ptr@PADU__crt_internal_free_policy@@@@QBE_NXZ 004a5931 f i libucrtd:environment_initialization.obj
 0001:000a4938       ?is_valid@?$__crt_unique_heap_ptr@PA_WU__crt_internal_free_policy@@@@QBE_NXZ 004a5938 f i libucrtd:environment_initialization.obj
 0001:000a493f       ?is_valid@?$__crt_unique_heap_ptr@_WU__crt_internal_free_policy@@@@QBE_NXZ 004a593f f i libucrtd:environment_initialization.obj
 0001:000a494c       ?release@?$__crt_unique_heap_ptr@_WU__crt_internal_free_policy@@@@QAEXXZ 004a594c f i libucrtd:environment_initialization.obj
 0001:000a4966       ?value@?$dual_state_global@PAPAD@__crt_state_management@@QAEAAPAPADXZ 004a5966 f i libucrtd:environment_initialization.obj
 0001:000a4969       ?value@?$dual_state_global@PAPA_W@__crt_state_management@@QAEAAPAPA_WXZ 004a5969 f i libucrtd:environment_initialization.obj
 0001:000a496c       ___dcrt_get_or_create_narrow_environment_nolock 004a596c f   libucrtd:environment_initialization.obj
 0001:000a4971       ___dcrt_get_or_create_wide_environment_nolock 004a5971 f   libucrtd:environment_initialization.obj
 0001:000a4976       ___dcrt_uninitialize_environments_nolock 004a5976 f   libucrtd:environment_initialization.obj
 0001:000a49ba       ___p__environ              004a59ba f   libucrtd:environment_initialization.obj
 0001:000a49c0       ___p__wenviron             004a59c0 f   libucrtd:environment_initialization.obj
 0001:000a49c6       __get_initial_narrow_environment 004a59c6 f   libucrtd:environment_initialization.obj
 0001:000a49df       __get_initial_wide_environment 004a59df f   libucrtd:environment_initialization.obj
 0001:000a49f8       __initialize_narrow_environment 004a59f8 f   libucrtd:environment_initialization.obj
 0001:000a49fd       __initialize_wide_environment 004a59fd f   libucrtd:environment_initialization.obj
 0001:000a4a10       ??$?BP6AXXZ@__crt_fast_encoded_nullptr_t@@QBEPAP6AXXZXZ 004a5a10 f i libucrtd:onexit.obj
 0001:000a4a30       ??$?RP6AXXZ@__crt_internal_free_policy@@QBEXQBQ6AXXZ@Z 004a5a30 f i libucrtd:onexit.obj
 0001:000a4c40       ??$__crt_fast_encode_pointer@P6AHXZ@@YAP6AHXZQ6AHXZ@Z 004a5c40 f i libucrtd:onexit.obj
 0001:000a4d90       ??0?$__crt_unique_heap_ptr@P6AXXZU__crt_internal_free_policy@@@@QAE@QAP6AXXZ@Z 004a5d90 f i libucrtd:onexit.obj
 0001:000a4db0       ??1?$__crt_unique_heap_ptr@P6AXXZU__crt_internal_free_policy@@@@QAE@XZ 004a5db0 f i libucrtd:onexit.obj
 0001:000a4dd0       ??1scoped_global_state_reset@__crt_state_management@@QAE@XZ 004a5dd0 f i libucrtd:onexit.obj
 0001:000a5380       ?detach@?$__crt_unique_heap_ptr@P6AXXZU__crt_internal_free_policy@@@@QAEPAP6AXXZXZ 004a6380 f i libucrtd:onexit.obj
 0001:000a53b0       ?release@?$__crt_unique_heap_ptr@P6AXXZU__crt_internal_free_policy@@@@QAEXXZ 004a63b0 f i libucrtd:onexit.obj
 0001:000a53e0       __crt_at_quick_exit        004a63e0 f   libucrtd:onexit.obj
 0001:000a5400       __crt_atexit               004a6400 f   libucrtd:onexit.obj
 0001:000a5420       __execute_onexit_table     004a6420 f   libucrtd:onexit.obj
 0001:000a5450       __initialize_onexit_table  004a6450 f   libucrtd:onexit.obj
 0001:000a54d0       __register_onexit_function 004a64d0 f   libucrtd:onexit.obj
 0001:000a5800       ?initialize@?$dual_state_global@PAU__crt_locale_data@@@__crt_state_management@@QAEXQAU__crt_locale_data@@@Z 004a6800 f i libucrtd:initialization.obj
 0001:000a5850       ___acrt_initialize         004a6850 f   libucrtd:initialization.obj
 0001:000a5870       ___acrt_thread_attach      004a6870 f   libucrtd:initialization.obj
 0001:000a5890       ___acrt_thread_detach      004a6890 f   libucrtd:initialization.obj
 0001:000a58b0       ___acrt_uninitialize       004a68b0 f   libucrtd:initialization.obj
 0001:000a58d0       ___acrt_uninitialize_critical 004a68d0 f   libucrtd:initialization.obj
 0001:000a58f0       __errcode                  004a68f0 f   libucrtd:fpexcept.obj
 0001:000a5980       __except1                  004a6980 f   libucrtd:fpexcept.obj
 0001:000a5ac0       __except2                  004a6ac0 f   libucrtd:fpexcept.obj
 0001:000a5c70       __handle_exc               004a6c70 f   libucrtd:fpexcept.obj
 0001:000a6050       __handle_qnan2             004a7050 f   libucrtd:fpexcept.obj
 0001:000a6070       __raise_exc                004a7070 f   libucrtd:fpexcept.obj
 0001:000a60b0       __raise_exc_ex             004a70b0 f   libucrtd:fpexcept.obj
 0001:000a6790       __raise_excf               004a7790 f   libucrtd:fpexcept.obj
 0001:000a67d0       __set_errno_from_matherr   004a77d0 f   libucrtd:fpexcept.obj
 0001:000a6820       __umatherr                 004a7820 f   libucrtd:fpexcept.obj
 0001:000a6b00       ___acrt_report_runtime_error 004a7b00 f   libucrtd:report_runtime_error.obj
 0001:000a6d70       __query_app_type           004a7d70 f   libucrtd:report_runtime_error.obj
 0001:000a6d80       __set_app_type             004a7d80 f   libucrtd:report_runtime_error.obj
 0001:000a6da0       ??$__crt_fast_decode_pointer@P6AHPAU_exception@@@Z@@YAP6AHPAU_exception@@@ZQ6AH0@Z@Z 004a7da0 f i libucrtd:matherr.obj
 0001:000a6de0       ??$__crt_fast_encode_pointer@P6AHPAU_exception@@@Z@@YAP6AHPAU_exception@@@ZQ6AH0@Z@Z 004a7de0 f i libucrtd:matherr.obj
